LIBRARY libtesseract302.dll
EXPORTS
??0LTRResultIterator@tesseract@@QEAA@AEBV01@@Z
??0LTRResultIterator@tesseract@@QEAA@PEAVPAGE_RES@@PEAVTesseract@1@HHHHHH@Z
??0PageIterator@tesseract@@QEAA@AEBV01@@Z
??0PageIterator@tesseract@@QEAA@PEAVPAGE_RES@@PEAVTesseract@1@HHHHHH@Z
??0ResultIterator@tesseract@@IEAA@AEBVLTRResultIterator@1@@Z
??0ResultIterator@tesseract@@QEAA@AEBV01@@Z
??0STRING@@QEAA@AEBV0@@Z
??0STRING@@QEAA@PEBD@Z
??0STRING@@QEAA@XZ
??0TessBaseAPI@tesseract@@QEAA@AEBV01@@Z
??0TessBaseAPI@tesseract@@QEAA@XZ
??1LTRResultIterator@tesseract@@UEAA@XZ
??1PageIterator@tesseract@@UEAA@XZ
??1ResultIterator@tesseract@@UEAA@XZ
??1STRING@@QEAA@XZ
??1TessBaseAPI@tesseract@@UEAA@XZ
??4LTRResultIterator@tesseract@@QEAAAEAV01@AEBV01@@Z
??4PageIterator@tesseract@@QEAAAEBV01@AEBV01@@Z
??4ResultIterator@tesseract@@QEAAAEAV01@AEBV01@@Z
??4STRING@@QEAAAEAV0@AEBV0@@Z
??4STRING@@QEAAAEAV0@PEBD@Z
??4TessBaseAPI@tesseract@@QEAAAEAV01@AEBV01@@Z
??8STRING@@QEBAEAEBV0@@Z
??9STRING@@QEBAEAEBV0@@Z
??9STRING@@QEBAEPEBD@Z
??ASTRING@@QEBAAEADH@Z
??HSTRING@@QEBA?AV0@AEBV0@@Z
??HSTRING@@QEBA?AV0@D@Z
??YSTRING@@QEAAAEAV0@AEBV0@@Z
??YSTRING@@QEAAAEAV0@D@Z
??YSTRING@@QEAAAEAV0@PEBD@Z
??_7LTRResultIterator@tesseract@@6B@ DATA
??_7PageIterator@tesseract@@6B@ DATA
??_7ResultIterator@tesseract@@6B@ DATA
??_7TessBaseAPI@tesseract@@6B@ DATA
?AdaptToCharacter@TessBaseAPI@tesseract@@IEAAXPEBDHMMMM@Z
?AdaptToWordStr@TessBaseAPI@tesseract@@QEAA_NW4PageSegMode@2@PEBD@Z
?AllWordConfidences@TessBaseAPI@tesseract@@QEAAPEAHXZ
?AllocData@STRING@@AEAAPEADHH@Z
?AnalyseLayout@TessBaseAPI@tesseract@@QEAAPEAVPageIterator@2@XZ
?AppendSuffixMarks@ResultIterator@tesseract@@AEBAXPEAVSTRING@@@Z
?AppendUTF8ParagraphText@ResultIterator@tesseract@@AEBAXPEAVSTRING@@@Z
?AppendUTF8WordText@ResultIterator@tesseract@@AEBAXPEAVSTRING@@@Z
?Baseline@PageIterator@tesseract@@QEBA_NW4PageIteratorLevel@2@PEAH111@Z
?Begin@PageIterator@tesseract@@UEAAXXZ
?Begin@ResultIterator@tesseract@@UEAAXXZ
?BeginWord@PageIterator@tesseract@@IEAAXH@Z
?BidiDebug@ResultIterator@tesseract@@AEBA_NH@Z
?BlockType@PageIterator@tesseract@@QEBA?AW4PolyBlockType@@XZ
?BoundingBox@PageIterator@tesseract@@QEBA_NW4PageIteratorLevel@2@PEAH111@Z
?BoundingBoxInternal@PageIterator@tesseract@@QEBA_NW4PageIteratorLevel@2@PEAH111@Z
?CalculateBlobOrder@ResultIterator@tesseract@@AEBAXPEAV?$GenericVector@H@@@Z
?CalculateTextlineOrder@ResultIterator@tesseract@@AEBAX_NAEBVLTRResultIterator@2@PEAV?$GenericVector@W4StrongScriptDirection@@@@PEAV?$GenericVectorEqEq@H@@@Z
?CalculateTextlineOrder@ResultIterator@tesseract@@AEBAX_NAEBVLTRResultIterator@2@PEAV?$GenericVectorEqEq@H@@@Z
?CalculateTextlineOrder@ResultIterator@tesseract@@SAX_NAEBV?$GenericVector@W4StrongScriptDirection@@@@PEAV?$GenericVectorEqEq@H@@@Z
?Clear@TessBaseAPI@tesseract@@QEAAXXZ
?ClearAdaptiveClassifier@TessBaseAPI@tesseract@@QEAAXXZ
?ClearResults@TessBaseAPI@tesseract@@IEAAXXZ
?Cmp@PageIterator@tesseract@@QEBAHAEBV12@@Z
?Confidence@LTRResultIterator@tesseract@@QEBAMW4PageIteratorLevel@2@@Z
?CurrentParagraphIsLtr@ResultIterator@tesseract@@AEBA_NXZ
?DeSerialize@STRING@@QEAA_N_NPEAU_iobuf@@@Z
?DeleteBlockList@TessBaseAPI@tesseract@@SAXPEAVBLOCK_LIST@@@Z
?DetectOS@TessBaseAPI@tesseract@@QEAA_NPEAUOSResults@@@Z
?DetectParagraphs@TessBaseAPI@tesseract@@IEAAX_N@Z
?DiscardData@STRING@@AEAAXXZ
?DumpPGM@TessBaseAPI@tesseract@@QEAAXPEBD@Z
?Empty@PageIterator@tesseract@@QEBA_NW4PageIteratorLevel@2@@Z
?End@TessBaseAPI@tesseract@@QEAAXXZ
?FindLines@TessBaseAPI@tesseract@@IEAAHXZ
?FindLinesCreateBlockList@TessBaseAPI@tesseract@@QEAAPEAVBLOCK_LIST@@XZ
?FindRowForBox@TessBaseAPI@tesseract@@SAPEAVROW@@PEAVBLOCK_LIST@@HHHH@Z
?FixHeader@STRING@@AEBAXXZ
?GetBinaryImage@PageIterator@tesseract@@QEBAPEAUPix@@W4PageIteratorLevel@2@@Z
?GetBlamerDebug@LTRResultIterator@tesseract@@QEBAPEBDXZ
?GetBlamerMisadaptionDebug@LTRResultIterator@tesseract@@QEBAPEBDXZ
?GetBlockTextOrientations@TessBaseAPI@tesseract@@QEAAXPEAPEAHPEAPEA_N@Z
?GetBoolVariable@TessBaseAPI@tesseract@@QEBA_NPEBDPEA_N@Z
?GetBoxText@TessBaseAPI@tesseract@@QEAAPEADH@Z
?GetCStr@STRING@@AEAAPEADXZ
?GetCStr@STRING@@AEBAPEBDXZ
?GetComponentImages@TessBaseAPI@tesseract@@QEAAPEAUBoxa@@W4PageIteratorLevel@2@_NPEAPEAUPixa@@PEAPEAH@Z
?GetConnectedComponents@TessBaseAPI@tesseract@@QEAAPEAUBoxa@@PEAPEAUPixa@@@Z
?GetCubeRecoContext@TessBaseAPI@tesseract@@QEBAPEAVCubeRecoContext@2@XZ
?GetDawg@TessBaseAPI@tesseract@@QEBAPEBVDawg@2@H@Z
?GetDoubleVariable@TessBaseAPI@tesseract@@QEBA_NPEBDPEAN@Z
?GetFeaturesForBlob@TessBaseAPI@tesseract@@QEAAXPEAUTBLOB@@AEBVDENORM@@QEAUINT_FEATURE_STRUCT@@PEAH3@Z
?GetHOCRText@TessBaseAPI@tesseract@@QEAAPEADH@Z
?GetHeader@STRING@@AEAAPEAUSTRING_HEADER@1@XZ
?GetHeader@STRING@@AEBAPEBUSTRING_HEADER@1@XZ
?GetImage@PageIterator@tesseract@@QEBAPEAUPix@@W4PageIteratorLevel@2@HPEAH1@Z
?GetInitLanguagesAsString@TessBaseAPI@tesseract@@QEBAPEBDXZ
?GetIntVariable@TessBaseAPI@tesseract@@QEBA_NPEBDPEAH@Z
?GetIterator@TessBaseAPI@tesseract@@QEAAPEAVResultIterator@2@XZ
?GetLTRIterator@TessBaseAPI@tesseract@@IEAAPEAVLTRResultIterator@2@XZ
?GetLoadedLanguagesAsVector@TessBaseAPI@tesseract@@QEBAXPEAV?$GenericVector@VSTRING@@@@@Z
?GetMutableIterator@TessBaseAPI@tesseract@@QEAAPEAVMutableIterator@2@XZ
?GetPageRes@TessBaseAPI@tesseract@@IEBAPEBVPAGE_RES@@XZ
?GetPageSegMode@TessBaseAPI@tesseract@@QEBA?AW4PageSegMode@2@XZ
?GetParamsTrainingBundle@LTRResultIterator@tesseract@@QEBAPEAXXZ
?GetRegions@TessBaseAPI@tesseract@@QEAAPEAUBoxa@@PEAPEAUPixa@@@Z
?GetStringVariable@TessBaseAPI@tesseract@@QEBAPEBDPEBD@Z
?GetStrips@TessBaseAPI@tesseract@@QEAAPEAUBoxa@@PEAPEAUPixa@@PEAPEAH@Z
?GetTextDirection@TessBaseAPI@tesseract@@QEAA_NPEAHPEAM@Z
?GetTextlines@TessBaseAPI@tesseract@@QEAAPEAUBoxa@@PEAPEAUPixa@@PEAPEAH@Z
?GetThresholdedImage@TessBaseAPI@tesseract@@QEAAPEAUPix@@XZ
?GetThresholdedImageScaleFactor@TessBaseAPI@tesseract@@QEBAHXZ
?GetUNLVText@TessBaseAPI@tesseract@@QEAAPEADXZ
?GetUTF8Text@LTRResultIterator@tesseract@@QEBAPEADW4PageIteratorLevel@2@@Z
?GetUTF8Text@ResultIterator@tesseract@@UEBAPEADW4PageIteratorLevel@2@@Z
?GetUTF8Text@TessBaseAPI@tesseract@@QEAAPEADXZ
?GetUnichar@TessBaseAPI@tesseract@@QEAAPEBDH@Z
?GetVariableAsString@TessBaseAPI@tesseract@@QEAA_NPEBDPEAVSTRING@@@Z
?GetWords@TessBaseAPI@tesseract@@QEAAPEAUBoxa@@PEAPEAUPixa@@@Z
?HasBlamerInfo@LTRResultIterator@tesseract@@QEBA_NXZ
?Init@TessBaseAPI@tesseract@@QEAAHPEBD0@Z
?Init@TessBaseAPI@tesseract@@QEAAHPEBD0W4OcrEngineMode@2@@Z
?Init@TessBaseAPI@tesseract@@QEAAHPEBD0W4OcrEngineMode@2@PEAPEADHPEBV?$GenericVector@VSTRING@@@@3_N@Z
?InitForAnalysePage@TessBaseAPI@tesseract@@QEAAXXZ
?InitLangMod@TessBaseAPI@tesseract@@QEAAHPEBD0@Z
?InitTruthCallback@TessBaseAPI@tesseract@@QEAAXPEAV?$TessCallback3@AEBVUNICHARSET@@HPEAVPAGE_RES@@@@@Z
?InternalSetImage@TessBaseAPI@tesseract@@IEAA_NXZ
?InvariantOk@STRING@@AEBA_NXZ
?IsAtBeginningOf@PageIterator@tesseract@@UEBA_NW4PageIteratorLevel@2@@Z
?IsAtBeginningOf@ResultIterator@tesseract@@UEBA_NW4PageIteratorLevel@2@@Z
?IsAtFinalElement@PageIterator@tesseract@@UEBA_NW4PageIteratorLevel@2@0@Z
?IsAtFinalElement@ResultIterator@tesseract@@UEBA_NW4PageIteratorLevel@2@0@Z
?IsAtFinalSymbolOfWord@ResultIterator@tesseract@@AEBA_NXZ
?IsAtFirstSymbolOfWord@ResultIterator@tesseract@@AEBA_NXZ
?IsValidWord@TessBaseAPI@tesseract@@QEAAHPEBD@Z
?IsWithinFirstTextlineOfParagraph@PageIterator@tesseract@@QEBA_NXZ
?IterateAndAppendUTF8TextlineText@ResultIterator@tesseract@@AEAAXPEAVSTRING@@@Z
?LTRWordIndex@ResultIterator@tesseract@@AEBAHXZ
?MakeTBLOB@TessBaseAPI@tesseract@@SAPEAUTBLOB@@PEAUPix@@@Z
?MakeTessOCRRow@TessBaseAPI@tesseract@@SAPEAVROW@@MMMM@Z
?MeanTextConf@TessBaseAPI@tesseract@@QEAAHXZ
?MoveToLogicalStartOfTextline@ResultIterator@tesseract@@AEAAXXZ
?MoveToLogicalStartOfWord@ResultIterator@tesseract@@AEAAXXZ
?Next@PageIterator@tesseract@@UEAA_NW4PageIteratorLevel@2@@Z
?Next@ResultIterator@tesseract@@UEAA_NW4PageIteratorLevel@2@@Z
?NormalizeTBLOB@TessBaseAPI@tesseract@@SAXPEAUTBLOB@@PEAVROW@@_NPEAVDENORM@@@Z
?NumDawgs@TessBaseAPI@tesseract@@QEBAHXZ
?Orientation@PageIterator@tesseract@@QEBAXPEAW402@PEAW4WritingDirection@2@PEAW4TextlineOrder@2@PEAM@Z
?ParagraphInfo@PageIterator@tesseract@@QEBAXPEAW4ParagraphJustification@2@PEA_N1PEAH@Z
?ParagraphIsLtr@ResultIterator@tesseract@@QEBA_NXZ
?PositionedAtSameWord@PageIterator@tesseract@@QEBA_NPEBVPAGE_RES_IT@@@Z
?PrintVariables@TessBaseAPI@tesseract@@QEBAXPEAU_iobuf@@@Z
?ProcessPage@TessBaseAPI@tesseract@@QEAA_NPEAUPix@@HPEBD1HPEAVSTRING@@@Z
?ProcessPages@TessBaseAPI@tesseract@@QEAA_NPEBD0HPEAVSTRING@@@Z
?ReadConfigFile@TessBaseAPI@tesseract@@QEAAXPEBD@Z
?ReadDebugConfigFile@TessBaseAPI@tesseract@@QEAAXPEBD@Z
?RecognitionPass1@TessBaseAPI@tesseract@@IEAAPEAVPAGE_RES@@PEAVBLOCK_LIST@@@Z
?RecognitionPass2@TessBaseAPI@tesseract@@IEAAPEAVPAGE_RES@@PEAVBLOCK_LIST@@PEAV3@@Z
?Recognize@TessBaseAPI@tesseract@@QEAAHPEAVETEXT_DESC@@@Z
?RecognizeForChopTest@TessBaseAPI@tesseract@@QEAAHPEAVETEXT_DESC@@@Z
?RestartParagraph@PageIterator@tesseract@@UEAAXXZ
?RestartRow@PageIterator@tesseract@@UEAAXXZ
?RunAdaptiveClassifier@TessBaseAPI@tesseract@@QEAAXPEAUTBLOB@@AEBVDENORM@@HPEAHPEAM2@Z
?Serialize@STRING@@QEBA_NPEAU_iobuf@@@Z
?SetDebugVariable@TessBaseAPI@tesseract@@QEAA_NPEBD0@Z
?SetDictFunc@TessBaseAPI@tesseract@@QEAAXP8Dict@2@EBAHPEAXH_N@Z@Z
?SetFillLatticeFunc@TessBaseAPI@tesseract@@QEAAXP8Wordrec@2@EAAXAEBVMATRIX@@AEBQEAUlist_rec@@AEBVUNICHARSET@@PEAUBlamerBundle@@@Z@Z
?SetImage@TessBaseAPI@tesseract@@QEAAXPEBEHHHH@Z
?SetImage@TessBaseAPI@tesseract@@QEAAXPEBUPix@@@Z
?SetInputName@TessBaseAPI@tesseract@@QEAAXPEBD@Z
?SetLineSeparator@LTRResultIterator@tesseract@@QEAAXPEBD@Z
?SetOutputName@TessBaseAPI@tesseract@@QEAAXPEBD@Z
?SetPageSegMode@TessBaseAPI@tesseract@@QEAAXW4PageSegMode@2@@Z
?SetParagraphSeparator@LTRResultIterator@tesseract@@QEAAXPEBD@Z
?SetProbabilityInContextFunc@TessBaseAPI@tesseract@@QEAAXP8Dict@2@EAANPEBD0H0H@Z@Z
?SetRectangle@TessBaseAPI@tesseract@@QEAAXHHHH@Z
?SetSourceResolution@TessBaseAPI@tesseract@@QEAAXH@Z
?SetThresholder@TessBaseAPI@tesseract@@QEAAXPEAVImageThresholder@2@@Z
?SetVariable@TessBaseAPI@tesseract@@QEAA_NPEBD0@Z
?StartOfParagraph@ResultIterator@tesseract@@SAPEAV12@AEBVLTRResultIterator@2@@Z
?SymbolIsDropcap@LTRResultIterator@tesseract@@QEBA_NXZ
?SymbolIsSubscript@LTRResultIterator@tesseract@@QEBA_NXZ
?SymbolIsSuperscript@LTRResultIterator@tesseract@@QEBA_NXZ
?TesseractExtractResult@TessBaseAPI@tesseract@@KAHPEAPEADPEAPEAHPEAPEAM1111PEAVPAGE_RES@@@Z
?TesseractRect@TessBaseAPI@tesseract@@QEAAPEADPEBEHHHHHH@Z
?TextLength@TessBaseAPI@tesseract@@IEAAHPEAH@Z
?Threshold@TessBaseAPI@tesseract@@MEAAXPEAPEAUPix@@@Z
?Version@TessBaseAPI@tesseract@@SAPEBDXZ
?WordDirection@LTRResultIterator@tesseract@@QEBA?AW4StrongScriptDirection@@XZ
?WordFontAttributes@LTRResultIterator@tesseract@@QEBAPEBDPEA_N00000PEAH1@Z
?WordIsFromDictionary@LTRResultIterator@tesseract@@QEBA_NXZ
?WordIsNumeric@LTRResultIterator@tesseract@@QEBA_NXZ
?WordLattice@LTRResultIterator@tesseract@@QEBAPEBDPEAH@Z
?WordRecognitionLanguage@LTRResultIterator@tesseract@@QEBAPEBDXZ
?WordTruthUTF8Text@LTRResultIterator@tesseract@@QEBAPEADXZ
?add_str_int@STRING@@QEAAXPEBDH@Z
?contains@STRING@@QEBAED@Z
?ensure@STRING@@QEAAXH@Z
?ensure_cstr@STRING@@AEAAPEADH@Z
?kComplexWord@ResultIterator@tesseract@@2HB DATA
?kMinorRunEnd@ResultIterator@tesseract@@2HB DATA
?kMinorRunStart@ResultIterator@tesseract@@2HB DATA
?length@STRING@@QEBAHXZ
?oem@TessBaseAPI@tesseract@@QEBA?BW4OcrEngineMode@2@XZ
?set_min_orientation_margin@TessBaseAPI@tesseract@@QEAAXN@Z
?size@STRING@@QEBAHXZ
?split@STRING@@QEAAXDPEAV?$GenericVector@VSTRING@@@@@Z
?string@STRING@@QEBAPEBDXZ
?tesseract@TessBaseAPI@0@QEBAQEAVTesseract@0@XZ
?tprintf@@YAXPEBDZZ
?truncate_at@STRING@@QEAAXH@Z
