; dlltool -z libopencv_core244.def --export-all-symbol libopencv_core244.dll
EXPORTS
	DeleteCriticalSection @ 1 DATA
	DeleteFileA @ 2 DATA
	DllEntryPoint @ 3
	DllMain @ 4
	DllMainCRTStartup @ 5
	EnterCriticalSection @ 6 DATA
	GetCurrentProcess @ 7 DATA
	GetCurrentProcessId @ 8 DATA
	GetCurrentThreadId @ 9 DATA
	GetLastError @ 10 DATA
	GetModuleHandleA @ 11 DATA
	GetProcAddress @ 12 DATA
	GetSystemInfo @ 13 DATA
	GetSystemTimeAsFileTime @ 14 DATA
	GetTempFileNameA @ 15 DATA
	GetTempPathA @ 16 DATA
	GetTickCount @ 17 DATA
	InitializeCriticalSection @ 18 DATA
	IsDBCSLeadByteEx @ 19 DATA
	LeaveCriticalSection @ 20 DATA
	LoadLibraryW @ 21 DATA
	MultiByteToWideChar @ 22 DATA
	QueryPerformanceCounter @ 23 DATA
	QueryPerformanceFrequency @ 24 DATA
	RtlAddFunctionTable @ 25 DATA
	RtlCaptureContext @ 26 DATA
	RtlLookupFunctionEntry @ 27 DATA
	RtlVirtualUnwind @ 28 DATA
	SetUnhandledExceptionFilter @ 29 DATA
	Sleep @ 30 DATA
	TerminateProcess @ 31 DATA
	TlsAlloc @ 32 DATA
	TlsGetValue @ 33 DATA
	TlsSetValue @ 34 DATA
	TryEnterCriticalSection @ 35 DATA
	UnhandledExceptionFilter @ 36 DATA
	VirtualProtect @ 37 DATA
	VirtualQuery @ 38 DATA
	WideCharToMultiByte @ 39 DATA
	_CRT_INIT @ 40
	_CRT_MT @ 41 DATA
	_FindPESection @ 42
	_FindPESectionByName @ 43
	_FindPESectionExec @ 44
	_GetPEImageBase @ 45
	_IsNonwritableInCurrentImage @ 46
	_Unwind_SjLj_Register @ 47
	_Unwind_SjLj_Resume @ 48
	_Unwind_SjLj_Unregister @ 49
	_ValidateImageBase @ 50
;	icvCheckGlError(char const*, int, char const*)
	_Z15icvCheckGlErrorPKciS0_ @ 51
;	icvSetOpenGlFuncTab(CvOpenGlFuncTab const*)
	_Z19icvSetOpenGlFuncTabPK15CvOpenGlFuncTab @ 52
;	DllMain(HINSTANCE__*, unsigned long, void*)
	_Z7DllMainP11HINSTANCE__mPv @ 53
;	CvOpenGlFuncTab::~CvOpenGlFuncTab()
	_ZN15CvOpenGlFuncTabD0Ev @ 54
;	CvOpenGlFuncTab::~CvOpenGlFuncTab()
	_ZN15CvOpenGlFuncTabD1Ev @ 55
;	CvOpenGlFuncTab::~CvOpenGlFuncTab()
	_ZN15CvOpenGlFuncTabD2Ev @ 56
;	cv::AutoBuffer<cv::Mat, 32ull>::deallocate()
	_ZN2cv10AutoBufferINS_3MatELy32EE10deallocateEv @ 57
;	cv::AutoBuffer<cv::Mat, 32ull>::allocate(unsigned long long)
	_ZN2cv10AutoBufferINS_3MatELy32EE8allocateEy @ 58
;	cv::AutoBuffer<cv::Mat, 32ull>::AutoBuffer(unsigned long long)
	_ZN2cv10AutoBufferINS_3MatELy32EEC1Ey @ 59
;	cv::AutoBuffer<cv::Mat, 32ull>::AutoBuffer(unsigned long long)
	_ZN2cv10AutoBufferINS_3MatELy32EEC2Ey @ 60
;	cv::AutoBuffer<cv::Mat, 32ull>::~AutoBuffer()
	_ZN2cv10AutoBufferINS_3MatELy32EED1Ev @ 61
;	cv::AutoBuffer<cv::Mat, 32ull>::~AutoBuffer()
	_ZN2cv10AutoBufferINS_3MatELy32EED2Ev @ 62
;	cv::AutoBuffer<cv::Mat, 32ull>::operator cv::Mat*()
	_ZN2cv10AutoBufferINS_3MatELy32EEcvPS1_Ev @ 63
;	cv::AutoBuffer<cv::Mat, 50ull>::deallocate()
	_ZN2cv10AutoBufferINS_3MatELy50EE10deallocateEv @ 64
;	cv::AutoBuffer<cv::Mat, 50ull>::allocate(unsigned long long)
	_ZN2cv10AutoBufferINS_3MatELy50EE8allocateEy @ 65
;	cv::AutoBuffer<cv::Mat, 50ull>::AutoBuffer(unsigned long long)
	_ZN2cv10AutoBufferINS_3MatELy50EEC1Ey @ 66
;	cv::AutoBuffer<cv::Mat, 50ull>::AutoBuffer(unsigned long long)
	_ZN2cv10AutoBufferINS_3MatELy50EEC2Ey @ 67
;	cv::AutoBuffer<cv::Mat, 50ull>::~AutoBuffer()
	_ZN2cv10AutoBufferINS_3MatELy50EED1Ev @ 68
;	cv::AutoBuffer<cv::Mat, 50ull>::~AutoBuffer()
	_ZN2cv10AutoBufferINS_3MatELy50EED2Ev @ 69
;	cv::AutoBuffer<cv::Mat, 50ull>::operator cv::Mat*()
	_ZN2cv10AutoBufferINS_3MatELy50EEcvPS1_Ev @ 70
;	cv::AutoBuffer<cv::Range, 520ull>::deallocate()
	_ZN2cv10AutoBufferINS_5RangeELy520EE10deallocateEv @ 71
;	cv::AutoBuffer<cv::Range, 520ull>::allocate(unsigned long long)
	_ZN2cv10AutoBufferINS_5RangeELy520EE8allocateEy @ 72
;	cv::AutoBuffer<cv::Range, 520ull>::AutoBuffer(unsigned long long)
	_ZN2cv10AutoBufferINS_5RangeELy520EEC1Ey @ 73
;	cv::AutoBuffer<cv::Range, 520ull>::AutoBuffer(unsigned long long)
	_ZN2cv10AutoBufferINS_5RangeELy520EEC2Ey @ 74
;	cv::AutoBuffer<cv::Range, 520ull>::~AutoBuffer()
	_ZN2cv10AutoBufferINS_5RangeELy520EED1Ev @ 75
;	cv::AutoBuffer<cv::Range, 520ull>::~AutoBuffer()
	_ZN2cv10AutoBufferINS_5RangeELy520EED2Ev @ 76
;	cv::AutoBuffer<cv::Range, 520ull>::operator cv::Range*()
	_ZN2cv10AutoBufferINS_5RangeELy520EEcvPS1_Ev @ 77
;	cv::AutoBuffer<cv::Complex<double>, 264ull>::deallocate()
	_ZN2cv10AutoBufferINS_7ComplexIdEELy264EE10deallocateEv @ 78
;	cv::AutoBuffer<cv::Complex<double>, 264ull>::allocate(unsigned long long)
	_ZN2cv10AutoBufferINS_7ComplexIdEELy264EE8allocateEy @ 79
;	cv::AutoBuffer<cv::Complex<double>, 264ull>::AutoBuffer()
	_ZN2cv10AutoBufferINS_7ComplexIdEELy264EEC1Ev @ 80
;	cv::AutoBuffer<cv::Complex<double>, 264ull>::AutoBuffer(unsigned long long)
	_ZN2cv10AutoBufferINS_7ComplexIdEELy264EEC1Ey @ 81
;	cv::AutoBuffer<cv::Complex<double>, 264ull>::AutoBuffer()
	_ZN2cv10AutoBufferINS_7ComplexIdEELy264EEC2Ev @ 82
;	cv::AutoBuffer<cv::Complex<double>, 264ull>::AutoBuffer(unsigned long long)
	_ZN2cv10AutoBufferINS_7ComplexIdEELy264EEC2Ey @ 83
;	cv::AutoBuffer<cv::Complex<double>, 264ull>::~AutoBuffer()
	_ZN2cv10AutoBufferINS_7ComplexIdEELy264EED1Ev @ 84
;	cv::AutoBuffer<cv::Complex<double>, 264ull>::~AutoBuffer()
	_ZN2cv10AutoBufferINS_7ComplexIdEELy264EED2Ev @ 85
;	cv::AutoBuffer<cv::Complex<double>, 264ull>::operator cv::Complex<double>*()
	_ZN2cv10AutoBufferINS_7ComplexIdEELy264EEcvPS2_Ev @ 86
;	cv::AutoBuffer<cv::Complex<float>, 520ull>::deallocate()
	_ZN2cv10AutoBufferINS_7ComplexIfEELy520EE10deallocateEv @ 87
;	cv::AutoBuffer<cv::Complex<float>, 520ull>::allocate(unsigned long long)
	_ZN2cv10AutoBufferINS_7ComplexIfEELy520EE8allocateEy @ 88
;	cv::AutoBuffer<cv::Complex<float>, 520ull>::AutoBuffer()
	_ZN2cv10AutoBufferINS_7ComplexIfEELy520EEC1Ev @ 89
;	cv::AutoBuffer<cv::Complex<float>, 520ull>::AutoBuffer()
	_ZN2cv10AutoBufferINS_7ComplexIfEELy520EEC2Ev @ 90
;	cv::AutoBuffer<cv::Complex<float>, 520ull>::~AutoBuffer()
	_ZN2cv10AutoBufferINS_7ComplexIfEELy520EED1Ev @ 91
;	cv::AutoBuffer<cv::Complex<float>, 520ull>::~AutoBuffer()
	_ZN2cv10AutoBufferINS_7ComplexIfEELy520EED2Ev @ 92
;	cv::AutoBuffer<cv::Complex<float>, 520ull>::operator cv::Complex<float>*()
	_ZN2cv10AutoBufferINS_7ComplexIfEELy520EEcvPS2_Ev @ 93
;	cv::AutoBuffer<cv::Point_<int>*, 520ull>::deallocate()
	_ZN2cv10AutoBufferIPNS_6Point_IiEELy520EE10deallocateEv @ 94
;	cv::AutoBuffer<cv::Point_<int>*, 520ull>::allocate(unsigned long long)
	_ZN2cv10AutoBufferIPNS_6Point_IiEELy520EE8allocateEy @ 95
;	cv::AutoBuffer<cv::Point_<int>*, 520ull>::AutoBuffer(unsigned long long)
	_ZN2cv10AutoBufferIPNS_6Point_IiEELy520EEC1Ey @ 96
;	cv::AutoBuffer<cv::Point_<int>*, 520ull>::AutoBuffer(unsigned long long)
	_ZN2cv10AutoBufferIPNS_6Point_IiEELy520EEC2Ey @ 97
;	cv::AutoBuffer<cv::Point_<int>*, 520ull>::~AutoBuffer()
	_ZN2cv10AutoBufferIPNS_6Point_IiEELy520EED1Ev @ 98
;	cv::AutoBuffer<cv::Point_<int>*, 520ull>::~AutoBuffer()
	_ZN2cv10AutoBufferIPNS_6Point_IiEELy520EED2Ev @ 99
;	cv::AutoBuffer<cv::Point_<int>*, 520ull>::operator cv::Point_<int>**()
	_ZN2cv10AutoBufferIPNS_6Point_IiEELy520EEcvPS3_Ev @ 100
;	cv::AutoBuffer<signed char, 4104ull>::deallocate()
	_ZN2cv10AutoBufferIaLy4104EE10deallocateEv @ 101
;	cv::AutoBuffer<signed char, 4104ull>::allocate(unsigned long long)
	_ZN2cv10AutoBufferIaLy4104EE8allocateEy @ 102
;	cv::AutoBuffer<signed char, 4104ull>::AutoBuffer()
	_ZN2cv10AutoBufferIaLy4104EEC1Ev @ 103
;	cv::AutoBuffer<signed char, 4104ull>::AutoBuffer()
	_ZN2cv10AutoBufferIaLy4104EEC2Ev @ 104
;	cv::AutoBuffer<signed char, 4104ull>::~AutoBuffer()
	_ZN2cv10AutoBufferIaLy4104EED1Ev @ 105
;	cv::AutoBuffer<signed char, 4104ull>::~AutoBuffer()
	_ZN2cv10AutoBufferIaLy4104EED2Ev @ 106
;	cv::AutoBuffer<signed char, 4104ull>::operator signed char*()
	_ZN2cv10AutoBufferIaLy4104EEcvPaEv @ 107
;	cv::AutoBuffer<char, 4104ull>::deallocate()
	_ZN2cv10AutoBufferIcLy4104EE10deallocateEv @ 108
;	cv::AutoBuffer<char, 4104ull>::allocate(unsigned long long)
	_ZN2cv10AutoBufferIcLy4104EE8allocateEy @ 109
;	cv::AutoBuffer<char, 4104ull>::AutoBuffer(unsigned long long)
	_ZN2cv10AutoBufferIcLy4104EEC1Ey @ 110
;	cv::AutoBuffer<char, 4104ull>::AutoBuffer(unsigned long long)
	_ZN2cv10AutoBufferIcLy4104EEC2Ey @ 111
;	cv::AutoBuffer<char, 4104ull>::~AutoBuffer()
	_ZN2cv10AutoBufferIcLy4104EED1Ev @ 112
;	cv::AutoBuffer<char, 4104ull>::~AutoBuffer()
	_ZN2cv10AutoBufferIcLy4104EED2Ev @ 113
;	cv::AutoBuffer<char, 4104ull>::operator char*()
	_ZN2cv10AutoBufferIcLy4104EEcvPcEv @ 114
;	cv::AutoBuffer<double, 520ull>::deallocate()
	_ZN2cv10AutoBufferIdLy520EE10deallocateEv @ 115
;	cv::AutoBuffer<double, 520ull>::allocate(unsigned long long)
	_ZN2cv10AutoBufferIdLy520EE8allocateEy @ 116
;	cv::AutoBuffer<double, 520ull>::AutoBuffer()
	_ZN2cv10AutoBufferIdLy520EEC1Ev @ 117
;	cv::AutoBuffer<double, 520ull>::AutoBuffer(unsigned long long)
	_ZN2cv10AutoBufferIdLy520EEC1Ey @ 118
;	cv::AutoBuffer<double, 520ull>::AutoBuffer()
	_ZN2cv10AutoBufferIdLy520EEC2Ev @ 119
;	cv::AutoBuffer<double, 520ull>::AutoBuffer(unsigned long long)
	_ZN2cv10AutoBufferIdLy520EEC2Ey @ 120
;	cv::AutoBuffer<double, 520ull>::~AutoBuffer()
	_ZN2cv10AutoBufferIdLy520EED1Ev @ 121
;	cv::AutoBuffer<double, 520ull>::~AutoBuffer()
	_ZN2cv10AutoBufferIdLy520EED2Ev @ 122
;	cv::AutoBuffer<double, 520ull>::operator double*()
	_ZN2cv10AutoBufferIdLy520EEcvPdEv @ 123
;	cv::AutoBuffer<float, 1032ull>::deallocate()
	_ZN2cv10AutoBufferIfLy1032EE10deallocateEv @ 124
;	cv::AutoBuffer<float, 1032ull>::allocate(unsigned long long)
	_ZN2cv10AutoBufferIfLy1032EE8allocateEy @ 125
;	cv::AutoBuffer<float, 1032ull>::AutoBuffer()
	_ZN2cv10AutoBufferIfLy1032EEC1Ev @ 126
;	cv::AutoBuffer<float, 1032ull>::AutoBuffer(unsigned long long)
	_ZN2cv10AutoBufferIfLy1032EEC1Ey @ 127
;	cv::AutoBuffer<float, 1032ull>::AutoBuffer()
	_ZN2cv10AutoBufferIfLy1032EEC2Ev @ 128
;	cv::AutoBuffer<float, 1032ull>::AutoBuffer(unsigned long long)
	_ZN2cv10AutoBufferIfLy1032EEC2Ey @ 129
;	cv::AutoBuffer<float, 1032ull>::~AutoBuffer()
	_ZN2cv10AutoBufferIfLy1032EED1Ev @ 130
;	cv::AutoBuffer<float, 1032ull>::~AutoBuffer()
	_ZN2cv10AutoBufferIfLy1032EED2Ev @ 131
;	cv::AutoBuffer<float, 1032ull>::operator float*()
	_ZN2cv10AutoBufferIfLy1032EEcvPfEv @ 132
;	cv::AutoBuffer<unsigned char, 4104ull>::deallocate()
	_ZN2cv10AutoBufferIhLy4104EE10deallocateEv @ 133
;	cv::AutoBuffer<unsigned char, 4104ull>::allocate(unsigned long long)
	_ZN2cv10AutoBufferIhLy4104EE8allocateEy @ 134
;	cv::AutoBuffer<unsigned char, 4104ull>::AutoBuffer()
	_ZN2cv10AutoBufferIhLy4104EEC1Ev @ 135
;	cv::AutoBuffer<unsigned char, 4104ull>::AutoBuffer(unsigned long long)
	_ZN2cv10AutoBufferIhLy4104EEC1Ey @ 136
;	cv::AutoBuffer<unsigned char, 4104ull>::AutoBuffer()
	_ZN2cv10AutoBufferIhLy4104EEC2Ev @ 137
;	cv::AutoBuffer<unsigned char, 4104ull>::AutoBuffer(unsigned long long)
	_ZN2cv10AutoBufferIhLy4104EEC2Ey @ 138
;	cv::AutoBuffer<unsigned char, 4104ull>::~AutoBuffer()
	_ZN2cv10AutoBufferIhLy4104EED1Ev @ 139
;	cv::AutoBuffer<unsigned char, 4104ull>::~AutoBuffer()
	_ZN2cv10AutoBufferIhLy4104EED2Ev @ 140
;	cv::AutoBuffer<unsigned char, 4104ull>::operator unsigned char*()
	_ZN2cv10AutoBufferIhLy4104EEcvPhEv @ 141
;	cv::AutoBuffer<int, 1032ull>::deallocate()
	_ZN2cv10AutoBufferIiLy1032EE10deallocateEv @ 142
;	cv::AutoBuffer<int, 1032ull>::allocate(unsigned long long)
	_ZN2cv10AutoBufferIiLy1032EE8allocateEy @ 143
;	cv::AutoBuffer<int, 1032ull>::AutoBuffer()
	_ZN2cv10AutoBufferIiLy1032EEC1Ev @ 144
;	cv::AutoBuffer<int, 1032ull>::AutoBuffer(unsigned long long)
	_ZN2cv10AutoBufferIiLy1032EEC1Ey @ 145
;	cv::AutoBuffer<int, 1032ull>::AutoBuffer()
	_ZN2cv10AutoBufferIiLy1032EEC2Ev @ 146
;	cv::AutoBuffer<int, 1032ull>::AutoBuffer(unsigned long long)
	_ZN2cv10AutoBufferIiLy1032EEC2Ey @ 147
;	cv::AutoBuffer<int, 1032ull>::~AutoBuffer()
	_ZN2cv10AutoBufferIiLy1032EED1Ev @ 148
;	cv::AutoBuffer<int, 1032ull>::~AutoBuffer()
	_ZN2cv10AutoBufferIiLy1032EED2Ev @ 149
;	cv::AutoBuffer<int, 1032ull>::operator int*()
	_ZN2cv10AutoBufferIiLy1032EEcvPiEv @ 150
;	cv::AutoBuffer<short, 2056ull>::deallocate()
	_ZN2cv10AutoBufferIsLy2056EE10deallocateEv @ 151
;	cv::AutoBuffer<short, 2056ull>::allocate(unsigned long long)
	_ZN2cv10AutoBufferIsLy2056EE8allocateEy @ 152
;	cv::AutoBuffer<short, 2056ull>::AutoBuffer()
	_ZN2cv10AutoBufferIsLy2056EEC1Ev @ 153
;	cv::AutoBuffer<short, 2056ull>::AutoBuffer(unsigned long long)
	_ZN2cv10AutoBufferIsLy2056EEC1Ey @ 154
;	cv::AutoBuffer<short, 2056ull>::AutoBuffer()
	_ZN2cv10AutoBufferIsLy2056EEC2Ev @ 155
;	cv::AutoBuffer<short, 2056ull>::AutoBuffer(unsigned long long)
	_ZN2cv10AutoBufferIsLy2056EEC2Ey @ 156
;	cv::AutoBuffer<short, 2056ull>::~AutoBuffer()
	_ZN2cv10AutoBufferIsLy2056EED1Ev @ 157
;	cv::AutoBuffer<short, 2056ull>::~AutoBuffer()
	_ZN2cv10AutoBufferIsLy2056EED2Ev @ 158
;	cv::AutoBuffer<short, 2056ull>::operator short*()
	_ZN2cv10AutoBufferIsLy2056EEcvPsEv @ 159
;	cv::AutoBuffer<unsigned short, 2056ull>::deallocate()
	_ZN2cv10AutoBufferItLy2056EE10deallocateEv @ 160
;	cv::AutoBuffer<unsigned short, 2056ull>::allocate(unsigned long long)
	_ZN2cv10AutoBufferItLy2056EE8allocateEy @ 161
;	cv::AutoBuffer<unsigned short, 2056ull>::AutoBuffer()
	_ZN2cv10AutoBufferItLy2056EEC1Ev @ 162
;	cv::AutoBuffer<unsigned short, 2056ull>::AutoBuffer(unsigned long long)
	_ZN2cv10AutoBufferItLy2056EEC1Ey @ 163
;	cv::AutoBuffer<unsigned short, 2056ull>::AutoBuffer()
	_ZN2cv10AutoBufferItLy2056EEC2Ev @ 164
;	cv::AutoBuffer<unsigned short, 2056ull>::AutoBuffer(unsigned long long)
	_ZN2cv10AutoBufferItLy2056EEC2Ey @ 165
;	cv::AutoBuffer<unsigned short, 2056ull>::~AutoBuffer()
	_ZN2cv10AutoBufferItLy2056EED1Ev @ 166
;	cv::AutoBuffer<unsigned short, 2056ull>::~AutoBuffer()
	_ZN2cv10AutoBufferItLy2056EED2Ev @ 167
;	cv::AutoBuffer<unsigned short, 2056ull>::operator unsigned short*()
	_ZN2cv10AutoBufferItLy2056EEcvPtEv @ 168
;	cv::AutoBuffer<wchar_t, 2056ull>::deallocate()
	_ZN2cv10AutoBufferIwLy2056EE10deallocateEv @ 169
;	cv::AutoBuffer<wchar_t, 2056ull>::allocate(unsigned long long)
	_ZN2cv10AutoBufferIwLy2056EE8allocateEy @ 170
;	cv::AutoBuffer<wchar_t, 2056ull>::AutoBuffer(unsigned long long)
	_ZN2cv10AutoBufferIwLy2056EEC1Ey @ 171
;	cv::AutoBuffer<wchar_t, 2056ull>::AutoBuffer(unsigned long long)
	_ZN2cv10AutoBufferIwLy2056EEC2Ey @ 172
;	cv::AutoBuffer<wchar_t, 2056ull>::~AutoBuffer()
	_ZN2cv10AutoBufferIwLy2056EED1Ev @ 173
;	cv::AutoBuffer<wchar_t, 2056ull>::~AutoBuffer()
	_ZN2cv10AutoBufferIwLy2056EED2Ev @ 174
;	cv::AutoBuffer<wchar_t, 2056ull>::operator wchar_t*()
	_ZN2cv10AutoBufferIwLy2056EEcvPwEv @ 175
;	cv::CFormatter::~CFormatter()
	_ZN2cv10CFormatterD0Ev @ 176
;	cv::CFormatter::~CFormatter()
	_ZN2cv10CFormatterD1Ev @ 177
;	cv::MatOp_GEMM::makeExpr(cv::MatExpr&, int, cv::Mat const&, cv::Mat const&, double, cv::Mat const&, double)
	_ZN2cv10MatOp_GEMM8makeExprERNS_7MatExprEiRKNS_3MatES5_dS5_d @ 178
;	cv::MatOp_GEMM::~MatOp_GEMM()
	_ZN2cv10MatOp_GEMMD0Ev @ 179
;	cv::MatOp_GEMM::~MatOp_GEMM()
	_ZN2cv10MatOp_GEMMD1Ev @ 180
;	cv::PCACompute(cv::_InputArray const&, cv::_OutputArray const&, cv::_OutputArray const&, int)
	_ZN2cv10PCAComputeERKNS_11_InputArrayERKNS_12_OutputArrayES5_i @ 181
;	cv::PCAProject(cv::_InputArray const&, cv::_InputArray const&, cv::_InputArray const&, cv::_OutputArray const&)
	_ZN2cv10PCAProjectERKNS_11_InputArrayES2_S2_RKNS_12_OutputArrayE @ 182
;	cv::USE_SSE4_2
	_ZN2cv10USE_SSE4_2E @ 183 DATA
;	cv::bitwise_or(cv::_InputArray const&, cv::_InputArray const&, cv::_OutputArray const&, cv::_InputArray const&)
	_ZN2cv10bitwise_orERKNS_11_InputArrayES2_RKNS_12_OutputArrayES2_ @ 184
;	cv::checkRange(cv::_InputArray const&, bool, cv::Point_<int>*, double, double)
	_ZN2cv10checkRangeERKNS_11_InputArrayEbPNS_6Point_IiEEdd @ 185
;	cv::cvarrToMat(void const*, bool, bool, int)
	_ZN2cv10cvarrToMatEPKvbbi @ 186
;	cv::fastMalloc(unsigned long long)
	_ZN2cv10fastMallocEy @ 187
;	cv::g_8x32fTab
	_ZN2cv10g_8x32fTabE @ 188 DATA
;	cv::getSeqElem(CvSeq const*, int)
	_ZN2cv10getSeqElemEPK5CvSeqi @ 189
;	cv::meanStdDev(cv::_InputArray const&, cv::_OutputArray const&, cv::_OutputArray const&, cv::_InputArray const&)
	_ZN2cv10meanStdDevERKNS_11_InputArrayERKNS_12_OutputArrayES5_S2_ @ 190
;	cv::normL2Sqr_(float const*, float const*, int)
	_ZN2cv10normL2Sqr_EPKfS1_i @ 191
;	cv::solveCubic(cv::_InputArray const&, cv::_OutputArray const&)
	_ZN2cv10solveCubicERKNS_11_InputArrayERKNS_12_OutputArrayE @ 192
;	cv::FileStorage::releaseAndGetString()
	_ZN2cv11FileStorage19releaseAndGetStringEv @ 193
;	cv::FileStorage::getDefaultObjectName(std::string const&)
	_ZN2cv11FileStorage20getDefaultObjectNameERKSs @ 194
;	cv::FileStorage::open(std::string const&, int, std::string const&)
	_ZN2cv11FileStorage4openERKSsiS2_ @ 195
;	cv::FileStorage::release()
	_ZN2cv11FileStorage7releaseEv @ 196
;	cv::FileStorage::writeObj(std::string const&, void const*)
	_ZN2cv11FileStorage8writeObjERKSsPKv @ 197
;	cv::FileStorage::writeRaw(std::string const&, unsigned char const*, unsigned long long)
	_ZN2cv11FileStorage8writeRawERKSsPKhy @ 198
;	cv::FileStorage::FileStorage(CvFileStorage*)
	_ZN2cv11FileStorageC1EP13CvFileStorage @ 199
;	cv::FileStorage::FileStorage(std::string const&, int, std::string const&)
	_ZN2cv11FileStorageC1ERKSsiS2_ @ 200
;	cv::FileStorage::FileStorage()
	_ZN2cv11FileStorageC1Ev @ 201
;	cv::FileStorage::FileStorage(CvFileStorage*)
	_ZN2cv11FileStorageC2EP13CvFileStorage @ 202
;	cv::FileStorage::FileStorage(std::string const&, int, std::string const&)
	_ZN2cv11FileStorageC2ERKSsiS2_ @ 203
;	cv::FileStorage::FileStorage()
	_ZN2cv11FileStorageC2Ev @ 204
;	cv::FileStorage::~FileStorage()
	_ZN2cv11FileStorageD0Ev @ 205
;	cv::FileStorage::~FileStorage()
	_ZN2cv11FileStorageD1Ev @ 206
;	cv::FileStorage::~FileStorage()
	_ZN2cv11FileStorageD2Ev @ 207
;	cv::FileStorage::operator*()
	_ZN2cv11FileStoragedeEv @ 208
;	bool cv::JacobiImpl_<double>(double*, unsigned long long, double*, double*, unsigned long long, int, unsigned char*)
	_ZN2cv11JacobiImpl_IdEEbPT_yS2_S2_yiPh @ 209
;	bool cv::JacobiImpl_<float>(float*, unsigned long long, float*, float*, unsigned long long, int, unsigned char*)
	_ZN2cv11JacobiImpl_IfEEbPT_yS2_S2_yiPh @ 210
;	cv::LessThanIdx<signed char>::LessThanIdx(signed char const*)
	_ZN2cv11LessThanIdxIaEC1EPKa @ 211
;	cv::LessThanIdx<signed char>::LessThanIdx(signed char const*)
	_ZN2cv11LessThanIdxIaEC2EPKa @ 212
;	cv::LessThanIdx<double>::LessThanIdx(double const*)
	_ZN2cv11LessThanIdxIdEC1EPKd @ 213
;	cv::LessThanIdx<double>::LessThanIdx(double const*)
	_ZN2cv11LessThanIdxIdEC2EPKd @ 214
;	cv::LessThanIdx<float>::LessThanIdx(float const*)
	_ZN2cv11LessThanIdxIfEC1EPKf @ 215
;	cv::LessThanIdx<float>::LessThanIdx(float const*)
	_ZN2cv11LessThanIdxIfEC2EPKf @ 216
;	cv::LessThanIdx<unsigned char>::LessThanIdx(unsigned char const*)
	_ZN2cv11LessThanIdxIhEC1EPKh @ 217
;	cv::LessThanIdx<unsigned char>::LessThanIdx(unsigned char const*)
	_ZN2cv11LessThanIdxIhEC2EPKh @ 218
;	cv::LessThanIdx<int>::LessThanIdx(int const*)
	_ZN2cv11LessThanIdxIiEC1EPKi @ 219
;	cv::LessThanIdx<int>::LessThanIdx(int const*)
	_ZN2cv11LessThanIdxIiEC2EPKi @ 220
;	cv::LessThanIdx<short>::LessThanIdx(short const*)
	_ZN2cv11LessThanIdxIsEC1EPKs @ 221
;	cv::LessThanIdx<short>::LessThanIdx(short const*)
	_ZN2cv11LessThanIdxIsEC2EPKs @ 222
;	cv::LessThanIdx<unsigned short>::LessThanIdx(unsigned short const*)
	_ZN2cv11LessThanIdxItEC1EPKt @ 223
;	cv::LessThanIdx<unsigned short>::LessThanIdx(unsigned short const*)
	_ZN2cv11LessThanIdxItEC2EPKt @ 224
;	cv::Mahalanobis(cv::_InputArray const&, cv::_InputArray const&, cv::_InputArray const&)
	_ZN2cv11MahalanobisERKNS_11_InputArrayES2_S2_ @ 225
;	cv::Mahalonobis(cv::_InputArray const&, cv::_InputArray const&, cv::_InputArray const&)
	_ZN2cv11MahalonobisERKNS_11_InputArrayES2_S2_ @ 226
;	cv::MatOp_AddEx::makeExpr(cv::MatExpr&, cv::Mat const&, cv::Mat const&, double, double, cv::Scalar_<double> const&)
	_ZN2cv11MatOp_AddEx8makeExprERNS_7MatExprERKNS_3MatES5_ddRKNS_7Scalar_IdEE @ 227
;	cv::MatOp_AddEx::~MatOp_AddEx()
	_ZN2cv11MatOp_AddExD0Ev @ 228
;	cv::MatOp_AddEx::~MatOp_AddEx()
	_ZN2cv11MatOp_AddExD1Ev @ 229
;	cv::MatOp_Solve::makeExpr(cv::MatExpr&, int, cv::Mat const&, cv::Mat const&)
	_ZN2cv11MatOp_Solve8makeExprERNS_7MatExprEiRKNS_3MatES5_ @ 230
;	cv::MatOp_Solve::~MatOp_Solve()
	_ZN2cv11MatOp_SolveD0Ev @ 231
;	cv::MatOp_Solve::~MatOp_Solve()
	_ZN2cv11MatOp_SolveD1Ev @ 232
;	cv::RotatedRect::RotatedRect(CvBox2D const&)
	_ZN2cv11RotatedRectC1ERK7CvBox2D @ 233
;	cv::RotatedRect::RotatedRect(cv::Point_<float> const&, cv::Size_<float> const&, float)
	_ZN2cv11RotatedRectC1ERKNS_6Point_IfEERKNS_5Size_IfEEf @ 234
;	cv::RotatedRect::RotatedRect()
	_ZN2cv11RotatedRectC1Ev @ 235
;	cv::RotatedRect::RotatedRect(CvBox2D const&)
	_ZN2cv11RotatedRectC2ERK7CvBox2D @ 236
;	cv::RotatedRect::RotatedRect(cv::Point_<float> const&, cv::Size_<float> const&, float)
	_ZN2cv11RotatedRectC2ERKNS_6Point_IfEERKNS_5Size_IfEEf @ 237
;	cv::RotatedRect::RotatedRect()
	_ZN2cv11RotatedRectC2Ev @ 238
;	cv::SVBackSubst(cv::_InputArray const&, cv::_InputArray const&, cv::_InputArray const&, cv::_InputArray const&, cv::_OutputArray const&)
	_ZN2cv11SVBackSubstERKNS_11_InputArrayES2_S2_S2_RKNS_12_OutputArrayE @ 239
;	cv::_InputArray::_InputArray(cv::Mat const&)
	_ZN2cv11_InputArrayC1ERKNS_3MatE @ 240
;	cv::_InputArray::_InputArray(cv::gpu::GpuMat const&)
	_ZN2cv11_InputArrayC1ERKNS_3gpu6GpuMatE @ 241
;	cv::_InputArray::_InputArray(cv::ogl::Buffer const&)
	_ZN2cv11_InputArrayC1ERKNS_3ogl6BufferE @ 242
;	cv::_InputArray::_InputArray(cv::ogl::Texture2D const&)
	_ZN2cv11_InputArrayC1ERKNS_3ogl9Texture2DE @ 243
;	cv::_InputArray::_InputArray(cv::MatExpr const&)
	_ZN2cv11_InputArrayC1ERKNS_7MatExprE @ 244
;	cv::_InputArray::_InputArray(cv::Scalar_<double> const&)
	_ZN2cv11_InputArrayC1ERKNS_7Scalar_IdEE @ 245
;	cv::_InputArray::_InputArray(cv::GlBuffer const&)
	_ZN2cv11_InputArrayC1ERKNS_8GlBufferE @ 246
;	cv::_InputArray::_InputArray(cv::GlTexture const&)
	_ZN2cv11_InputArrayC1ERKNS_9GlTextureE @ 247
;	cv::_InputArray::_InputArray(std::vector<cv::Mat, std::allocator<cv::Mat> > const&)
	_ZN2cv11_InputArrayC1ERKSt6vectorINS_3MatESaIS2_EE @ 248
;	cv::_InputArray::_InputArray(double const&)
	_ZN2cv11_InputArrayC1ERKd @ 249
;	cv::_InputArray::_InputArray()
	_ZN2cv11_InputArrayC1Ev @ 250
;	cv::_InputArray::_InputArray(cv::Mat const&)
	_ZN2cv11_InputArrayC2ERKNS_3MatE @ 251
;	cv::_InputArray::_InputArray(cv::gpu::GpuMat const&)
	_ZN2cv11_InputArrayC2ERKNS_3gpu6GpuMatE @ 252
;	cv::_InputArray::_InputArray(cv::ogl::Buffer const&)
	_ZN2cv11_InputArrayC2ERKNS_3ogl6BufferE @ 253
;	cv::_InputArray::_InputArray(cv::ogl::Texture2D const&)
	_ZN2cv11_InputArrayC2ERKNS_3ogl9Texture2DE @ 254
;	cv::_InputArray::_InputArray(cv::MatExpr const&)
	_ZN2cv11_InputArrayC2ERKNS_7MatExprE @ 255
;	cv::_InputArray::_InputArray(cv::Scalar_<double> const&)
	_ZN2cv11_InputArrayC2ERKNS_7Scalar_IdEE @ 256
;	cv::_InputArray::_InputArray(cv::GlBuffer const&)
	_ZN2cv11_InputArrayC2ERKNS_8GlBufferE @ 257
;	cv::_InputArray::_InputArray(cv::GlTexture const&)
	_ZN2cv11_InputArrayC2ERKNS_9GlTextureE @ 258
;	cv::_InputArray::_InputArray(std::vector<cv::Mat, std::allocator<cv::Mat> > const&)
	_ZN2cv11_InputArrayC2ERKSt6vectorINS_3MatESaIS2_EE @ 259
;	cv::_InputArray::_InputArray(double const&)
	_ZN2cv11_InputArrayC2ERKd @ 260
;	cv::_InputArray::_InputArray()
	_ZN2cv11_InputArrayC2Ev @ 261
;	cv::addWeighted(cv::_InputArray const&, double, cv::_InputArray const&, double, double, cv::_OutputArray const&, int)
	_ZN2cv11addWeightedERKNS_11_InputArrayEdS2_ddRKNS_12_OutputArrayEi @ 262
;	cv::bitwise_and(cv::_InputArray const&, cv::_InputArray const&, cv::_OutputArray const&, cv::_InputArray const&)
	_ZN2cv11bitwise_andERKNS_11_InputArrayES2_RKNS_12_OutputArrayES2_ @ 263
;	cv::bitwise_not(cv::_InputArray const&, cv::_OutputArray const&, cv::_InputArray const&)
	_ZN2cv11bitwise_notERKNS_11_InputArrayERKNS_12_OutputArrayES2_ @ 264
;	cv::bitwise_xor(cv::_InputArray const&, cv::_InputArray const&, cv::_OutputArray const&, cv::_InputArray const&)
	_ZN2cv11bitwise_xorERKNS_11_InputArrayES2_RKNS_12_OutputArrayES2_ @ 265
;	cv::cartToPolar(cv::_InputArray const&, cv::_InputArray const&, cv::_OutputArray const&, cv::_OutputArray const&, bool)
	_ZN2cv11cartToPolarERKNS_11_InputArrayES2_RKNS_12_OutputArrayES5_b @ 266
;	cv::copyMaskTab
	_ZN2cv11copyMaskTabE @ 267 DATA
;	cv::determinant(cv::_InputArray const&)
	_ZN2cv11determinantERKNS_11_InputArrayE @ 268
;	cv::findNonZero(cv::_InputArray const&, cv::_OutputArray const&)
	_ZN2cv11findNonZeroERKNS_11_InputArrayERKNS_12_OutputArrayE @ 269
;	cv::getTextSize(std::string const&, int, double, int, int*)
	_ZN2cv11getTextSizeERKSsidiPi @ 270
;	cv::mixChannels(cv::Mat const*, unsigned long long, cv::Mat*, unsigned long long, int const*, unsigned long long)
	_ZN2cv11mixChannelsEPKNS_3MatEyPS0_yPKiy @ 271
;	cv::mixChannels(cv::_InputArray const&, cv::_InputArray const&, std::vector<int, std::allocator<int> > const&)
	_ZN2cv11mixChannelsERKNS_11_InputArrayES2_RKSt6vectorIiSaIiEE @ 272
;	cv::mixChannels(std::vector<cv::Mat, std::allocator<cv::Mat> > const&, std::vector<cv::Mat, std::allocator<cv::Mat> >&, int const*, unsigned long long)
	_ZN2cv11mixChannelsERKSt6vectorINS_3MatESaIS1_EERS3_PKiy @ 273
;	int cv::normDiffL1_<signed char, int>(signed char const*, signed char const*, unsigned char const*, int*, int, int)
	_ZN2cv11normDiffL1_IaiEEiPKT_S3_PKhPT0_ii @ 274
;	int cv::normDiffL1_<double, double>(double const*, double const*, unsigned char const*, double*, int, int)
	_ZN2cv11normDiffL1_IddEEiPKT_S3_PKhPT0_ii @ 275
;	int cv::normDiffL1_<float, double>(float const*, float const*, unsigned char const*, double*, int, int)
	_ZN2cv11normDiffL1_IfdEEiPKT_S3_PKhPT0_ii @ 276
;	int cv::normDiffL1_<int, double>(int const*, int const*, unsigned char const*, double*, int, int)
	_ZN2cv11normDiffL1_IidEEiPKT_S3_PKhPT0_ii @ 277
;	int cv::normDiffL1_<short, int>(short const*, short const*, unsigned char const*, int*, int, int)
	_ZN2cv11normDiffL1_IsiEEiPKT_S3_PKhPT0_ii @ 278
;	int cv::normDiffL1_<unsigned short, int>(unsigned short const*, unsigned short const*, unsigned char const*, int*, int, int)
	_ZN2cv11normDiffL1_ItiEEiPKT_S3_PKhPT0_ii @ 279
;	int cv::normDiffL2_<signed char, int>(signed char const*, signed char const*, unsigned char const*, int*, int, int)
	_ZN2cv11normDiffL2_IaiEEiPKT_S3_PKhPT0_ii @ 280
;	int cv::normDiffL2_<double, double>(double const*, double const*, unsigned char const*, double*, int, int)
	_ZN2cv11normDiffL2_IddEEiPKT_S3_PKhPT0_ii @ 281
;	int cv::normDiffL2_<float, double>(float const*, float const*, unsigned char const*, double*, int, int)
	_ZN2cv11normDiffL2_IfdEEiPKT_S3_PKhPT0_ii @ 282
;	int cv::normDiffL2_<int, double>(int const*, int const*, unsigned char const*, double*, int, int)
	_ZN2cv11normDiffL2_IidEEiPKT_S3_PKhPT0_ii @ 283
;	int cv::normDiffL2_<short, double>(short const*, short const*, unsigned char const*, double*, int, int)
	_ZN2cv11normDiffL2_IsdEEiPKT_S3_PKhPT0_ii @ 284
;	int cv::normDiffL2_<unsigned short, double>(unsigned short const*, unsigned short const*, unsigned char const*, double*, int, int)
	_ZN2cv11normDiffL2_ItdEEiPKT_S3_PKhPT0_ii @ 285
;	cv::normHamming(unsigned char const*, unsigned char const*, int)
	_ZN2cv11normHammingEPKhS1_i @ 286
;	cv::normHamming(unsigned char const*, unsigned char const*, int, int)
	_ZN2cv11normHammingEPKhS1_ii @ 287
;	cv::polarToCart(cv::_InputArray const&, cv::_InputArray const&, cv::_OutputArray const&, cv::_OutputArray const&, bool)
	_ZN2cv11polarToCartERKNS_11_InputArrayES2_RKNS_12_OutputArrayES5_b @ 288
;	cv::randShuffle(cv::_OutputArray const&, double, cv::RNG*)
	_ZN2cv11randShuffleERKNS_12_OutputArrayEdPNS_3RNGE @ 289
;	cv::seqPopFront(CvSeq*, void*)
	_ZN2cv11seqPopFrontEP5CvSeqPv @ 290
;	cv::setIdentity(cv::_OutputArray const&, cv::Scalar_<double> const&)
	_ZN2cv11setIdentityERKNS_12_OutputArrayERKNS_7Scalar_IdEE @ 291
;	cv::writeScalar(cv::FileStorage&, std::string const&)
	_ZN2cv11writeScalarERNS_11FileStorageERKSs @ 292
;	cv::writeScalar(cv::FileStorage&, double)
	_ZN2cv11writeScalarERNS_11FileStorageEd @ 293
;	cv::writeScalar(cv::FileStorage&, float)
	_ZN2cv11writeScalarERNS_11FileStorageEf @ 294
;	cv::writeScalar(cv::FileStorage&, int)
	_ZN2cv11writeScalarERNS_11FileStorageEi @ 295
;	cv::CSVFormatter::~CSVFormatter()
	_ZN2cv12CSVFormatterD0Ev @ 296
;	cv::CSVFormatter::~CSVFormatter()
	_ZN2cv12CSVFormatterD1Ev @ 297
;	cv::LineIterator::LineIterator(cv::Mat const&, cv::Point_<int>, cv::Point_<int>, int, bool)
	_ZN2cv12LineIteratorC1ERKNS_3MatENS_6Point_IiEES5_ib @ 298
;	cv::LineIterator::LineIterator(cv::Mat const&, cv::Point_<int>, cv::Point_<int>, int, bool)
	_ZN2cv12LineIteratorC2ERKNS_3MatENS_6Point_IiEES5_ib @ 299
;	cv::LineIterator::operator*()
	_ZN2cv12LineIteratordeEv @ 300
;	cv::LineIterator::operator++(int)
	_ZN2cv12LineIteratorppEi @ 301
;	cv::LineIterator::operator++()
	_ZN2cv12LineIteratorppEv @ 302
;	cv::MatAllocator::MatAllocator()
	_ZN2cv12MatAllocatorC1Ev @ 303
;	cv::MatAllocator::MatAllocator()
	_ZN2cv12MatAllocatorC2Ev @ 304
;	cv::MatAllocator::~MatAllocator()
	_ZN2cv12MatAllocatorD0Ev @ 305
;	cv::MatAllocator::~MatAllocator()
	_ZN2cv12MatAllocatorD1Ev @ 306
;	cv::MatAllocator::~MatAllocator()
	_ZN2cv12MatAllocatorD2Ev @ 307
;	cv::MatOp_Invert::makeExpr(cv::MatExpr&, int, cv::Mat const&)
	_ZN2cv12MatOp_Invert8makeExprERNS_7MatExprEiRKNS_3MatE @ 308
;	cv::MatOp_Invert::~MatOp_Invert()
	_ZN2cv12MatOp_InvertD0Ev @ 309
;	cv::MatOp_Invert::~MatOp_Invert()
	_ZN2cv12MatOp_InvertD1Ev @ 310
;	cv::TermCriteria::TermCriteria(CvTermCriteria const&)
	_ZN2cv12TermCriteriaC1ERK14CvTermCriteria @ 311
;	cv::TermCriteria::TermCriteria(int, int, double)
	_ZN2cv12TermCriteriaC1Eiid @ 312
;	cv::TermCriteria::TermCriteria()
	_ZN2cv12TermCriteriaC1Ev @ 313
;	cv::TermCriteria::TermCriteria(CvTermCriteria const&)
	_ZN2cv12TermCriteriaC2ERK14CvTermCriteria @ 314
;	cv::TermCriteria::TermCriteria(int, int, double)
	_ZN2cv12TermCriteriaC2Eiid @ 315
;	cv::TermCriteria::TermCriteria()
	_ZN2cv12TermCriteriaC2Ev @ 316
;	cv::_OutputArray::_OutputArray(cv::Mat const&)
	_ZN2cv12_OutputArrayC1ERKNS_3MatE @ 317
;	cv::_OutputArray::_OutputArray(cv::gpu::GpuMat const&)
	_ZN2cv12_OutputArrayC1ERKNS_3gpu6GpuMatE @ 318
;	cv::_OutputArray::_OutputArray(cv::ogl::Buffer const&)
	_ZN2cv12_OutputArrayC1ERKNS_3ogl6BufferE @ 319
;	cv::_OutputArray::_OutputArray(cv::ogl::Texture2D const&)
	_ZN2cv12_OutputArrayC1ERKNS_3ogl9Texture2DE @ 320
;	cv::_OutputArray::_OutputArray(std::vector<cv::Mat, std::allocator<cv::Mat> > const&)
	_ZN2cv12_OutputArrayC1ERKSt6vectorINS_3MatESaIS2_EE @ 321
;	cv::_OutputArray::_OutputArray(cv::Mat&)
	_ZN2cv12_OutputArrayC1ERNS_3MatE @ 322
;	cv::_OutputArray::_OutputArray(cv::gpu::GpuMat&)
	_ZN2cv12_OutputArrayC1ERNS_3gpu6GpuMatE @ 323
;	cv::_OutputArray::_OutputArray(cv::ogl::Buffer&)
	_ZN2cv12_OutputArrayC1ERNS_3ogl6BufferE @ 324
;	cv::_OutputArray::_OutputArray(cv::ogl::Texture2D&)
	_ZN2cv12_OutputArrayC1ERNS_3ogl9Texture2DE @ 325
;	cv::_OutputArray::_OutputArray(std::vector<cv::Mat, std::allocator<cv::Mat> >&)
	_ZN2cv12_OutputArrayC1ERSt6vectorINS_3MatESaIS2_EE @ 326
;	cv::_OutputArray::_OutputArray()
	_ZN2cv12_OutputArrayC1Ev @ 327
;	cv::_OutputArray::_OutputArray(cv::Mat const&)
	_ZN2cv12_OutputArrayC2ERKNS_3MatE @ 328
;	cv::_OutputArray::_OutputArray(cv::gpu::GpuMat const&)
	_ZN2cv12_OutputArrayC2ERKNS_3gpu6GpuMatE @ 329
;	cv::_OutputArray::_OutputArray(cv::ogl::Buffer const&)
	_ZN2cv12_OutputArrayC2ERKNS_3ogl6BufferE @ 330
;	cv::_OutputArray::_OutputArray(cv::ogl::Texture2D const&)
	_ZN2cv12_OutputArrayC2ERKNS_3ogl9Texture2DE @ 331
;	cv::_OutputArray::_OutputArray(std::vector<cv::Mat, std::allocator<cv::Mat> > const&)
	_ZN2cv12_OutputArrayC2ERKSt6vectorINS_3MatESaIS2_EE @ 332
;	cv::_OutputArray::_OutputArray(cv::Mat&)
	_ZN2cv12_OutputArrayC2ERNS_3MatE @ 333
;	cv::_OutputArray::_OutputArray(cv::gpu::GpuMat&)
	_ZN2cv12_OutputArrayC2ERNS_3gpu6GpuMatE @ 334
;	cv::_OutputArray::_OutputArray(cv::ogl::Buffer&)
	_ZN2cv12_OutputArrayC2ERNS_3ogl6BufferE @ 335
;	cv::_OutputArray::_OutputArray(cv::ogl::Texture2D&)
	_ZN2cv12_OutputArrayC2ERNS_3ogl9Texture2DE @ 336
;	cv::_OutputArray::_OutputArray(std::vector<cv::Mat, std::allocator<cv::Mat> >&)
	_ZN2cv12_OutputArrayC2ERSt6vectorINS_3MatESaIS2_EE @ 337
;	cv::_OutputArray::_OutputArray()
	_ZN2cv12_OutputArrayC2Ev @ 338
;	void cv::batchDistL2_<float, float>(float const*, float const*, unsigned long long, int, int, float*, unsigned char const*)
	_ZN2cv12batchDistL2_IffEEvPKT_S3_yiiPT0_PKh @ 339
;	void cv::batchDistL2_<unsigned char, float>(unsigned char const*, unsigned char const*, unsigned long long, int, int, float*, unsigned char const*)
	_ZN2cv12batchDistL2_IhfEEvPKT_S3_yiiPT0_PKh @ 340
;	cv::completeSymm(cv::_OutputArray const&, bool)
	_ZN2cv12completeSymmERKNS_12_OutputArrayEb @ 341
;	void cv::convertData_<signed char, signed char>(void const*, void*, int)
	_ZN2cv12convertData_IaaEEvPKvPvi @ 342
;	void cv::convertData_<signed char, double>(void const*, void*, int)
	_ZN2cv12convertData_IadEEvPKvPvi @ 343
;	void cv::convertData_<signed char, float>(void const*, void*, int)
	_ZN2cv12convertData_IafEEvPKvPvi @ 344
;	void cv::convertData_<signed char, unsigned char>(void const*, void*, int)
	_ZN2cv12convertData_IahEEvPKvPvi @ 345
;	void cv::convertData_<signed char, int>(void const*, void*, int)
	_ZN2cv12convertData_IaiEEvPKvPvi @ 346
;	void cv::convertData_<signed char, short>(void const*, void*, int)
	_ZN2cv12convertData_IasEEvPKvPvi @ 347
;	void cv::convertData_<signed char, unsigned short>(void const*, void*, int)
	_ZN2cv12convertData_IatEEvPKvPvi @ 348
;	void cv::convertData_<double, signed char>(void const*, void*, int)
	_ZN2cv12convertData_IdaEEvPKvPvi @ 349
;	void cv::convertData_<double, double>(void const*, void*, int)
	_ZN2cv12convertData_IddEEvPKvPvi @ 350
;	void cv::convertData_<double, float>(void const*, void*, int)
	_ZN2cv12convertData_IdfEEvPKvPvi @ 351
;	void cv::convertData_<double, unsigned char>(void const*, void*, int)
	_ZN2cv12convertData_IdhEEvPKvPvi @ 352
;	void cv::convertData_<double, int>(void const*, void*, int)
	_ZN2cv12convertData_IdiEEvPKvPvi @ 353
;	void cv::convertData_<double, short>(void const*, void*, int)
	_ZN2cv12convertData_IdsEEvPKvPvi @ 354
;	void cv::convertData_<double, unsigned short>(void const*, void*, int)
	_ZN2cv12convertData_IdtEEvPKvPvi @ 355
;	void cv::convertData_<float, signed char>(void const*, void*, int)
	_ZN2cv12convertData_IfaEEvPKvPvi @ 356
;	void cv::convertData_<float, double>(void const*, void*, int)
	_ZN2cv12convertData_IfdEEvPKvPvi @ 357
;	void cv::convertData_<float, float>(void const*, void*, int)
	_ZN2cv12convertData_IffEEvPKvPvi @ 358
;	void cv::convertData_<float, unsigned char>(void const*, void*, int)
	_ZN2cv12convertData_IfhEEvPKvPvi @ 359
;	void cv::convertData_<float, int>(void const*, void*, int)
	_ZN2cv12convertData_IfiEEvPKvPvi @ 360
;	void cv::convertData_<float, short>(void const*, void*, int)
	_ZN2cv12convertData_IfsEEvPKvPvi @ 361
;	void cv::convertData_<float, unsigned short>(void const*, void*, int)
	_ZN2cv12convertData_IftEEvPKvPvi @ 362
;	void cv::convertData_<unsigned char, signed char>(void const*, void*, int)
	_ZN2cv12convertData_IhaEEvPKvPvi @ 363
;	void cv::convertData_<unsigned char, double>(void const*, void*, int)
	_ZN2cv12convertData_IhdEEvPKvPvi @ 364
;	void cv::convertData_<unsigned char, float>(void const*, void*, int)
	_ZN2cv12convertData_IhfEEvPKvPvi @ 365
;	void cv::convertData_<unsigned char, unsigned char>(void const*, void*, int)
	_ZN2cv12convertData_IhhEEvPKvPvi @ 366
;	void cv::convertData_<unsigned char, int>(void const*, void*, int)
	_ZN2cv12convertData_IhiEEvPKvPvi @ 367
;	void cv::convertData_<unsigned char, short>(void const*, void*, int)
	_ZN2cv12convertData_IhsEEvPKvPvi @ 368
;	void cv::convertData_<unsigned char, unsigned short>(void const*, void*, int)
	_ZN2cv12convertData_IhtEEvPKvPvi @ 369
;	void cv::convertData_<int, signed char>(void const*, void*, int)
	_ZN2cv12convertData_IiaEEvPKvPvi @ 370
;	void cv::convertData_<int, double>(void const*, void*, int)
	_ZN2cv12convertData_IidEEvPKvPvi @ 371
;	void cv::convertData_<int, float>(void const*, void*, int)
	_ZN2cv12convertData_IifEEvPKvPvi @ 372
;	void cv::convertData_<int, unsigned char>(void const*, void*, int)
	_ZN2cv12convertData_IihEEvPKvPvi @ 373
;	void cv::convertData_<int, int>(void const*, void*, int)
	_ZN2cv12convertData_IiiEEvPKvPvi @ 374
;	void cv::convertData_<int, short>(void const*, void*, int)
	_ZN2cv12convertData_IisEEvPKvPvi @ 375
;	void cv::convertData_<int, unsigned short>(void const*, void*, int)
	_ZN2cv12convertData_IitEEvPKvPvi @ 376
;	void cv::convertData_<short, signed char>(void const*, void*, int)
	_ZN2cv12convertData_IsaEEvPKvPvi @ 377
;	void cv::convertData_<short, double>(void const*, void*, int)
	_ZN2cv12convertData_IsdEEvPKvPvi @ 378
;	void cv::convertData_<short, float>(void const*, void*, int)
	_ZN2cv12convertData_IsfEEvPKvPvi @ 379
;	void cv::convertData_<short, unsigned char>(void const*, void*, int)
	_ZN2cv12convertData_IshEEvPKvPvi @ 380
;	void cv::convertData_<short, int>(void const*, void*, int)
	_ZN2cv12convertData_IsiEEvPKvPvi @ 381
;	void cv::convertData_<short, short>(void const*, void*, int)
	_ZN2cv12convertData_IssEEvPKvPvi @ 382
;	void cv::convertData_<short, unsigned short>(void const*, void*, int)
	_ZN2cv12convertData_IstEEvPKvPvi @ 383
;	void cv::convertData_<unsigned short, signed char>(void const*, void*, int)
	_ZN2cv12convertData_ItaEEvPKvPvi @ 384
;	void cv::convertData_<unsigned short, double>(void const*, void*, int)
	_ZN2cv12convertData_ItdEEvPKvPvi @ 385
;	void cv::convertData_<unsigned short, float>(void const*, void*, int)
	_ZN2cv12convertData_ItfEEvPKvPvi @ 386
;	void cv::convertData_<unsigned short, unsigned char>(void const*, void*, int)
	_ZN2cv12convertData_IthEEvPKvPvi @ 387
;	void cv::convertData_<unsigned short, int>(void const*, void*, int)
	_ZN2cv12convertData_ItiEEvPKvPvi @ 388
;	void cv::convertData_<unsigned short, short>(void const*, void*, int)
	_ZN2cv12convertData_ItsEEvPKvPvi @ 389
;	void cv::convertData_<unsigned short, unsigned short>(void const*, void*, int)
	_ZN2cv12convertData_IttEEvPKvPvi @ 390
;	cv::countNonZero(cv::_InputArray const&)
	_ZN2cv12countNonZeroERKNS_11_InputArrayE @ 391
;	cv::ellipse2Poly(cv::Point_<int>, cv::Size_<int>, int, int, int, int, std::vector<cv::Point_<int>, std::allocator<cv::Point_<int> > >&)
	_ZN2cv12ellipse2PolyENS_6Point_IiEENS_5Size_IiEEiiiiRSt6vectorIS1_SaIS1_EE @ 392
;	cv::g_Saturate8u
	_ZN2cv12g_Saturate8uE @ 393 DATA
;	cv::getThreadNum()
	_ZN2cv12getThreadNumEv @ 394
;	cv::getTickCount()
	_ZN2cv12getTickCountEv @ 395
;	cv::mulSpectrums(cv::_InputArray const&, cv::_InputArray const&, cv::_OutputArray const&, int, bool)
	_ZN2cv12mulSpectrumsERKNS_11_InputArrayES2_RKNS_12_OutputArrayEib @ 396
;	int cv::normDiffInf_<signed char, int>(signed char const*, signed char const*, unsigned char const*, int*, int, int)
	_ZN2cv12normDiffInf_IaiEEiPKT_S3_PKhPT0_ii @ 397
;	int cv::normDiffInf_<double, double>(double const*, double const*, unsigned char const*, double*, int, int)
	_ZN2cv12normDiffInf_IddEEiPKT_S3_PKhPT0_ii @ 398
;	int cv::normDiffInf_<float, float>(float const*, float const*, unsigned char const*, float*, int, int)
	_ZN2cv12normDiffInf_IffEEiPKT_S3_PKhPT0_ii @ 399
;	int cv::normDiffInf_<unsigned char, int>(unsigned char const*, unsigned char const*, unsigned char const*, int*, int, int)
	_ZN2cv12normDiffInf_IhiEEiPKT_S3_PKhPT0_ii @ 400
;	int cv::normDiffInf_<int, int>(int const*, int const*, unsigned char const*, int*, int, int)
	_ZN2cv12normDiffInf_IiiEEiPKT_S3_PKhPT0_ii @ 401
;	int cv::normDiffInf_<short, int>(short const*, short const*, unsigned char const*, int*, int, int)
	_ZN2cv12normDiffInf_IsiEEiPKT_S3_PKhPT0_ii @ 402
;	int cv::normDiffInf_<unsigned short, int>(unsigned short const*, unsigned short const*, unsigned char const*, int*, int, int)
	_ZN2cv12normDiffInf_ItiEEiPKT_S3_PKhPT0_ii @ 403
;	cv::randShuffle_(cv::_OutputArray const&, double)
	_ZN2cv12randShuffle_ERKNS_12_OutputArrayEd @ 404
;	cv::seqPushFront(CvSeq*, void const*)
	_ZN2cv12seqPushFrontEP5CvSeqPKv @ 405
;	cv::useOptimized()
	_ZN2cv12useOptimizedEv @ 406
;	cv::AlgorithmInfo::addParam(cv::Algorithm&, char const*, cv::Mat&, bool, cv::Mat (cv::Algorithm::*)(), void (cv::Algorithm::*)(cv::Mat const&), std::string const&)
	_ZN2cv13AlgorithmInfo8addParamERNS_9AlgorithmEPKcRNS_3MatEbMS1_FS5_vEMS1_FvRKS5_ERKSs @ 407
;	cv::AlgorithmInfo::addParam(cv::Algorithm&, char const*, cv::Ptr<cv::Algorithm>&, bool, cv::Ptr<cv::Algorithm> (cv::Algorithm::*)(), void (cv::Algorithm::*)(cv::Ptr<cv::Algorithm> const&), std::string const&)
	_ZN2cv13AlgorithmInfo8addParamERNS_9AlgorithmEPKcRNS_3PtrIS1_EEbMS1_FS6_vEMS1_FvRKS6_ERKSs @ 408
;	cv::AlgorithmInfo::addParam(cv::Algorithm&, char const*, std::string&, bool, std::string (cv::Algorithm::*)(), void (cv::Algorithm::*)(std::string const&), std::string const&)
	_ZN2cv13AlgorithmInfo8addParamERNS_9AlgorithmEPKcRSsbMS1_FSsvEMS1_FvRKSsES9_ @ 409
;	cv::AlgorithmInfo::addParam(cv::Algorithm&, char const*, std::vector<cv::Mat, std::allocator<cv::Mat> >&, bool, std::vector<cv::Mat, std::allocator<cv::Mat> > (cv::Algorithm::*)(), void (cv::Algorithm::*)(std::vector<cv::Mat, std::allocator<cv::Mat> > const&), std::string const&)
	_ZN2cv13AlgorithmInfo8addParamERNS_9AlgorithmEPKcRSt6vectorINS_3MatESaIS6_EEbMS1_FS8_vEMS1_FvRKS8_ERKSs @ 410
;	cv::AlgorithmInfo::addParam(cv::Algorithm&, char const*, bool&, bool, int (cv::Algorithm::*)(), void (cv::Algorithm::*)(int), std::string const&)
	_ZN2cv13AlgorithmInfo8addParamERNS_9AlgorithmEPKcRbbMS1_FivEMS1_FviERKSs @ 411
;	cv::AlgorithmInfo::addParam(cv::Algorithm&, char const*, double&, bool, double (cv::Algorithm::*)(), void (cv::Algorithm::*)(double), std::string const&)
	_ZN2cv13AlgorithmInfo8addParamERNS_9AlgorithmEPKcRdbMS1_FdvEMS1_FvdERKSs @ 412
;	cv::AlgorithmInfo::addParam(cv::Algorithm&, char const*, float&, bool, float (cv::Algorithm::*)(), void (cv::Algorithm::*)(float), std::string const&)
	_ZN2cv13AlgorithmInfo8addParamERNS_9AlgorithmEPKcRfbMS1_FfvEMS1_FvfERKSs @ 413
;	cv::AlgorithmInfo::addParam(cv::Algorithm&, char const*, unsigned char&, bool, unsigned char (cv::Algorithm::*)(), void (cv::Algorithm::*)(unsigned char), std::string const&)
	_ZN2cv13AlgorithmInfo8addParamERNS_9AlgorithmEPKcRhbMS1_FhvEMS1_FvhERKSs @ 414
;	cv::AlgorithmInfo::addParam(cv::Algorithm&, char const*, int&, bool, int (cv::Algorithm::*)(), void (cv::Algorithm::*)(int), std::string const&)
	_ZN2cv13AlgorithmInfo8addParamERNS_9AlgorithmEPKcRibMS1_FivEMS1_FviERKSs @ 415
;	cv::AlgorithmInfo::addParam(cv::Algorithm&, char const*, unsigned int&, bool, unsigned int (cv::Algorithm::*)(), void (cv::Algorithm::*)(unsigned int), std::string const&)
	_ZN2cv13AlgorithmInfo8addParamERNS_9AlgorithmEPKcRjbMS1_FjvEMS1_FvjERKSs @ 416
;	cv::AlgorithmInfo::addParam(cv::Algorithm&, char const*, short&, bool, int (cv::Algorithm::*)(), void (cv::Algorithm::*)(int), std::string const&)
	_ZN2cv13AlgorithmInfo8addParamERNS_9AlgorithmEPKcRsbMS1_FivEMS1_FviERKSs @ 417
;	cv::AlgorithmInfo::addParam(cv::Algorithm&, char const*, unsigned long long&, bool, unsigned long long (cv::Algorithm::*)(), void (cv::Algorithm::*)(unsigned long long), std::string const&)
	_ZN2cv13AlgorithmInfo8addParamERNS_9AlgorithmEPKcRybMS1_FyvEMS1_FvyERKSs @ 418
;	cv::AlgorithmInfo::addParam_(cv::Algorithm&, char const*, int, void*, bool, int (cv::Algorithm::*)() const, void (cv::Algorithm::*)(int), std::string const&)
	_ZN2cv13AlgorithmInfo9addParam_ERNS_9AlgorithmEPKciPvbMS1_KFivEMS1_FviERKSs @ 419
;	cv::AlgorithmInfo::AlgorithmInfo(std::string const&, cv::Algorithm* (*)())
	_ZN2cv13AlgorithmInfoC1ERKSsPFPNS_9AlgorithmEvE @ 420
;	cv::AlgorithmInfo::AlgorithmInfo(std::string const&, cv::Algorithm* (*)())
	_ZN2cv13AlgorithmInfoC2ERKSsPFPNS_9AlgorithmEvE @ 421
;	cv::AlgorithmInfo::~AlgorithmInfo()
	_ZN2cv13AlgorithmInfoD1Ev @ 422
;	cv::AlgorithmInfo::~AlgorithmInfo()
	_ZN2cv13AlgorithmInfoD2Ev @ 423
;	cv::PCAComputeVar(cv::_InputArray const&, cv::_OutputArray const&, cv::_OutputArray const&, double)
	_ZN2cv13PCAComputeVarERKNS_11_InputArrayERKNS_12_OutputArrayES5_d @ 424
;	cv::batchDistance(cv::_InputArray const&, cv::_InputArray const&, cv::_OutputArray const&, int, cv::_OutputArray const&, int, int, cv::_InputArray const&, int, bool)
	_ZN2cv13batchDistanceERKNS_11_InputArrayES2_RKNS_12_OutputArrayEiS5_iiS2_ib @ 425
;	cv::g_8x16uSqrTab
	_ZN2cv13g_8x16uSqrTabE @ 426 DATA
;	cv::getNumThreads()
	_ZN2cv13getNumThreadsEv @ 427
;	cv::insertChannel(cv::_InputArray const&, cv::_OutputArray const&, int)
	_ZN2cv13insertChannelERKNS_11_InputArrayERKNS_12_OutputArrayEi @ 428
;	cv::mulTransposed(cv::_InputArray const&, cv::_OutputArray const&, bool, cv::_InputArray const&, double, int)
	_ZN2cv13mulTransposedERKNS_11_InputArrayERKNS_12_OutputArrayEbS2_di @ 429
;	cv::parallel_for_(cv::Range const&, cv::ParallelLoopBody const&, double)
	_ZN2cv13parallel_for_ERKNS_5RangeERKNS_16ParallelLoopBodyEd @ 430
;	cv::redirectError(int (*)(int, char const*, char const*, char const*, int, void*), void*, void**)
	_ZN2cv13redirectErrorEPFiiPKcS1_S1_iPvES2_PS2_ @ 431
;	cv::setNumThreads(int)
	_ZN2cv13setNumThreadsEi @ 432
;	cv::sorted_vector<std::string, cv::Param>::add(std::string const&, cv::Param const&)
	_ZN2cv13sorted_vectorISsNS_5ParamEE3addERKSsRKS1_ @ 433
;	cv::sorted_vector<std::string, cv::Algorithm* (*)()>::add(std::string const&, cv::Algorithm* (* const&)())
	_ZN2cv13sorted_vectorISsPFPNS_9AlgorithmEvEE3addERKSsRKS4_ @ 434
;	void cv::JacobiSVDImpl_<double>(double*, unsigned long long, double*, double*, unsigned long long, int, int, int, double)
	_ZN2cv14JacobiSVDImpl_IdEEvPT_yS2_S2_yiiid @ 435
;	void cv::JacobiSVDImpl_<float>(float*, unsigned long long, float*, float*, unsigned long long, int, int, int, double)
	_ZN2cv14JacobiSVDImpl_IfEEvPT_yS2_S2_yiiid @ 436
;	cv::MatOp_Identity::~MatOp_Identity()
	_ZN2cv14MatOp_IdentityD0Ev @ 437
;	cv::MatOp_Identity::~MatOp_Identity()
	_ZN2cv14MatOp_IdentityD1Ev @ 438
;	cv::NumpyFormatter::~NumpyFormatter()
	_ZN2cv14NumpyFormatterD0Ev @ 439
;	cv::NumpyFormatter::~NumpyFormatter()
	_ZN2cv14NumpyFormatterD1Ev @ 440
;	cv::PCABackProject(cv::_InputArray const&, cv::_InputArray const&, cv::_InputArray const&, cv::_OutputArray const&)
	_ZN2cv14PCABackProjectERKNS_11_InputArrayES2_S2_RKNS_12_OutputArrayE @ 441
;	cv::VecReaderProxy<cv::Mat, 0>::VecReaderProxy(cv::FileNodeIterator*)
	_ZN2cv14VecReaderProxyINS_3MatELi0EEC1EPNS_16FileNodeIteratorE @ 442
;	cv::VecReaderProxy<cv::Mat, 0>::VecReaderProxy(cv::FileNodeIterator*)
	_ZN2cv14VecReaderProxyINS_3MatELi0EEC2EPNS_16FileNodeIteratorE @ 443
;	cv::VecWriterProxy<cv::Mat, 0>::VecWriterProxy(cv::FileStorage*)
	_ZN2cv14VecWriterProxyINS_3MatELi0EEC1EPNS_11FileStorageE @ 444
;	cv::VecWriterProxy<cv::Mat, 0>::VecWriterProxy(cv::FileStorage*)
	_ZN2cv14VecWriterProxyINS_3MatELi0EEC2EPNS_11FileStorageE @ 445
;	cv::extractChannel(cv::_InputArray const&, cv::_OutputArray const&, int)
	_ZN2cv14extractChannelERKNS_11_InputArrayERKNS_12_OutputArrayEi @ 446
;	cv::fillConvexPoly(cv::_OutputArray const&, cv::_InputArray const&, cv::Scalar_<double> const&, int, int)
	_ZN2cv14fillConvexPolyERKNS_12_OutputArrayERKNS_11_InputArrayERKNS_7Scalar_IdEEii @ 447
;	cv::fillConvexPoly(cv::Mat&, cv::Point_<int> const*, int, cv::Scalar_<double> const&, int, int)
	_ZN2cv14fillConvexPolyERNS_3MatEPKNS_6Point_IiEEiRKNS_7Scalar_IdEEii @ 448
;	cv::getConvertElem(int, int)
	_ZN2cv14getConvertElemEii @ 449
;	cv::getConvertFunc(int, int)
	_ZN2cv14getConvertFuncEii @ 450
;	cv::insertImageCOI(cv::_InputArray const&, void*, int)
	_ZN2cv14insertImageCOIERKNS_11_InputArrayEPvi @ 451
;	cv::seqInsertSlice(CvSeq*, int, void const*)
	_ZN2cv14seqInsertSliceEP5CvSeqiPKv @ 452
;	cv::seqRemoveSlice(CvSeq*, CvSlice)
	_ZN2cv14seqRemoveSliceEP5CvSeq7CvSlice @ 453
;	cv::MatlabFormatter::~MatlabFormatter()
	_ZN2cv15MatlabFormatterD0Ev @ 454
;	cv::MatlabFormatter::~MatlabFormatter()
	_ZN2cv15MatlabFormatterD1Ev @ 455
;	cv::NAryMatIterator::init(cv::Mat const**, cv::Mat*, unsigned char**, int)
	_ZN2cv15NAryMatIterator4initEPPKNS_3MatEPS1_PPhi @ 456
;	cv::NAryMatIterator::NAryMatIterator(cv::Mat const**, unsigned char**, int)
	_ZN2cv15NAryMatIteratorC1EPPKNS_3MatEPPhi @ 457
;	cv::NAryMatIterator::NAryMatIterator(cv::Mat const**, cv::Mat*, int)
	_ZN2cv15NAryMatIteratorC1EPPKNS_3MatEPS1_i @ 458
;	cv::NAryMatIterator::NAryMatIterator()
	_ZN2cv15NAryMatIteratorC1Ev @ 459
;	cv::NAryMatIterator::NAryMatIterator(cv::Mat const**, unsigned char**, int)
	_ZN2cv15NAryMatIteratorC2EPPKNS_3MatEPPhi @ 460
;	cv::NAryMatIterator::NAryMatIterator(cv::Mat const**, cv::Mat*, int)
	_ZN2cv15NAryMatIteratorC2EPPKNS_3MatEPS1_i @ 461
;	cv::NAryMatIterator::NAryMatIterator()
	_ZN2cv15NAryMatIteratorC2Ev @ 462
;	cv::NAryMatIterator::operator++(int)
	_ZN2cv15NAryMatIteratorppEi @ 463
;	cv::NAryMatIterator::operator++()
	_ZN2cv15NAryMatIteratorppEv @ 464
;	cv::PythonFormatter::~PythonFormatter()
	_ZN2cv15PythonFormatterD0Ev @ 465
;	cv::PythonFormatter::~PythonFormatter()
	_ZN2cv15PythonFormatterD1Ev @ 466
;	cv::calcCovarMatrix(cv::Mat const*, int, cv::Mat&, cv::Mat&, int, int)
	_ZN2cv15calcCovarMatrixEPKNS_3MatEiRS0_S3_ii @ 467
;	cv::calcCovarMatrix(cv::_InputArray const&, cv::_OutputArray const&, cv::_OutputArray const&, int, int)
	_ZN2cv15calcCovarMatrixERKNS_11_InputArrayERKNS_12_OutputArrayES5_ii @ 468
;	cv::convertScaleAbs(cv::_InputArray const&, cv::_OutputArray const&, double, double)
	_ZN2cv15convertScaleAbsERKNS_11_InputArrayERKNS_12_OutputArrayEdd @ 469
;	cv::extractImageCOI(void const*, cv::_OutputArray const&, int)
	_ZN2cv15extractImageCOIEPKvRKNS_12_OutputArrayEi @ 470
;	cv::g_HersheyGlyphs
	_ZN2cv15g_HersheyGlyphsE @ 471 DATA
;	cv::getCPUTickCount()
	_ZN2cv15getCPUTickCountEv @ 472
;	cv::getCopyMaskFunc(unsigned long long)
	_ZN2cv15getCopyMaskFuncEy @ 473
;	cv::getNumberOfCPUs()
	_ZN2cv15getNumberOfCPUsEv @ 474
;	cv::scalarToRawData(cv::Scalar_<double> const&, void*, int, int)
	_ZN2cv15scalarToRawDataERKNS_7Scalar_IdEEPvii @ 475
;	cv::setBreakOnError(bool)
	_ZN2cv15setBreakOnErrorEb @ 476
;	cv::setUseOptimized(bool)
	_ZN2cv15setUseOptimizedEb @ 477
;	cv::BatchDistInvoker::~BatchDistInvoker()
	_ZN2cv16BatchDistInvokerD0Ev @ 478
;	cv::BatchDistInvoker::~BatchDistInvoker()
	_ZN2cv16BatchDistInvokerD1Ev @ 479
;	cv::FileNodeIterator::readRaw(std::string const&, unsigned char*, unsigned long long)
	_ZN2cv16FileNodeIterator7readRawERKSsPhy @ 480
;	cv::FileNodeIterator::FileNodeIterator(CvFileStorage const*, CvFileNode const*, unsigned long long)
	_ZN2cv16FileNodeIteratorC1EPK13CvFileStoragePK10CvFileNodey @ 481
;	cv::FileNodeIterator::FileNodeIterator(cv::FileNodeIterator const&)
	_ZN2cv16FileNodeIteratorC1ERKS0_ @ 482
;	cv::FileNodeIterator::FileNodeIterator()
	_ZN2cv16FileNodeIteratorC1Ev @ 483
;	cv::FileNodeIterator::FileNodeIterator(CvFileStorage const*, CvFileNode const*, unsigned long long)
	_ZN2cv16FileNodeIteratorC2EPK13CvFileStoragePK10CvFileNodey @ 484
;	cv::FileNodeIterator::FileNodeIterator(cv::FileNodeIterator const&)
	_ZN2cv16FileNodeIteratorC2ERKS0_ @ 485
;	cv::FileNodeIterator::FileNodeIterator()
	_ZN2cv16FileNodeIteratorC2Ev @ 486
;	cv::FileNodeIterator::operator-=(int)
	_ZN2cv16FileNodeIteratormIEi @ 487
;	cv::FileNodeIterator::operator--(int)
	_ZN2cv16FileNodeIteratormmEi @ 488
;	cv::FileNodeIterator::operator--()
	_ZN2cv16FileNodeIteratormmEv @ 489
;	cv::FileNodeIterator::operator+=(int)
	_ZN2cv16FileNodeIteratorpLEi @ 490
;	cv::FileNodeIterator::operator++(int)
	_ZN2cv16FileNodeIteratorppEi @ 491
;	cv::FileNodeIterator::operator++()
	_ZN2cv16FileNodeIteratorppEv @ 492
;	cv::MatConstIterator::seek(int const*, bool)
	_ZN2cv16MatConstIterator4seekEPKib @ 493
;	cv::MatConstIterator::seek(long long, bool)
	_ZN2cv16MatConstIterator4seekExb @ 494
;	cv::MatConstIterator::MatConstIterator(cv::Mat const*)
	_ZN2cv16MatConstIteratorC1EPKNS_3MatE @ 495
;	cv::MatConstIterator::MatConstIterator(cv::Mat const*, cv::Point_<int>)
	_ZN2cv16MatConstIteratorC1EPKNS_3MatENS_6Point_IiEE @ 496
;	cv::MatConstIterator::MatConstIterator(cv::Mat const*, int, int)
	_ZN2cv16MatConstIteratorC1EPKNS_3MatEii @ 497
;	cv::MatConstIterator::MatConstIterator(cv::MatConstIterator const&)
	_ZN2cv16MatConstIteratorC1ERKS0_ @ 498
;	cv::MatConstIterator::MatConstIterator()
	_ZN2cv16MatConstIteratorC1Ev @ 499
;	cv::MatConstIterator::MatConstIterator(cv::Mat const*)
	_ZN2cv16MatConstIteratorC2EPKNS_3MatE @ 500
;	cv::MatConstIterator::MatConstIterator(cv::Mat const*, cv::Point_<int>)
	_ZN2cv16MatConstIteratorC2EPKNS_3MatENS_6Point_IiEE @ 501
;	cv::MatConstIterator::MatConstIterator(cv::Mat const*, int, int)
	_ZN2cv16MatConstIteratorC2EPKNS_3MatEii @ 502
;	cv::MatConstIterator::MatConstIterator(cv::MatConstIterator const&)
	_ZN2cv16MatConstIteratorC2ERKS0_ @ 503
;	cv::MatConstIterator::MatConstIterator()
	_ZN2cv16MatConstIteratorC2Ev @ 504
;	cv::MatConstIterator::operator=(cv::MatConstIterator const&)
	_ZN2cv16MatConstIteratoraSERKS0_ @ 505
;	cv::MatConstIterator::operator-=(long long)
	_ZN2cv16MatConstIteratormIEx @ 506
;	cv::MatConstIterator::operator--(int)
	_ZN2cv16MatConstIteratormmEi @ 507
;	cv::MatConstIterator::operator--()
	_ZN2cv16MatConstIteratormmEv @ 508
;	cv::MatConstIterator::operator+=(long long)
	_ZN2cv16MatConstIteratorpLEx @ 509
;	cv::MatConstIterator::operator++(int)
	_ZN2cv16MatConstIteratorppEi @ 510
;	cv::MatConstIterator::operator++()
	_ZN2cv16MatConstIteratorppEv @ 511
;	cv::ParallelLoopBody::~ParallelLoopBody()
	_ZN2cv16ParallelLoopBodyD0Ev @ 512
;	cv::ParallelLoopBody::~ParallelLoopBody()
	_ZN2cv16ParallelLoopBodyD1Ev @ 513
;	cv::ParallelLoopBody::~ParallelLoopBody()
	_ZN2cv16ParallelLoopBodyD2Ev @ 514
;	cv::getTickFrequency()
	_ZN2cv16getTickFrequencyEv @ 515
;	cv::useOptimizedFlag
	_ZN2cv16useOptimizedFlagE @ 516 DATA
;	cv::CommandLineParser::printParams()
	_ZN2cv17CommandLineParser11printParamsEv @ 517
;	std::string cv::CommandLineParser::analyzeValue<std::string>(std::string const&, bool)
	_ZN2cv17CommandLineParser12analyzeValueISsEET_RKSsb @ 518
;	double cv::CommandLineParser::analyzeValue<double>(std::string const&, bool)
	_ZN2cv17CommandLineParser12analyzeValueIdEET_RKSsb @ 519
;	float cv::CommandLineParser::analyzeValue<float>(std::string const&, bool)
	_ZN2cv17CommandLineParser12analyzeValueIfEET_RKSsb @ 520
;	int cv::CommandLineParser::analyzeValue<int>(std::string const&, bool)
	_ZN2cv17CommandLineParser12analyzeValueIiEET_RKSsb @ 521
;	unsigned int cv::CommandLineParser::analyzeValue<unsigned int>(std::string const&, bool)
	_ZN2cv17CommandLineParser12analyzeValueIjEET_RKSsb @ 522
;	unsigned long long cv::CommandLineParser::analyzeValue<unsigned long long>(std::string const&, bool)
	_ZN2cv17CommandLineParser12analyzeValueIyEET_RKSsb @ 523
;	bool cv::CommandLineParser::get<bool>(std::string const&, bool)
	_ZN2cv17CommandLineParser3getIbEET_RKSsb @ 524
;	cv::CommandLineParser::has(std::string const&)
	_ZN2cv17CommandLineParser3hasERKSs @ 525
;	double cv::CommandLineParser::getData<double>(std::string const&)
	_ZN2cv17CommandLineParser7getDataIdEET_RKSs @ 526
;	float cv::CommandLineParser::getData<float>(std::string const&)
	_ZN2cv17CommandLineParser7getDataIfEET_RKSs @ 527
;	int cv::CommandLineParser::getData<int>(std::string const&)
	_ZN2cv17CommandLineParser7getDataIiEET_RKSs @ 528
;	unsigned int cv::CommandLineParser::getData<unsigned int>(std::string const&)
	_ZN2cv17CommandLineParser7getDataIjEET_RKSs @ 529
;	unsigned long long cv::CommandLineParser::getData<unsigned long long>(std::string const&)
	_ZN2cv17CommandLineParser7getDataIyEET_RKSs @ 530
;	cv::CommandLineParser::getString(std::string const&)
	_ZN2cv17CommandLineParser9getStringERKSs @ 531
;	cv::CommandLineParser::CommandLineParser(int, char const* const*, char const*)
	_ZN2cv17CommandLineParserC1EiPKPKcS2_ @ 532
;	cv::CommandLineParser::CommandLineParser(int, char const* const*, char const*)
	_ZN2cv17CommandLineParserC2EiPKPKcS2_ @ 533
;	cv::MatOp_Initializer::makeExpr(cv::MatExpr&, int, cv::Size_<int>, int, double)
	_ZN2cv17MatOp_Initializer8makeExprERNS_7MatExprEiNS_5Size_IiEEid @ 534
;	cv::MatOp_Initializer::~MatOp_Initializer()
	_ZN2cv17MatOp_InitializerD0Ev @ 535
;	cv::MatOp_Initializer::~MatOp_Initializer()
	_ZN2cv17MatOp_InitializerD1Ev @ 536
;	cv::SparseMatIterator::SparseMatIterator(cv::SparseMat*)
	_ZN2cv17SparseMatIteratorC1EPNS_9SparseMatE @ 537
;	cv::SparseMatIterator::SparseMatIterator(cv::SparseMatIterator const&)
	_ZN2cv17SparseMatIteratorC1ERKS0_ @ 538
;	cv::SparseMatIterator::SparseMatIterator()
	_ZN2cv17SparseMatIteratorC1Ev @ 539
;	cv::SparseMatIterator::SparseMatIterator(cv::SparseMat*)
	_ZN2cv17SparseMatIteratorC2EPNS_9SparseMatE @ 540
;	cv::SparseMatIterator::SparseMatIterator(cv::SparseMatIterator const&)
	_ZN2cv17SparseMatIteratorC2ERKS0_ @ 541
;	cv::SparseMatIterator::SparseMatIterator()
	_ZN2cv17SparseMatIteratorC2Ev @ 542
;	cv::SparseMatIterator::operator=(cv::SparseMatIterator const&)
	_ZN2cv17SparseMatIteratoraSERKS0_ @ 543
;	cv::SparseMatIterator::operator++(int)
	_ZN2cv17SparseMatIteratorppEi @ 544
;	cv::SparseMatIterator::operator++()
	_ZN2cv17SparseMatIteratorppEv @ 545
;	bool cv::checkIntegerRange<0>(cv::Mat, cv::Point_<int>&, int, int, double&)
	_ZN2cv17checkIntegerRangeILi0EEEbNS_3MatERNS_6Point_IiEEiiRd @ 546
;	bool cv::checkIntegerRange<1>(cv::Mat, cv::Point_<int>&, int, int, double&)
	_ZN2cv17checkIntegerRangeILi1EEEbNS_3MatERNS_6Point_IiEEiiRd @ 547
;	bool cv::checkIntegerRange<2>(cv::Mat, cv::Point_<int>&, int, int, double&)
	_ZN2cv17checkIntegerRangeILi2EEEbNS_3MatERNS_6Point_IiEEiiRd @ 548
;	bool cv::checkIntegerRange<3>(cv::Mat, cv::Point_<int>&, int, int, double&)
	_ZN2cv17checkIntegerRangeILi3EEEbNS_3MatERNS_6Point_IiEEiiRd @ 549
;	bool cv::checkIntegerRange<4>(cv::Mat, cv::Point_<int>&, int, int, double&)
	_ZN2cv17checkIntegerRangeILi4EEEbNS_3MatERNS_6Point_IiEEiiRd @ 550
;	void cv::convertScaleData_<signed char, signed char>(void const*, void*, int, double, double)
	_ZN2cv17convertScaleData_IaaEEvPKvPvidd @ 551
;	void cv::convertScaleData_<signed char, double>(void const*, void*, int, double, double)
	_ZN2cv17convertScaleData_IadEEvPKvPvidd @ 552
;	void cv::convertScaleData_<signed char, float>(void const*, void*, int, double, double)
	_ZN2cv17convertScaleData_IafEEvPKvPvidd @ 553
;	void cv::convertScaleData_<signed char, unsigned char>(void const*, void*, int, double, double)
	_ZN2cv17convertScaleData_IahEEvPKvPvidd @ 554
;	void cv::convertScaleData_<signed char, int>(void const*, void*, int, double, double)
	_ZN2cv17convertScaleData_IaiEEvPKvPvidd @ 555
;	void cv::convertScaleData_<signed char, short>(void const*, void*, int, double, double)
	_ZN2cv17convertScaleData_IasEEvPKvPvidd @ 556
;	void cv::convertScaleData_<signed char, unsigned short>(void const*, void*, int, double, double)
	_ZN2cv17convertScaleData_IatEEvPKvPvidd @ 557
;	void cv::convertScaleData_<double, signed char>(void const*, void*, int, double, double)
	_ZN2cv17convertScaleData_IdaEEvPKvPvidd @ 558
;	void cv::convertScaleData_<double, double>(void const*, void*, int, double, double)
	_ZN2cv17convertScaleData_IddEEvPKvPvidd @ 559
;	void cv::convertScaleData_<double, float>(void const*, void*, int, double, double)
	_ZN2cv17convertScaleData_IdfEEvPKvPvidd @ 560
;	void cv::convertScaleData_<double, unsigned char>(void const*, void*, int, double, double)
	_ZN2cv17convertScaleData_IdhEEvPKvPvidd @ 561
;	void cv::convertScaleData_<double, int>(void const*, void*, int, double, double)
	_ZN2cv17convertScaleData_IdiEEvPKvPvidd @ 562
;	void cv::convertScaleData_<double, short>(void const*, void*, int, double, double)
	_ZN2cv17convertScaleData_IdsEEvPKvPvidd @ 563
;	void cv::convertScaleData_<double, unsigned short>(void const*, void*, int, double, double)
	_ZN2cv17convertScaleData_IdtEEvPKvPvidd @ 564
;	void cv::convertScaleData_<float, signed char>(void const*, void*, int, double, double)
	_ZN2cv17convertScaleData_IfaEEvPKvPvidd @ 565
;	void cv::convertScaleData_<float, double>(void const*, void*, int, double, double)
	_ZN2cv17convertScaleData_IfdEEvPKvPvidd @ 566
;	void cv::convertScaleData_<float, float>(void const*, void*, int, double, double)
	_ZN2cv17convertScaleData_IffEEvPKvPvidd @ 567
;	void cv::convertScaleData_<float, unsigned char>(void const*, void*, int, double, double)
	_ZN2cv17convertScaleData_IfhEEvPKvPvidd @ 568
;	void cv::convertScaleData_<float, int>(void const*, void*, int, double, double)
	_ZN2cv17convertScaleData_IfiEEvPKvPvidd @ 569
;	void cv::convertScaleData_<float, short>(void const*, void*, int, double, double)
	_ZN2cv17convertScaleData_IfsEEvPKvPvidd @ 570
;	void cv::convertScaleData_<float, unsigned short>(void const*, void*, int, double, double)
	_ZN2cv17convertScaleData_IftEEvPKvPvidd @ 571
;	void cv::convertScaleData_<unsigned char, signed char>(void const*, void*, int, double, double)
	_ZN2cv17convertScaleData_IhaEEvPKvPvidd @ 572
;	void cv::convertScaleData_<unsigned char, double>(void const*, void*, int, double, double)
	_ZN2cv17convertScaleData_IhdEEvPKvPvidd @ 573
;	void cv::convertScaleData_<unsigned char, float>(void const*, void*, int, double, double)
	_ZN2cv17convertScaleData_IhfEEvPKvPvidd @ 574
;	void cv::convertScaleData_<unsigned char, unsigned char>(void const*, void*, int, double, double)
	_ZN2cv17convertScaleData_IhhEEvPKvPvidd @ 575
;	void cv::convertScaleData_<unsigned char, int>(void const*, void*, int, double, double)
	_ZN2cv17convertScaleData_IhiEEvPKvPvidd @ 576
;	void cv::convertScaleData_<unsigned char, short>(void const*, void*, int, double, double)
	_ZN2cv17convertScaleData_IhsEEvPKvPvidd @ 577
;	void cv::convertScaleData_<unsigned char, unsigned short>(void const*, void*, int, double, double)
	_ZN2cv17convertScaleData_IhtEEvPKvPvidd @ 578
;	void cv::convertScaleData_<int, signed char>(void const*, void*, int, double, double)
	_ZN2cv17convertScaleData_IiaEEvPKvPvidd @ 579
;	void cv::convertScaleData_<int, double>(void const*, void*, int, double, double)
	_ZN2cv17convertScaleData_IidEEvPKvPvidd @ 580
;	void cv::convertScaleData_<int, float>(void const*, void*, int, double, double)
	_ZN2cv17convertScaleData_IifEEvPKvPvidd @ 581
;	void cv::convertScaleData_<int, unsigned char>(void const*, void*, int, double, double)
	_ZN2cv17convertScaleData_IihEEvPKvPvidd @ 582
;	void cv::convertScaleData_<int, int>(void const*, void*, int, double, double)
	_ZN2cv17convertScaleData_IiiEEvPKvPvidd @ 583
;	void cv::convertScaleData_<int, short>(void const*, void*, int, double, double)
	_ZN2cv17convertScaleData_IisEEvPKvPvidd @ 584
;	void cv::convertScaleData_<int, unsigned short>(void const*, void*, int, double, double)
	_ZN2cv17convertScaleData_IitEEvPKvPvidd @ 585
;	void cv::convertScaleData_<short, signed char>(void const*, void*, int, double, double)
	_ZN2cv17convertScaleData_IsaEEvPKvPvidd @ 586
;	void cv::convertScaleData_<short, double>(void const*, void*, int, double, double)
	_ZN2cv17convertScaleData_IsdEEvPKvPvidd @ 587
;	void cv::convertScaleData_<short, float>(void const*, void*, int, double, double)
	_ZN2cv17convertScaleData_IsfEEvPKvPvidd @ 588
;	void cv::convertScaleData_<short, unsigned char>(void const*, void*, int, double, double)
	_ZN2cv17convertScaleData_IshEEvPKvPvidd @ 589
;	void cv::convertScaleData_<short, int>(void const*, void*, int, double, double)
	_ZN2cv17convertScaleData_IsiEEvPKvPvidd @ 590
;	void cv::convertScaleData_<short, short>(void const*, void*, int, double, double)
	_ZN2cv17convertScaleData_IssEEvPKvPvidd @ 591
;	void cv::convertScaleData_<short, unsigned short>(void const*, void*, int, double, double)
	_ZN2cv17convertScaleData_IstEEvPKvPvidd @ 592
;	void cv::convertScaleData_<unsigned short, signed char>(void const*, void*, int, double, double)
	_ZN2cv17convertScaleData_ItaEEvPKvPvidd @ 593
;	void cv::convertScaleData_<unsigned short, double>(void const*, void*, int, double, double)
	_ZN2cv17convertScaleData_ItdEEvPKvPvidd @ 594
;	void cv::convertScaleData_<unsigned short, float>(void const*, void*, int, double, double)
	_ZN2cv17convertScaleData_ItfEEvPKvPvidd @ 595
;	void cv::convertScaleData_<unsigned short, unsigned char>(void const*, void*, int, double, double)
	_ZN2cv17convertScaleData_IthEEvPKvPvidd @ 596
;	void cv::convertScaleData_<unsigned short, int>(void const*, void*, int, double, double)
	_ZN2cv17convertScaleData_ItiEEvPKvPvidd @ 597
;	void cv::convertScaleData_<unsigned short, short>(void const*, void*, int, double, double)
	_ZN2cv17convertScaleData_ItsEEvPKvPvidd @ 598
;	void cv::convertScaleData_<unsigned short, unsigned short>(void const*, void*, int, double, double)
	_ZN2cv17convertScaleData_IttEEvPKvPvidd @ 599
;	cv::getOptimalDFTSize(int)
	_ZN2cv17getOptimalDFTSizeEi @ 600
;	cv::WriteStructContext::WriteStructContext(cv::FileStorage&, std::string const&, int, std::string const&)
	_ZN2cv18WriteStructContextC1ERNS_11FileStorageERKSsiS4_ @ 601
;	cv::WriteStructContext::WriteStructContext(cv::FileStorage&, std::string const&, int, std::string const&)
	_ZN2cv18WriteStructContextC2ERNS_11FileStorageERKSsiS4_ @ 602
;	cv::WriteStructContext::~WriteStructContext()
	_ZN2cv18WriteStructContextD1Ev @ 603
;	cv::WriteStructContext::~WriteStructContext()
	_ZN2cv18WriteStructContextD2Ev @ 604
;	cv::deleteThreadRNGData()
	_ZN2cv19deleteThreadRNGDataEv @ 605
;	cv::getBuildInformation()
	_ZN2cv19getBuildInformationEv @ 606
;	cv::getConvertScaleElem(int, int)
	_ZN2cv19getConvertScaleElemEii @ 607
;	cv::getConvertScaleFunc(int, int)
	_ZN2cv19getConvertScaleFuncEii @ 608
;	cv::checkHardwareSupport(int)
	_ZN2cv20checkHardwareSupportEi @ 609
;	cv::perspectiveTransform(cv::_InputArray const&, cv::_OutputArray const&, cv::_InputArray const&)
	_ZN2cv20perspectiveTransformERKNS_11_InputArrayERKNS_12_OutputArrayES2_ @ 610
;	cv::check_range_functions
	_ZN2cv21check_range_functionsE @ 611 DATA
;	cv::deleteThreadAllocData()
	_ZN2cv21deleteThreadAllocDataEv @ 612
;	cv::KMeansDistanceComputer::~KMeansDistanceComputer()
	_ZN2cv22KMeansDistanceComputerD0Ev @ 613
;	cv::KMeansDistanceComputer::~KMeansDistanceComputer()
	_ZN2cv22KMeansDistanceComputerD1Ev @ 614
;	cv::SparseMatConstIterator::seekEnd()
	_ZN2cv22SparseMatConstIterator7seekEndEv @ 615
;	cv::SparseMatConstIterator::SparseMatConstIterator(cv::SparseMat const*)
	_ZN2cv22SparseMatConstIteratorC1EPKNS_9SparseMatE @ 616
;	cv::SparseMatConstIterator::SparseMatConstIterator(cv::SparseMatConstIterator const&)
	_ZN2cv22SparseMatConstIteratorC1ERKS0_ @ 617
;	cv::SparseMatConstIterator::SparseMatConstIterator()
	_ZN2cv22SparseMatConstIteratorC1Ev @ 618
;	cv::SparseMatConstIterator::SparseMatConstIterator(cv::SparseMat const*)
	_ZN2cv22SparseMatConstIteratorC2EPKNS_9SparseMatE @ 619
;	cv::SparseMatConstIterator::SparseMatConstIterator(cv::SparseMatConstIterator const&)
	_ZN2cv22SparseMatConstIteratorC2ERKS0_ @ 620
;	cv::SparseMatConstIterator::SparseMatConstIterator()
	_ZN2cv22SparseMatConstIteratorC2Ev @ 621
;	cv::SparseMatConstIterator::operator=(cv::SparseMatConstIterator const&)
	_ZN2cv22SparseMatConstIteratoraSERKS0_ @ 622
;	cv::SparseMatConstIterator::operator++(int)
	_ZN2cv22SparseMatConstIteratorppEi @ 623
;	cv::SparseMatConstIterator::operator++()
	_ZN2cv22SparseMatConstIteratorppEv @ 624
;	cv::convertAndUnrollScalar(cv::Mat const&, int, unsigned char*, unsigned long long)
	_ZN2cv22convertAndUnrollScalarERKNS_3MatEiPhy @ 625
;	cv::KMeansPPDistanceComputer::~KMeansPPDistanceComputer()
	_ZN2cv24KMeansPPDistanceComputerD0Ev @ 626
;	cv::KMeansPPDistanceComputer::~KMeansPPDistanceComputer()
	_ZN2cv24KMeansPPDistanceComputerD1Ev @ 627
;	cv::LU(double*, unsigned long long, int, double*, unsigned long long, int)
	_ZN2cv2LUEPdyiS0_yi @ 628
;	cv::LU(float*, unsigned long long, int, float*, unsigned long long, int)
	_ZN2cv2LUEPfyiS0_yi @ 629
;	cv::LUT(cv::_InputArray const&, cv::_InputArray const&, cv::_OutputArray const&, int)
	_ZN2cv3LUTERKNS_11_InputArrayES2_RKNS_12_OutputArrayEi @ 630
;	cv::Mat::deallocate()
	_ZN2cv3Mat10deallocateEv @ 631
;	cv::Mat::push_back_(void const*)
	_ZN2cv3Mat10push_back_EPKv @ 632
;	cv::Mat::eye(cv::Size_<int>, int)
	_ZN2cv3Mat3eyeENS_5Size_IiEEi @ 633
;	cv::Mat::eye(int, int, int)
	_ZN2cv3Mat3eyeEiii @ 634
;	cv::Mat::ptr(int const*)
	_ZN2cv3Mat3ptrEPKi @ 635
;	cv::Mat::ptr(int)
	_ZN2cv3Mat3ptrEi @ 636
;	cv::Mat::ptr(int, int)
	_ZN2cv3Mat3ptrEii @ 637
;	cv::Mat::ptr(int, int, int)
	_ZN2cv3Mat3ptrEiii @ 638
;	cv::Mat::diag(cv::Mat const&)
	_ZN2cv3Mat4diagERKS0_ @ 639
;	cv::Mat::ones(cv::Size_<int>, int)
	_ZN2cv3Mat4onesENS_5Size_IiEEi @ 640
;	cv::Mat::ones(int, int, int)
	_ZN2cv3Mat4onesEiii @ 641
;	cv::Mat::MSize::MSize(int*)
	_ZN2cv3Mat5MSizeC1EPi @ 642
;	cv::Mat::MSize::MSize(int*)
	_ZN2cv3Mat5MSizeC2EPi @ 643
;	cv::Mat::MSize::operator[](int)
	_ZN2cv3Mat5MSizeixEi @ 644
;	cv::Mat::MStep::MStep()
	_ZN2cv3Mat5MStepC1Ev @ 645
;	cv::Mat::MStep::MStep(unsigned long long)
	_ZN2cv3Mat5MStepC1Ey @ 646
;	cv::Mat::MStep::MStep()
	_ZN2cv3Mat5MStepC2Ev @ 647
;	cv::Mat::MStep::MStep(unsigned long long)
	_ZN2cv3Mat5MStepC2Ey @ 648
;	cv::Mat::MStep::operator=(unsigned long long)
	_ZN2cv3Mat5MStepaSEy @ 649
;	cv::Mat::MStep::operator[](int)
	_ZN2cv3Mat5MStepixEi @ 650
;	cv::Mat::setTo(cv::_InputArray const&, cv::_InputArray const&)
	_ZN2cv3Mat5setToERKNS_11_InputArrayES3_ @ 651
;	cv::Mat::zeros(cv::Size_<int>, int)
	_ZN2cv3Mat5zerosENS_5Size_IiEEi @ 652
;	cv::Mat::zeros(int, int, int)
	_ZN2cv3Mat5zerosEiii @ 653
;	cv::Mat::addref()
	_ZN2cv3Mat6addrefEv @ 654
;	cv::Mat::create(cv::Size_<int>, int)
	_ZN2cv3Mat6createENS_5Size_IiEEi @ 655
;	cv::Mat::create(int, int const*, int)
	_ZN2cv3Mat6createEiPKii @ 656
;	cv::Mat::create(int, int, int)
	_ZN2cv3Mat6createEiii @ 657
;	cv::Mat::resize(unsigned long long)
	_ZN2cv3Mat6resizeEy @ 658
;	cv::Mat::resize(unsigned long long, cv::Scalar_<double> const&)
	_ZN2cv3Mat6resizeEyRKNS_7Scalar_IdEE @ 659
;	cv::Mat::release()
	_ZN2cv3Mat7releaseEv @ 660
;	cv::Mat::reserve(unsigned long long)
	_ZN2cv3Mat7reserveEy @ 661
;	cv::Mat::copySize(cv::Mat const&)
	_ZN2cv3Mat8copySizeERKS0_ @ 662
;	cv::Mat::pop_back(unsigned long long)
	_ZN2cv3Mat8pop_backEy @ 663
;	cv::Mat::adjustROI(int, int, int, int)
	_ZN2cv3Mat9adjustROIEiiii @ 664
;	cv::Mat::initEmpty()
	_ZN2cv3Mat9initEmptyEv @ 665
;	cv::Mat::push_back(cv::Mat const&)
	_ZN2cv3Mat9push_backERKS0_ @ 666
;	cv::Mat::Mat(cv::Size_<int>, int)
	_ZN2cv3MatC1ENS_5Size_IiEEi @ 667
;	cv::Mat::Mat(cv::Size_<int>, int, void*, unsigned long long)
	_ZN2cv3MatC1ENS_5Size_IiEEiPvy @ 668
;	cv::Mat::Mat(cv::Size_<int>, int, cv::Scalar_<double> const&)
	_ZN2cv3MatC1ENS_5Size_IiEEiRKNS_7Scalar_IdEE @ 669
;	cv::Mat::Mat(CvMat const*, bool)
	_ZN2cv3MatC1EPK5CvMatb @ 670
;	cv::Mat::Mat(CvMatND const*, bool)
	_ZN2cv3MatC1EPK7CvMatNDb @ 671
;	cv::Mat::Mat(_IplImage const*, bool)
	_ZN2cv3MatC1EPK9_IplImageb @ 672
;	cv::Mat::Mat(cv::gpu::GpuMat const&)
	_ZN2cv3MatC1ERKNS_3gpu6GpuMatE @ 673
;	cv::Mat::Mat(cv::Mat const&)
	_ZN2cv3MatC1ERKS0_ @ 674
;	cv::Mat::Mat(cv::Mat const&, cv::Range const*)
	_ZN2cv3MatC1ERKS0_PKNS_5RangeE @ 675
;	cv::Mat::Mat(cv::Mat const&, cv::Range const&, cv::Range const&)
	_ZN2cv3MatC1ERKS0_RKNS_5RangeES5_ @ 676
;	cv::Mat::Mat(cv::Mat const&, cv::Rect_<int> const&)
	_ZN2cv3MatC1ERKS0_RKNS_5Rect_IiEE @ 677
;	cv::Mat::Mat(int, int const*, int)
	_ZN2cv3MatC1EiPKii @ 678
;	cv::Mat::Mat(int, int const*, int, void*, unsigned long long const*)
	_ZN2cv3MatC1EiPKiiPvPKy @ 679
;	cv::Mat::Mat(int, int const*, int, cv::Scalar_<double> const&)
	_ZN2cv3MatC1EiPKiiRKNS_7Scalar_IdEE @ 680
;	cv::Mat::Mat(int, int, int)
	_ZN2cv3MatC1Eiii @ 681
;	cv::Mat::Mat(int, int, int, void*, unsigned long long)
	_ZN2cv3MatC1EiiiPvy @ 682
;	cv::Mat::Mat(int, int, int, cv::Scalar_<double> const&)
	_ZN2cv3MatC1EiiiRKNS_7Scalar_IdEE @ 683
;	cv::Mat::Mat()
	_ZN2cv3MatC1Ev @ 684
;	cv::Mat::Mat(cv::Size_<int>, int)
	_ZN2cv3MatC2ENS_5Size_IiEEi @ 685
;	cv::Mat::Mat(cv::Size_<int>, int, void*, unsigned long long)
	_ZN2cv3MatC2ENS_5Size_IiEEiPvy @ 686
;	cv::Mat::Mat(cv::Size_<int>, int, cv::Scalar_<double> const&)
	_ZN2cv3MatC2ENS_5Size_IiEEiRKNS_7Scalar_IdEE @ 687
;	cv::Mat::Mat(CvMat const*, bool)
	_ZN2cv3MatC2EPK5CvMatb @ 688
;	cv::Mat::Mat(CvMatND const*, bool)
	_ZN2cv3MatC2EPK7CvMatNDb @ 689
;	cv::Mat::Mat(_IplImage const*, bool)
	_ZN2cv3MatC2EPK9_IplImageb @ 690
;	cv::Mat::Mat(cv::gpu::GpuMat const&)
	_ZN2cv3MatC2ERKNS_3gpu6GpuMatE @ 691
;	cv::Mat::Mat(cv::Mat const&)
	_ZN2cv3MatC2ERKS0_ @ 692
;	cv::Mat::Mat(cv::Mat const&, cv::Range const*)
	_ZN2cv3MatC2ERKS0_PKNS_5RangeE @ 693
;	cv::Mat::Mat(cv::Mat const&, cv::Range const&, cv::Range const&)
	_ZN2cv3MatC2ERKS0_RKNS_5RangeES5_ @ 694
;	cv::Mat::Mat(cv::Mat const&, cv::Rect_<int> const&)
	_ZN2cv3MatC2ERKS0_RKNS_5Rect_IiEE @ 695
;	cv::Mat::Mat(int, int const*, int)
	_ZN2cv3MatC2EiPKii @ 696
;	cv::Mat::Mat(int, int const*, int, void*, unsigned long long const*)
	_ZN2cv3MatC2EiPKiiPvPKy @ 697
;	cv::Mat::Mat(int, int const*, int, cv::Scalar_<double> const&)
	_ZN2cv3MatC2EiPKiiRKNS_7Scalar_IdEE @ 698
;	cv::Mat::Mat(int, int, int)
	_ZN2cv3MatC2Eiii @ 699
;	cv::Mat::Mat(int, int, int, void*, unsigned long long)
	_ZN2cv3MatC2EiiiPvy @ 700
;	cv::Mat::Mat(int, int, int, cv::Scalar_<double> const&)
	_ZN2cv3MatC2EiiiRKNS_7Scalar_IdEE @ 701
;	cv::Mat::Mat()
	_ZN2cv3MatC2Ev @ 702
;	cv::Mat::~Mat()
	_ZN2cv3MatD1Ev @ 703
;	cv::Mat::~Mat()
	_ZN2cv3MatD2Ev @ 704
;	cv::Mat::operator=(cv::MatExpr const&)
	_ZN2cv3MataSERKNS_7MatExprE @ 705
;	cv::Mat::operator=(cv::Scalar_<double> const&)
	_ZN2cv3MataSERKNS_7Scalar_IdEE @ 706
;	cv::Mat::operator=(cv::Mat const&)
	_ZN2cv3MataSERKS0_ @ 707
;	cv::PCA::computeVar(cv::_InputArray const&, cv::_InputArray const&, int, double)
	_ZN2cv3PCA10computeVarERKNS_11_InputArrayES3_id @ 708
;	cv::PCA::PCA(cv::_InputArray const&, cv::_InputArray const&, int, double)
	_ZN2cv3PCAC1ERKNS_11_InputArrayES3_id @ 709
;	cv::PCA::PCA(cv::_InputArray const&, cv::_InputArray const&, int, int)
	_ZN2cv3PCAC1ERKNS_11_InputArrayES3_ii @ 710
;	cv::PCA::PCA()
	_ZN2cv3PCAC1Ev @ 711
;	cv::PCA::PCA(cv::_InputArray const&, cv::_InputArray const&, int, double)
	_ZN2cv3PCAC2ERKNS_11_InputArrayES3_id @ 712
;	cv::PCA::PCA(cv::_InputArray const&, cv::_InputArray const&, int, int)
	_ZN2cv3PCAC2ERKNS_11_InputArrayES3_ii @ 713
;	cv::PCA::PCA()
	_ZN2cv3PCAC2Ev @ 714
;	cv::PCA::~PCA()
	_ZN2cv3PCAD1Ev @ 715
;	cv::PCA::operator()(cv::_InputArray const&, cv::_InputArray const&, int, int)
	_ZN2cv3PCAclERKNS_11_InputArrayES3_ii @ 716
;	cv::Ptr<CvSparseMat>::delete_obj()
	_ZN2cv3PtrI11CvSparseMatE10delete_objEv @ 717
;	cv::Ptr<CvSparseMat>::addref()
	_ZN2cv3PtrI11CvSparseMatE6addrefEv @ 718
;	cv::Ptr<CvSparseMat>::release()
	_ZN2cv3PtrI11CvSparseMatE7releaseEv @ 719
;	cv::Ptr<CvSparseMat>::Ptr(CvSparseMat*)
	_ZN2cv3PtrI11CvSparseMatEC1EPS1_ @ 720
;	cv::Ptr<CvSparseMat>::Ptr(cv::Ptr<CvSparseMat> const&)
	_ZN2cv3PtrI11CvSparseMatEC1ERKS2_ @ 721
;	cv::Ptr<CvSparseMat>::Ptr(CvSparseMat*)
	_ZN2cv3PtrI11CvSparseMatEC2EPS1_ @ 722
;	cv::Ptr<CvSparseMat>::Ptr(cv::Ptr<CvSparseMat> const&)
	_ZN2cv3PtrI11CvSparseMatEC2ERKS2_ @ 723
;	cv::Ptr<CvSparseMat>::~Ptr()
	_ZN2cv3PtrI11CvSparseMatED1Ev @ 724
;	cv::Ptr<CvSparseMat>::~Ptr()
	_ZN2cv3PtrI11CvSparseMatED2Ev @ 725
;	cv::Ptr<CvSparseMat>::operator CvSparseMat*()
	_ZN2cv3PtrI11CvSparseMatEcvPS1_Ev @ 726
;	cv::Ptr<CvMemStorage>::delete_obj()
	_ZN2cv3PtrI12CvMemStorageE10delete_objEv @ 727
;	cv::Ptr<CvFileStorage>::delete_obj()
	_ZN2cv3PtrI13CvFileStorageE10delete_objEv @ 728
;	cv::Ptr<CvFileStorage>::release()
	_ZN2cv3PtrI13CvFileStorageE7releaseEv @ 729
;	cv::Ptr<CvFileStorage>::Ptr(CvFileStorage*)
	_ZN2cv3PtrI13CvFileStorageEC1EPS1_ @ 730
;	cv::Ptr<CvFileStorage>::Ptr()
	_ZN2cv3PtrI13CvFileStorageEC1Ev @ 731
;	cv::Ptr<CvFileStorage>::Ptr(CvFileStorage*)
	_ZN2cv3PtrI13CvFileStorageEC2EPS1_ @ 732
;	cv::Ptr<CvFileStorage>::Ptr()
	_ZN2cv3PtrI13CvFileStorageEC2Ev @ 733
;	cv::Ptr<CvFileStorage>::~Ptr()
	_ZN2cv3PtrI13CvFileStorageED1Ev @ 734
;	cv::Ptr<CvFileStorage>::~Ptr()
	_ZN2cv3PtrI13CvFileStorageED2Ev @ 735
;	cv::Ptr<CvFileStorage>::operator=(cv::Ptr<CvFileStorage> const&)
	_ZN2cv3PtrI13CvFileStorageEaSERKS2_ @ 736
;	cv::Ptr<CvFileStorage>::operator CvFileStorage*()
	_ZN2cv3PtrI13CvFileStorageEcvPS1_Ev @ 737
;	cv::Ptr<CvMat>::delete_obj()
	_ZN2cv3PtrI5CvMatE10delete_objEv @ 738
;	cv::Ptr<CvMatND>::delete_obj()
	_ZN2cv3PtrI7CvMatNDE10delete_objEv @ 739
;	cv::Ptr<_IplImage>::delete_obj()
	_ZN2cv3PtrI9_IplImageE10delete_objEv @ 740
;	cv::Ptr<cv::ogl::Buffer::Impl>::delete_obj()
	_ZN2cv3PtrINS_3ogl6Buffer4ImplEE10delete_objEv @ 741
;	cv::Ptr<cv::ogl::Buffer::Impl>::addref()
	_ZN2cv3PtrINS_3ogl6Buffer4ImplEE6addrefEv @ 742
;	cv::Ptr<cv::ogl::Buffer::Impl>::release()
	_ZN2cv3PtrINS_3ogl6Buffer4ImplEE7releaseEv @ 743
;	cv::Ptr<cv::ogl::Buffer::Impl>::Ptr(cv::Ptr<cv::ogl::Buffer::Impl> const&)
	_ZN2cv3PtrINS_3ogl6Buffer4ImplEEC1ERKS4_ @ 744
;	cv::Ptr<cv::ogl::Buffer::Impl>::Ptr()
	_ZN2cv3PtrINS_3ogl6Buffer4ImplEEC1Ev @ 745
;	cv::Ptr<cv::ogl::Buffer::Impl>::Ptr(cv::Ptr<cv::ogl::Buffer::Impl> const&)
	_ZN2cv3PtrINS_3ogl6Buffer4ImplEEC2ERKS4_ @ 746
;	cv::Ptr<cv::ogl::Buffer::Impl>::Ptr()
	_ZN2cv3PtrINS_3ogl6Buffer4ImplEEC2Ev @ 747
;	cv::Ptr<cv::ogl::Buffer::Impl>::~Ptr()
	_ZN2cv3PtrINS_3ogl6Buffer4ImplEED1Ev @ 748
;	cv::Ptr<cv::ogl::Buffer::Impl>::~Ptr()
	_ZN2cv3PtrINS_3ogl6Buffer4ImplEED2Ev @ 749
;	cv::Ptr<cv::ogl::Buffer::Impl>::operator=(cv::Ptr<cv::ogl::Buffer::Impl> const&)
	_ZN2cv3PtrINS_3ogl6Buffer4ImplEEaSERKS4_ @ 750
;	cv::Ptr<cv::ogl::Texture2D::Impl>::delete_obj()
	_ZN2cv3PtrINS_3ogl9Texture2D4ImplEE10delete_objEv @ 751
;	cv::Ptr<cv::ogl::Texture2D::Impl>::addref()
	_ZN2cv3PtrINS_3ogl9Texture2D4ImplEE6addrefEv @ 752
;	cv::Ptr<cv::ogl::Texture2D::Impl>::release()
	_ZN2cv3PtrINS_3ogl9Texture2D4ImplEE7releaseEv @ 753
;	cv::Ptr<cv::ogl::Texture2D::Impl>::Ptr(cv::Ptr<cv::ogl::Texture2D::Impl> const&)
	_ZN2cv3PtrINS_3ogl9Texture2D4ImplEEC1ERKS4_ @ 754
;	cv::Ptr<cv::ogl::Texture2D::Impl>::Ptr()
	_ZN2cv3PtrINS_3ogl9Texture2D4ImplEEC1Ev @ 755
;	cv::Ptr<cv::ogl::Texture2D::Impl>::Ptr(cv::Ptr<cv::ogl::Texture2D::Impl> const&)
	_ZN2cv3PtrINS_3ogl9Texture2D4ImplEEC2ERKS4_ @ 756
;	cv::Ptr<cv::ogl::Texture2D::Impl>::Ptr()
	_ZN2cv3PtrINS_3ogl9Texture2D4ImplEEC2Ev @ 757
;	cv::Ptr<cv::ogl::Texture2D::Impl>::~Ptr()
	_ZN2cv3PtrINS_3ogl9Texture2D4ImplEED1Ev @ 758
;	cv::Ptr<cv::ogl::Texture2D::Impl>::~Ptr()
	_ZN2cv3PtrINS_3ogl9Texture2D4ImplEED2Ev @ 759
;	cv::Ptr<cv::GlFont>::delete_obj()
	_ZN2cv3PtrINS_6GlFontEE10delete_objEv @ 760
;	cv::Ptr<cv::GlFont>::addref()
	_ZN2cv3PtrINS_6GlFontEE6addrefEv @ 761
;	cv::Ptr<cv::GlFont>::release()
	_ZN2cv3PtrINS_6GlFontEE7releaseEv @ 762
;	cv::Ptr<cv::GlFont>::Ptr(cv::Ptr<cv::GlFont> const&)
	_ZN2cv3PtrINS_6GlFontEEC1ERKS2_ @ 763
;	cv::Ptr<cv::GlFont>::Ptr()
	_ZN2cv3PtrINS_6GlFontEEC1Ev @ 764
;	cv::Ptr<cv::GlFont>::Ptr(cv::Ptr<cv::GlFont> const&)
	_ZN2cv3PtrINS_6GlFontEEC2ERKS2_ @ 765
;	cv::Ptr<cv::GlFont>::Ptr()
	_ZN2cv3PtrINS_6GlFontEEC2Ev @ 766
;	cv::Ptr<cv::GlFont>::~Ptr()
	_ZN2cv3PtrINS_6GlFontEED1Ev @ 767
;	cv::Ptr<cv::GlFont>::~Ptr()
	_ZN2cv3PtrINS_6GlFontEED2Ev @ 768
;	cv::Ptr<cv::GlBuffer::Impl>::delete_obj()
	_ZN2cv3PtrINS_8GlBuffer4ImplEE10delete_objEv @ 769
;	cv::Ptr<cv::GlBuffer::Impl>::addref()
	_ZN2cv3PtrINS_8GlBuffer4ImplEE6addrefEv @ 770
;	cv::Ptr<cv::GlBuffer::Impl>::release()
	_ZN2cv3PtrINS_8GlBuffer4ImplEE7releaseEv @ 771
;	cv::Ptr<cv::GlBuffer::Impl>::Ptr(cv::Ptr<cv::GlBuffer::Impl> const&)
	_ZN2cv3PtrINS_8GlBuffer4ImplEEC1ERKS3_ @ 772
;	cv::Ptr<cv::GlBuffer::Impl>::Ptr()
	_ZN2cv3PtrINS_8GlBuffer4ImplEEC1Ev @ 773
;	cv::Ptr<cv::GlBuffer::Impl>::Ptr(cv::Ptr<cv::GlBuffer::Impl> const&)
	_ZN2cv3PtrINS_8GlBuffer4ImplEEC2ERKS3_ @ 774
;	cv::Ptr<cv::GlBuffer::Impl>::Ptr()
	_ZN2cv3PtrINS_8GlBuffer4ImplEEC2Ev @ 775
;	cv::Ptr<cv::GlBuffer::Impl>::~Ptr()
	_ZN2cv3PtrINS_8GlBuffer4ImplEED1Ev @ 776
;	cv::Ptr<cv::GlBuffer::Impl>::~Ptr()
	_ZN2cv3PtrINS_8GlBuffer4ImplEED2Ev @ 777
;	cv::Ptr<cv::Algorithm>::delete_obj()
	_ZN2cv3PtrINS_9AlgorithmEE10delete_objEv @ 778
;	cv::Ptr<cv::Algorithm>::addref()
	_ZN2cv3PtrINS_9AlgorithmEE6addrefEv @ 779
;	cv::Ptr<cv::Algorithm>::release()
	_ZN2cv3PtrINS_9AlgorithmEE7releaseEv @ 780
;	cv::Ptr<cv::Algorithm>::Ptr(cv::Algorithm*)
	_ZN2cv3PtrINS_9AlgorithmEEC1EPS1_ @ 781
;	cv::Ptr<cv::Algorithm>::Ptr(cv::Ptr<cv::Algorithm> const&)
	_ZN2cv3PtrINS_9AlgorithmEEC1ERKS2_ @ 782
;	cv::Ptr<cv::Algorithm>::Ptr()
	_ZN2cv3PtrINS_9AlgorithmEEC1Ev @ 783
;	cv::Ptr<cv::Algorithm>::Ptr(cv::Algorithm*)
	_ZN2cv3PtrINS_9AlgorithmEEC2EPS1_ @ 784
;	cv::Ptr<cv::Algorithm>::Ptr(cv::Ptr<cv::Algorithm> const&)
	_ZN2cv3PtrINS_9AlgorithmEEC2ERKS2_ @ 785
;	cv::Ptr<cv::Algorithm>::Ptr()
	_ZN2cv3PtrINS_9AlgorithmEEC2Ev @ 786
;	cv::Ptr<cv::Algorithm>::~Ptr()
	_ZN2cv3PtrINS_9AlgorithmEED1Ev @ 787
;	cv::Ptr<cv::Algorithm>::~Ptr()
	_ZN2cv3PtrINS_9AlgorithmEED2Ev @ 788
;	cv::Ptr<cv::Algorithm>::operator=(cv::Ptr<cv::Algorithm> const&)
	_ZN2cv3PtrINS_9AlgorithmEEaSERKS2_ @ 789
;	cv::Ptr<cv::Algorithm>::operator->()
	_ZN2cv3PtrINS_9AlgorithmEEptEv @ 790
;	cv::Ptr<cv::GlTexture::Impl>::delete_obj()
	_ZN2cv3PtrINS_9GlTexture4ImplEE10delete_objEv @ 791
;	cv::Ptr<cv::GlTexture::Impl>::addref()
	_ZN2cv3PtrINS_9GlTexture4ImplEE6addrefEv @ 792
;	cv::Ptr<cv::GlTexture::Impl>::release()
	_ZN2cv3PtrINS_9GlTexture4ImplEE7releaseEv @ 793
;	cv::Ptr<cv::GlTexture::Impl>::Ptr(cv::Ptr<cv::GlTexture::Impl> const&)
	_ZN2cv3PtrINS_9GlTexture4ImplEEC1ERKS3_ @ 794
;	cv::Ptr<cv::GlTexture::Impl>::Ptr()
	_ZN2cv3PtrINS_9GlTexture4ImplEEC1Ev @ 795
;	cv::Ptr<cv::GlTexture::Impl>::Ptr(cv::Ptr<cv::GlTexture::Impl> const&)
	_ZN2cv3PtrINS_9GlTexture4ImplEEC2ERKS3_ @ 796
;	cv::Ptr<cv::GlTexture::Impl>::Ptr()
	_ZN2cv3PtrINS_9GlTexture4ImplEEC2Ev @ 797
;	cv::Ptr<cv::GlTexture::Impl>::~Ptr()
	_ZN2cv3PtrINS_9GlTexture4ImplEED1Ev @ 798
;	cv::Ptr<cv::GlTexture::Impl>::~Ptr()
	_ZN2cv3PtrINS_9GlTexture4ImplEED2Ev @ 799
;	cv::RNG::fill(cv::_OutputArray const&, int, cv::_InputArray const&, cv::_InputArray const&, bool)
	_ZN2cv3RNG4fillERKNS_12_OutputArrayEiRKNS_11_InputArrayES6_b @ 800
;	cv::RNG::next()
	_ZN2cv3RNG4nextEv @ 801
;	cv::RNG::uniform(double, double)
	_ZN2cv3RNG7uniformEdd @ 802
;	cv::RNG::uniform(float, float)
	_ZN2cv3RNG7uniformEff @ 803
;	cv::RNG::uniform(int, int)
	_ZN2cv3RNG7uniformEii @ 804
;	cv::RNG::gaussian(double)
	_ZN2cv3RNG8gaussianEd @ 805
;	cv::RNG::RNG()
	_ZN2cv3RNGC1Ev @ 806
;	cv::RNG::RNG(unsigned long long)
	_ZN2cv3RNGC1Ey @ 807
;	cv::RNG::RNG()
	_ZN2cv3RNGC2Ev @ 808
;	cv::RNG::RNG(unsigned long long)
	_ZN2cv3RNGC2Ey @ 809
;	cv::RNG::operator()(unsigned int)
	_ZN2cv3RNGclEj @ 810
;	cv::RNG::operator()()
	_ZN2cv3RNGclEv @ 811
;	cv::RNG::operator signed char()
	_ZN2cv3RNGcvaEv @ 812
;	cv::RNG::operator double()
	_ZN2cv3RNGcvdEv @ 813
;	cv::RNG::operator float()
	_ZN2cv3RNGcvfEv @ 814
;	cv::RNG::operator unsigned char()
	_ZN2cv3RNGcvhEv @ 815
;	cv::RNG::operator int()
	_ZN2cv3RNGcviEv @ 816
;	cv::RNG::operator unsigned int()
	_ZN2cv3RNGcvjEv @ 817
;	cv::RNG::operator short()
	_ZN2cv3RNGcvsEv @ 818
;	cv::RNG::operator unsigned short()
	_ZN2cv3RNGcvtEv @ 819
;	cv::SVD::solveZ(cv::_InputArray const&, cv::_OutputArray const&)
	_ZN2cv3SVD6solveZERKNS_11_InputArrayERKNS_12_OutputArrayE @ 820
;	cv::SVD::compute(cv::_InputArray const&, cv::_OutputArray const&, cv::_OutputArray const&, cv::_OutputArray const&, int)
	_ZN2cv3SVD7computeERKNS_11_InputArrayERKNS_12_OutputArrayES6_S6_i @ 821
;	cv::SVD::compute(cv::_InputArray const&, cv::_OutputArray const&, int)
	_ZN2cv3SVD7computeERKNS_11_InputArrayERKNS_12_OutputArrayEi @ 822
;	cv::SVD::backSubst(cv::_InputArray const&, cv::_InputArray const&, cv::_InputArray const&, cv::_InputArray const&, cv::_OutputArray const&)
	_ZN2cv3SVD9backSubstERKNS_11_InputArrayES3_S3_S3_RKNS_12_OutputArrayE @ 823
;	cv::SVD::SVD(cv::_InputArray const&, int)
	_ZN2cv3SVDC1ERKNS_11_InputArrayEi @ 824
;	cv::SVD::SVD()
	_ZN2cv3SVDC1Ev @ 825
;	cv::SVD::SVD(cv::_InputArray const&, int)
	_ZN2cv3SVDC2ERKNS_11_InputArrayEi @ 826
;	cv::SVD::SVD()
	_ZN2cv3SVDC2Ev @ 827
;	cv::SVD::~SVD()
	_ZN2cv3SVDD1Ev @ 828
;	cv::SVD::operator()(cv::_InputArray const&, int)
	_ZN2cv3SVDclERKNS_11_InputArrayEi @ 829
;	cv::Vec<double, 2>::Vec(cv::Vec<double, 2> const&)
	_ZN2cv3VecIdLi2EEC1ERKS1_ @ 830
;	cv::Vec<double, 2>::Vec(double, double)
	_ZN2cv3VecIdLi2EEC1Edd @ 831
;	cv::Vec<double, 2>::Vec(cv::Vec<double, 2> const&)
	_ZN2cv3VecIdLi2EEC2ERKS1_ @ 832
;	cv::Vec<double, 2>::Vec(double, double)
	_ZN2cv3VecIdLi2EEC2Edd @ 833
;	cv::Vec<double, 2>::operator[](int)
	_ZN2cv3VecIdLi2EEixEi @ 834
;	cv::Vec<double, 3>::Vec(cv::Vec<double, 3> const&)
	_ZN2cv3VecIdLi3EEC1ERKS1_ @ 835
;	cv::Vec<double, 3>::Vec(double, double, double)
	_ZN2cv3VecIdLi3EEC1Eddd @ 836
;	cv::Vec<double, 3>::Vec(cv::Vec<double, 3> const&)
	_ZN2cv3VecIdLi3EEC2ERKS1_ @ 837
;	cv::Vec<double, 3>::Vec(double, double, double)
	_ZN2cv3VecIdLi3EEC2Eddd @ 838
;	cv::Vec<double, 4>::Vec(cv::Vec<double, 4> const&)
	_ZN2cv3VecIdLi4EEC1ERKS1_ @ 839
;	cv::Vec<double, 4>::Vec(double, double, double, double)
	_ZN2cv3VecIdLi4EEC1Edddd @ 840
;	cv::Vec<double, 4>::Vec()
	_ZN2cv3VecIdLi4EEC1Ev @ 841
;	cv::Vec<double, 4>::Vec(cv::Vec<double, 4> const&)
	_ZN2cv3VecIdLi4EEC2ERKS1_ @ 842
;	cv::Vec<double, 4>::Vec(double, double, double, double)
	_ZN2cv3VecIdLi4EEC2Edddd @ 843
;	cv::Vec<double, 4>::Vec()
	_ZN2cv3VecIdLi4EEC2Ev @ 844
;	cv::Vec<double, 4>::operator[](int)
	_ZN2cv3VecIdLi4EEixEi @ 845
;	cv::Vec<float, 2>::Vec(cv::Vec<float, 2> const&)
	_ZN2cv3VecIfLi2EEC1ERKS1_ @ 846
;	cv::Vec<float, 2>::Vec(float, float)
	_ZN2cv3VecIfLi2EEC1Eff @ 847
;	cv::Vec<float, 2>::Vec()
	_ZN2cv3VecIfLi2EEC1Ev @ 848
;	cv::Vec<float, 2>::Vec(cv::Vec<float, 2> const&)
	_ZN2cv3VecIfLi2EEC2ERKS1_ @ 849
;	cv::Vec<float, 2>::Vec(float, float)
	_ZN2cv3VecIfLi2EEC2Eff @ 850
;	cv::Vec<float, 2>::Vec()
	_ZN2cv3VecIfLi2EEC2Ev @ 851
;	cv::Vec<float, 2>::operator[](int)
	_ZN2cv3VecIfLi2EEixEi @ 852
;	cv::Vec<float, 3>::Vec(cv::Vec<float, 3> const&)
	_ZN2cv3VecIfLi3EEC1ERKS1_ @ 853
;	cv::Vec<float, 3>::Vec(float, float, float)
	_ZN2cv3VecIfLi3EEC1Efff @ 854
;	cv::Vec<float, 3>::Vec(cv::Vec<float, 3> const&)
	_ZN2cv3VecIfLi3EEC2ERKS1_ @ 855
;	cv::Vec<float, 3>::Vec(float, float, float)
	_ZN2cv3VecIfLi3EEC2Efff @ 856
;	cv::Vec<float, 4>::Vec(cv::Vec<float, 4> const&)
	_ZN2cv3VecIfLi4EEC1ERKS1_ @ 857
;	cv::Vec<float, 4>::Vec(float, float, float, float)
	_ZN2cv3VecIfLi4EEC1Effff @ 858
;	cv::Vec<float, 4>::Vec(cv::Vec<float, 4> const&)
	_ZN2cv3VecIfLi4EEC2ERKS1_ @ 859
;	cv::Vec<float, 4>::Vec(float, float, float, float)
	_ZN2cv3VecIfLi4EEC2Effff @ 860
;	cv::Vec<unsigned char, 2>::Vec(cv::Vec<unsigned char, 2> const&)
	_ZN2cv3VecIhLi2EEC1ERKS1_ @ 861
;	cv::Vec<unsigned char, 2>::Vec()
	_ZN2cv3VecIhLi2EEC1Ev @ 862
;	cv::Vec<unsigned char, 2>::Vec(cv::Vec<unsigned char, 2> const&)
	_ZN2cv3VecIhLi2EEC2ERKS1_ @ 863
;	cv::Vec<unsigned char, 2>::Vec()
	_ZN2cv3VecIhLi2EEC2Ev @ 864
;	cv::Vec<unsigned char, 3>::Vec(cv::Vec<unsigned char, 3> const&)
	_ZN2cv3VecIhLi3EEC1ERKS1_ @ 865
;	cv::Vec<unsigned char, 3>::Vec()
	_ZN2cv3VecIhLi3EEC1Ev @ 866
;	cv::Vec<unsigned char, 3>::Vec(cv::Vec<unsigned char, 3> const&)
	_ZN2cv3VecIhLi3EEC2ERKS1_ @ 867
;	cv::Vec<unsigned char, 3>::Vec()
	_ZN2cv3VecIhLi3EEC2Ev @ 868
;	cv::Vec<int, 128>::Vec(cv::Vec<int, 128> const&)
	_ZN2cv3VecIiLi128EEC1ERKS1_ @ 869
;	cv::Vec<int, 128>::Vec()
	_ZN2cv3VecIiLi128EEC1Ev @ 870
;	cv::Vec<int, 128>::Vec(cv::Vec<int, 128> const&)
	_ZN2cv3VecIiLi128EEC2ERKS1_ @ 871
;	cv::Vec<int, 128>::Vec()
	_ZN2cv3VecIiLi128EEC2Ev @ 872
;	cv::Vec<int, 12>::Vec(cv::Vec<int, 12> const&)
	_ZN2cv3VecIiLi12EEC1ERKS1_ @ 873
;	cv::Vec<int, 12>::Vec()
	_ZN2cv3VecIiLi12EEC1Ev @ 874
;	cv::Vec<int, 12>::Vec(cv::Vec<int, 12> const&)
	_ZN2cv3VecIiLi12EEC2ERKS1_ @ 875
;	cv::Vec<int, 12>::Vec()
	_ZN2cv3VecIiLi12EEC2Ev @ 876
;	cv::Vec<int, 16>::Vec(cv::Vec<int, 16> const&)
	_ZN2cv3VecIiLi16EEC1ERKS1_ @ 877
;	cv::Vec<int, 16>::Vec()
	_ZN2cv3VecIiLi16EEC1Ev @ 878
;	cv::Vec<int, 16>::Vec(cv::Vec<int, 16> const&)
	_ZN2cv3VecIiLi16EEC2ERKS1_ @ 879
;	cv::Vec<int, 16>::Vec()
	_ZN2cv3VecIiLi16EEC2Ev @ 880
;	cv::Vec<int, 2>::Vec(cv::Vec<int, 2> const&)
	_ZN2cv3VecIiLi2EEC1ERKS1_ @ 881
;	cv::Vec<int, 2>::Vec()
	_ZN2cv3VecIiLi2EEC1Ev @ 882
;	cv::Vec<int, 2>::Vec(cv::Vec<int, 2> const&)
	_ZN2cv3VecIiLi2EEC2ERKS1_ @ 883
;	cv::Vec<int, 2>::Vec()
	_ZN2cv3VecIiLi2EEC2Ev @ 884
;	cv::Vec<int, 2>::operator[](int)
	_ZN2cv3VecIiLi2EEixEi @ 885
;	cv::Vec<int, 32>::Vec(cv::Vec<int, 32> const&)
	_ZN2cv3VecIiLi32EEC1ERKS1_ @ 886
;	cv::Vec<int, 32>::Vec()
	_ZN2cv3VecIiLi32EEC1Ev @ 887
;	cv::Vec<int, 32>::Vec(cv::Vec<int, 32> const&)
	_ZN2cv3VecIiLi32EEC2ERKS1_ @ 888
;	cv::Vec<int, 32>::Vec()
	_ZN2cv3VecIiLi32EEC2Ev @ 889
;	cv::Vec<int, 3>::Vec(cv::Vec<int, 3> const&)
	_ZN2cv3VecIiLi3EEC1ERKS1_ @ 890
;	cv::Vec<int, 3>::Vec()
	_ZN2cv3VecIiLi3EEC1Ev @ 891
;	cv::Vec<int, 3>::Vec(cv::Vec<int, 3> const&)
	_ZN2cv3VecIiLi3EEC2ERKS1_ @ 892
;	cv::Vec<int, 3>::Vec()
	_ZN2cv3VecIiLi3EEC2Ev @ 893
;	cv::Vec<int, 4>::Vec(cv::Vec<int, 4> const&)
	_ZN2cv3VecIiLi4EEC1ERKS1_ @ 894
;	cv::Vec<int, 4>::Vec()
	_ZN2cv3VecIiLi4EEC1Ev @ 895
;	cv::Vec<int, 4>::Vec(cv::Vec<int, 4> const&)
	_ZN2cv3VecIiLi4EEC2ERKS1_ @ 896
;	cv::Vec<int, 4>::Vec()
	_ZN2cv3VecIiLi4EEC2Ev @ 897
;	cv::Vec<int, 64>::Vec(cv::Vec<int, 64> const&)
	_ZN2cv3VecIiLi64EEC1ERKS1_ @ 898
;	cv::Vec<int, 64>::Vec()
	_ZN2cv3VecIiLi64EEC1Ev @ 899
;	cv::Vec<int, 64>::Vec(cv::Vec<int, 64> const&)
	_ZN2cv3VecIiLi64EEC2ERKS1_ @ 900
;	cv::Vec<int, 64>::Vec()
	_ZN2cv3VecIiLi64EEC2Ev @ 901
;	cv::Vec<int, 6>::Vec(cv::Vec<int, 6> const&)
	_ZN2cv3VecIiLi6EEC1ERKS1_ @ 902
;	cv::Vec<int, 6>::Vec()
	_ZN2cv3VecIiLi6EEC1Ev @ 903
;	cv::Vec<int, 6>::Vec(cv::Vec<int, 6> const&)
	_ZN2cv3VecIiLi6EEC2ERKS1_ @ 904
;	cv::Vec<int, 6>::Vec()
	_ZN2cv3VecIiLi6EEC2Ev @ 905
;	cv::Vec<int, 8>::Vec(cv::Vec<int, 8> const&)
	_ZN2cv3VecIiLi8EEC1ERKS1_ @ 906
;	cv::Vec<int, 8>::Vec()
	_ZN2cv3VecIiLi8EEC1Ev @ 907
;	cv::Vec<int, 8>::Vec(cv::Vec<int, 8> const&)
	_ZN2cv3VecIiLi8EEC2ERKS1_ @ 908
;	cv::Vec<int, 8>::Vec()
	_ZN2cv3VecIiLi8EEC2Ev @ 909
;	cv::Vec<int, 9>::Vec(cv::Vec<int, 9> const&)
	_ZN2cv3VecIiLi9EEC1ERKS1_ @ 910
;	cv::Vec<int, 9>::Vec()
	_ZN2cv3VecIiLi9EEC1Ev @ 911
;	cv::Vec<int, 9>::Vec(cv::Vec<int, 9> const&)
	_ZN2cv3VecIiLi9EEC2ERKS1_ @ 912
;	cv::Vec<int, 9>::Vec()
	_ZN2cv3VecIiLi9EEC2Ev @ 913
;	cv::Vec<short, 3>::Vec(cv::Vec<short, 3> const&)
	_ZN2cv3VecIsLi3EEC1ERKS1_ @ 914
;	cv::Vec<short, 3>::Vec()
	_ZN2cv3VecIsLi3EEC1Ev @ 915
;	cv::Vec<short, 3>::Vec(cv::Vec<short, 3> const&)
	_ZN2cv3VecIsLi3EEC2ERKS1_ @ 916
;	cv::Vec<short, 3>::Vec()
	_ZN2cv3VecIsLi3EEC2Ev @ 917
;	cv::Vec<unsigned short, 3>::Vec(cv::Vec<unsigned short, 3> const&)
	_ZN2cv3VecItLi3EEC1ERKS1_ @ 918
;	cv::Vec<unsigned short, 3>::Vec(cv::Vec<unsigned short, 3> const&)
	_ZN2cv3VecItLi3EEC2ERKS1_ @ 919
;	cv::abs(cv::Mat const&)
	_ZN2cv3absERKNS_3MatE @ 920
;	cv::abs(cv::MatExpr const&)
	_ZN2cv3absERKNS_7MatExprE @ 921
;	cv::add(cv::_InputArray const&, cv::_InputArray const&, cv::_OutputArray const&, cv::_InputArray const&, int)
	_ZN2cv3addERKNS_11_InputArrayES2_RKNS_12_OutputArrayES2_i @ 922
;	cv::dct(cv::_InputArray const&, cv::_OutputArray const&, int)
	_ZN2cv3dctERKNS_11_InputArrayERKNS_12_OutputArrayEi @ 923
;	cv::dft(cv::_InputArray const&, cv::_OutputArray const&, int, int)
	_ZN2cv3dftERKNS_11_InputArrayERKNS_12_OutputArrayEii @ 924
;	cv::exp(float const*, float*, int)
	_ZN2cv3expEPKfPfi @ 925
;	cv::exp(cv::_InputArray const&, cv::_OutputArray const&)
	_ZN2cv3expERKNS_11_InputArrayERKNS_12_OutputArrayE @ 926
;	cv::gpu::DeviceInfo::query()
	_ZN2cv3gpu10DeviceInfo5queryEv @ 927
;	cv::gpu::DeviceInfo::DeviceInfo(int)
	_ZN2cv3gpu10DeviceInfoC1Ei @ 928
;	cv::gpu::DeviceInfo::DeviceInfo()
	_ZN2cv3gpu10DeviceInfoC1Ev @ 929
;	cv::gpu::DeviceInfo::DeviceInfo(int)
	_ZN2cv3gpu10DeviceInfoC2Ei @ 930
;	cv::gpu::DeviceInfo::DeviceInfo()
	_ZN2cv3gpu10DeviceInfoC2Ev @ 931
;	cv::gpu::TargetArchs::hasEqualOrGreater(int, int)
	_ZN2cv3gpu11TargetArchs17hasEqualOrGreaterEii @ 932
;	cv::gpu::TargetArchs::hasEqualOrLessPtx(int, int)
	_ZN2cv3gpu11TargetArchs17hasEqualOrLessPtxEii @ 933
;	cv::gpu::TargetArchs::hasEqualOrGreaterBin(int, int)
	_ZN2cv3gpu11TargetArchs20hasEqualOrGreaterBinEii @ 934
;	cv::gpu::TargetArchs::hasEqualOrGreaterPtx(int, int)
	_ZN2cv3gpu11TargetArchs20hasEqualOrGreaterPtxEii @ 935
;	cv::gpu::TargetArchs::has(int, int)
	_ZN2cv3gpu11TargetArchs3hasEii @ 936
;	cv::gpu::TargetArchs::hasBin(int, int)
	_ZN2cv3gpu11TargetArchs6hasBinEii @ 937
;	cv::gpu::TargetArchs::hasPtx(int, int)
	_ZN2cv3gpu11TargetArchs6hasPtxEii @ 938
;	cv::gpu::TargetArchs::builtWith(cv::gpu::FeatureSet)
	_ZN2cv3gpu11TargetArchs9builtWithENS0_10FeatureSetE @ 939
;	cv::gpu::resetDevice()
	_ZN2cv3gpu11resetDeviceEv @ 940
;	cv::gpu::setGlDevice(int)
	_ZN2cv3gpu11setGlDeviceEi @ 941
;	cv::gpu::deviceSupports(cv::gpu::FeatureSet)
	_ZN2cv3gpu14deviceSupportsENS0_10FeatureSetE @ 942
;	cv::gpu::allocMatFromBuf(int, int, int, cv::gpu::GpuMat&)
	_ZN2cv3gpu15allocMatFromBufEiiiRNS0_6GpuMatE @ 943
;	cv::gpu::createContinuous(cv::Size_<int>, int)
	_ZN2cv3gpu16createContinuousENS_5Size_IiEEi @ 944
;	cv::gpu::createContinuous(cv::Size_<int>, int, cv::gpu::GpuMat&)
	_ZN2cv3gpu16createContinuousENS_5Size_IiEEiRNS0_6GpuMatE @ 945
;	cv::gpu::createContinuous(int, int, int)
	_ZN2cv3gpu16createContinuousEiii @ 946
;	cv::gpu::createContinuous(int, int, int, cv::gpu::GpuMat&)
	_ZN2cv3gpu16createContinuousEiiiRNS0_6GpuMatE @ 947
;	cv::gpu::ensureSizeIsEnough(cv::Size_<int>, int, cv::gpu::GpuMat&)
	_ZN2cv3gpu18ensureSizeIsEnoughENS_5Size_IiEEiRNS0_6GpuMatE @ 948
;	cv::gpu::ensureSizeIsEnough(int, int, int, cv::gpu::GpuMat&)
	_ZN2cv3gpu18ensureSizeIsEnoughEiiiRNS0_6GpuMatE @ 949
;	cv::gpu::printCudaDeviceInfo(int)
	_ZN2cv3gpu19printCudaDeviceInfoEi @ 950
;	cv::gpu::printShortCudaDeviceInfo(int)
	_ZN2cv3gpu24printShortCudaDeviceInfoEi @ 951
;	cv::gpu::getCudaEnabledDeviceCount()
	_ZN2cv3gpu25getCudaEnabledDeviceCountEv @ 952
;	cv::gpu::error(char const*, char const*, int, char const*)
	_ZN2cv3gpu5errorEPKcS2_iS2_ @ 953
;	cv::gpu::GpuMat::ptr(int)
	_ZN2cv3gpu6GpuMat3ptrEi @ 954
;	cv::gpu::GpuMat::swap(cv::gpu::GpuMat&)
	_ZN2cv3gpu6GpuMat4swapERS1_ @ 955
;	cv::gpu::GpuMat::setTo(cv::Scalar_<double>, cv::gpu::GpuMat const&)
	_ZN2cv3gpu6GpuMat5setToENS_7Scalar_IdEERKS1_ @ 956
;	cv::gpu::GpuMat::create(cv::Size_<int>, int)
	_ZN2cv3gpu6GpuMat6createENS_5Size_IiEEi @ 957
;	cv::gpu::GpuMat::create(int, int, int)
	_ZN2cv3gpu6GpuMat6createEiii @ 958
;	cv::gpu::GpuMat::upload(cv::Mat const&)
	_ZN2cv3gpu6GpuMat6uploadERKNS_3MatE @ 959
;	cv::gpu::GpuMat::release()
	_ZN2cv3gpu6GpuMat7releaseEv @ 960
;	cv::gpu::GpuMat::adjustROI(int, int, int, int)
	_ZN2cv3gpu6GpuMat9adjustROIEiiii @ 961
;	cv::gpu::GpuMat::GpuMat(cv::Size_<int>, int)
	_ZN2cv3gpu6GpuMatC1ENS_5Size_IiEEi @ 962
;	cv::gpu::GpuMat::GpuMat(cv::Size_<int>, int, cv::Scalar_<double>)
	_ZN2cv3gpu6GpuMatC1ENS_5Size_IiEEiNS_7Scalar_IdEE @ 963
;	cv::gpu::GpuMat::GpuMat(cv::Size_<int>, int, void*, unsigned long long)
	_ZN2cv3gpu6GpuMatC1ENS_5Size_IiEEiPvy @ 964
;	cv::gpu::GpuMat::GpuMat(cv::Mat const&)
	_ZN2cv3gpu6GpuMatC1ERKNS_3MatE @ 965
;	cv::gpu::GpuMat::GpuMat(cv::gpu::GpuMat const&)
	_ZN2cv3gpu6GpuMatC1ERKS1_ @ 966
;	cv::gpu::GpuMat::GpuMat(cv::gpu::GpuMat const&, cv::Range, cv::Range)
	_ZN2cv3gpu6GpuMatC1ERKS1_NS_5RangeES4_ @ 967
;	cv::gpu::GpuMat::GpuMat(cv::gpu::GpuMat const&, cv::Rect_<int>)
	_ZN2cv3gpu6GpuMatC1ERKS1_NS_5Rect_IiEE @ 968
;	cv::gpu::GpuMat::GpuMat(int, int, int)
	_ZN2cv3gpu6GpuMatC1Eiii @ 969
;	cv::gpu::GpuMat::GpuMat(int, int, int, cv::Scalar_<double>)
	_ZN2cv3gpu6GpuMatC1EiiiNS_7Scalar_IdEE @ 970
;	cv::gpu::GpuMat::GpuMat(int, int, int, void*, unsigned long long)
	_ZN2cv3gpu6GpuMatC1EiiiPvy @ 971
;	cv::gpu::GpuMat::GpuMat()
	_ZN2cv3gpu6GpuMatC1Ev @ 972
;	cv::gpu::GpuMat::GpuMat(cv::Size_<int>, int)
	_ZN2cv3gpu6GpuMatC2ENS_5Size_IiEEi @ 973
;	cv::gpu::GpuMat::GpuMat(cv::Size_<int>, int, cv::Scalar_<double>)
	_ZN2cv3gpu6GpuMatC2ENS_5Size_IiEEiNS_7Scalar_IdEE @ 974
;	cv::gpu::GpuMat::GpuMat(cv::Size_<int>, int, void*, unsigned long long)
	_ZN2cv3gpu6GpuMatC2ENS_5Size_IiEEiPvy @ 975
;	cv::gpu::GpuMat::GpuMat(cv::Mat const&)
	_ZN2cv3gpu6GpuMatC2ERKNS_3MatE @ 976
;	cv::gpu::GpuMat::GpuMat(cv::gpu::GpuMat const&)
	_ZN2cv3gpu6GpuMatC2ERKS1_ @ 977
;	cv::gpu::GpuMat::GpuMat(cv::gpu::GpuMat const&, cv::Range, cv::Range)
	_ZN2cv3gpu6GpuMatC2ERKS1_NS_5RangeES4_ @ 978
;	cv::gpu::GpuMat::GpuMat(cv::gpu::GpuMat const&, cv::Rect_<int>)
	_ZN2cv3gpu6GpuMatC2ERKS1_NS_5Rect_IiEE @ 979
;	cv::gpu::GpuMat::GpuMat(int, int, int)
	_ZN2cv3gpu6GpuMatC2Eiii @ 980
;	cv::gpu::GpuMat::GpuMat(int, int, int, cv::Scalar_<double>)
	_ZN2cv3gpu6GpuMatC2EiiiNS_7Scalar_IdEE @ 981
;	cv::gpu::GpuMat::GpuMat(int, int, int, void*, unsigned long long)
	_ZN2cv3gpu6GpuMatC2EiiiPvy @ 982
;	cv::gpu::GpuMat::GpuMat()
	_ZN2cv3gpu6GpuMatC2Ev @ 983
;	cv::gpu::GpuMat::~GpuMat()
	_ZN2cv3gpu6GpuMatD1Ev @ 984
;	cv::gpu::GpuMat::~GpuMat()
	_ZN2cv3gpu6GpuMatD2Ev @ 985
;	cv::gpu::GpuMat::operator=(cv::Scalar_<double>)
	_ZN2cv3gpu6GpuMataSENS_7Scalar_IdEE @ 986
;	cv::gpu::GpuMat::operator=(cv::gpu::GpuMat const&)
	_ZN2cv3gpu6GpuMataSERKS1_ @ 987
;	cv::gpu::getDevice()
	_ZN2cv3gpu9getDeviceEv @ 988
;	cv::gpu::setDevice(int)
	_ZN2cv3gpu9setDeviceEi @ 989
;	cv::log(float const*, float*, int)
	_ZN2cv3logEPKfPfi @ 990
;	cv::log(cv::_InputArray const&, cv::_OutputArray const&)
	_ZN2cv3logERKNS_11_InputArrayERKNS_12_OutputArrayE @ 991
;	cv::max(cv::_InputArray const&, cv::_InputArray const&, cv::_OutputArray const&)
	_ZN2cv3maxERKNS_11_InputArrayES2_RKNS_12_OutputArrayE @ 992
;	cv::max(cv::Mat const&, cv::Mat const&)
	_ZN2cv3maxERKNS_3MatES2_ @ 993
;	cv::max(cv::Mat const&, cv::Mat const&, cv::Mat&)
	_ZN2cv3maxERKNS_3MatES2_RS0_ @ 994
;	cv::max(cv::Mat const&, double)
	_ZN2cv3maxERKNS_3MatEd @ 995
;	cv::max(cv::Mat const&, double, cv::Mat&)
	_ZN2cv3maxERKNS_3MatEdRS0_ @ 996
;	cv::max(double, cv::Mat const&)
	_ZN2cv3maxEdRKNS_3MatE @ 997
;	cv::min(cv::_InputArray const&, cv::_InputArray const&, cv::_OutputArray const&)
	_ZN2cv3minERKNS_11_InputArrayES2_RKNS_12_OutputArrayE @ 998
;	cv::min(cv::Mat const&, cv::Mat const&)
	_ZN2cv3minERKNS_3MatES2_ @ 999
;	cv::min(cv::Mat const&, cv::Mat const&, cv::Mat&)
	_ZN2cv3minERKNS_3MatES2_RS0_ @ 1000
;	cv::min(cv::Mat const&, double)
	_ZN2cv3minERKNS_3MatEd @ 1001
;	cv::min(cv::Mat const&, double, cv::Mat&)
	_ZN2cv3minERKNS_3MatEdRS0_ @ 1002
;	cv::min(double, cv::Mat const&)
	_ZN2cv3minEdRKNS_3MatE @ 1003
;	cv::ogl::checkError(char const*, int, char const*)
	_ZN2cv3ogl10checkErrorEPKciS2_ @ 1004
;	cv::ogl::Arrays::setColorArray(cv::_InputArray const&)
	_ZN2cv3ogl6Arrays13setColorArrayERKNS_11_InputArrayE @ 1005
;	cv::ogl::Arrays::setAutoRelease(bool)
	_ZN2cv3ogl6Arrays14setAutoReleaseEb @ 1006
;	cv::ogl::Arrays::setNormalArray(cv::_InputArray const&)
	_ZN2cv3ogl6Arrays14setNormalArrayERKNS_11_InputArrayE @ 1007
;	cv::ogl::Arrays::setVertexArray(cv::_InputArray const&)
	_ZN2cv3ogl6Arrays14setVertexArrayERKNS_11_InputArrayE @ 1008
;	cv::ogl::Arrays::resetColorArray()
	_ZN2cv3ogl6Arrays15resetColorArrayEv @ 1009
;	cv::ogl::Arrays::resetNormalArray()
	_ZN2cv3ogl6Arrays16resetNormalArrayEv @ 1010
;	cv::ogl::Arrays::resetVertexArray()
	_ZN2cv3ogl6Arrays16resetVertexArrayEv @ 1011
;	cv::ogl::Arrays::setTexCoordArray(cv::_InputArray const&)
	_ZN2cv3ogl6Arrays16setTexCoordArrayERKNS_11_InputArrayE @ 1012
;	cv::ogl::Arrays::resetTexCoordArray()
	_ZN2cv3ogl6Arrays18resetTexCoordArrayEv @ 1013
;	cv::ogl::Arrays::release()
	_ZN2cv3ogl6Arrays7releaseEv @ 1014
;	cv::ogl::Arrays::Arrays()
	_ZN2cv3ogl6ArraysC1Ev @ 1015
;	cv::ogl::Arrays::Arrays()
	_ZN2cv3ogl6ArraysC2Ev @ 1016
;	cv::ogl::Buffer::unmapDevice()
	_ZN2cv3ogl6Buffer11unmapDeviceEv @ 1017
;	cv::ogl::Buffer::setAutoRelease(bool)
	_ZN2cv3ogl6Buffer14setAutoReleaseEb @ 1018
;	cv::ogl::Buffer::create(cv::Size_<int>, int, cv::ogl::Buffer::Target, bool)
	_ZN2cv3ogl6Buffer6createENS_5Size_IiEEiNS1_6TargetEb @ 1019
;	cv::ogl::Buffer::create(int, int, int, cv::ogl::Buffer::Target, bool)
	_ZN2cv3ogl6Buffer6createEiiiNS1_6TargetEb @ 1020
;	cv::ogl::Buffer::unbind(cv::ogl::Buffer::Target)
	_ZN2cv3ogl6Buffer6unbindENS1_6TargetE @ 1021
;	cv::ogl::Buffer::mapHost(cv::ogl::Buffer::Access)
	_ZN2cv3ogl6Buffer7mapHostENS1_6AccessE @ 1022
;	cv::ogl::Buffer::release()
	_ZN2cv3ogl6Buffer7releaseEv @ 1023
;	cv::ogl::Buffer::copyFrom(cv::_InputArray const&, cv::ogl::Buffer::Target, bool)
	_ZN2cv3ogl6Buffer8copyFromERKNS_11_InputArrayENS1_6TargetEb @ 1024
;	cv::ogl::Buffer::mapDevice()
	_ZN2cv3ogl6Buffer9mapDeviceEv @ 1025
;	cv::ogl::Buffer::unmapHost()
	_ZN2cv3ogl6Buffer9unmapHostEv @ 1026
;	cv::ogl::Buffer::Buffer(cv::Size_<int>, int, cv::ogl::Buffer::Target, bool)
	_ZN2cv3ogl6BufferC1ENS_5Size_IiEEiNS1_6TargetEb @ 1027
;	cv::ogl::Buffer::Buffer(cv::Size_<int>, int, unsigned int, bool)
	_ZN2cv3ogl6BufferC1ENS_5Size_IiEEijb @ 1028
;	cv::ogl::Buffer::Buffer(cv::_InputArray const&, cv::ogl::Buffer::Target, bool)
	_ZN2cv3ogl6BufferC1ERKNS_11_InputArrayENS1_6TargetEb @ 1029
;	cv::ogl::Buffer::Buffer(int, int, int, cv::ogl::Buffer::Target, bool)
	_ZN2cv3ogl6BufferC1EiiiNS1_6TargetEb @ 1030
;	cv::ogl::Buffer::Buffer(int, int, int, unsigned int, bool)
	_ZN2cv3ogl6BufferC1Eiiijb @ 1031
;	cv::ogl::Buffer::Buffer()
	_ZN2cv3ogl6BufferC1Ev @ 1032
;	cv::ogl::Buffer::Buffer(cv::Size_<int>, int, cv::ogl::Buffer::Target, bool)
	_ZN2cv3ogl6BufferC2ENS_5Size_IiEEiNS1_6TargetEb @ 1033
;	cv::ogl::Buffer::Buffer(cv::Size_<int>, int, unsigned int, bool)
	_ZN2cv3ogl6BufferC2ENS_5Size_IiEEijb @ 1034
;	cv::ogl::Buffer::Buffer(cv::_InputArray const&, cv::ogl::Buffer::Target, bool)
	_ZN2cv3ogl6BufferC2ERKNS_11_InputArrayENS1_6TargetEb @ 1035
;	cv::ogl::Buffer::Buffer(int, int, int, cv::ogl::Buffer::Target, bool)
	_ZN2cv3ogl6BufferC2EiiiNS1_6TargetEb @ 1036
;	cv::ogl::Buffer::Buffer(int, int, int, unsigned int, bool)
	_ZN2cv3ogl6BufferC2Eiiijb @ 1037
;	cv::ogl::Buffer::Buffer()
	_ZN2cv3ogl6BufferC2Ev @ 1038
;	cv::ogl::render(cv::ogl::Arrays const&, cv::_InputArray const&, int, cv::Scalar_<double>)
	_ZN2cv3ogl6renderERKNS0_6ArraysERKNS_11_InputArrayEiNS_7Scalar_IdEE @ 1039
;	cv::ogl::render(cv::ogl::Arrays const&, int, cv::Scalar_<double>)
	_ZN2cv3ogl6renderERKNS0_6ArraysEiNS_7Scalar_IdEE @ 1040
;	cv::ogl::render(cv::ogl::Texture2D const&, cv::Rect_<double>, cv::Rect_<double>)
	_ZN2cv3ogl6renderERKNS0_9Texture2DENS_5Rect_IdEES5_ @ 1041
;	cv::ogl::Texture2D::setAutoRelease(bool)
	_ZN2cv3ogl9Texture2D14setAutoReleaseEb @ 1042
;	cv::ogl::Texture2D::create(cv::Size_<int>, cv::ogl::Texture2D::Format, bool)
	_ZN2cv3ogl9Texture2D6createENS_5Size_IiEENS1_6FormatEb @ 1043
;	cv::ogl::Texture2D::create(int, int, cv::ogl::Texture2D::Format, bool)
	_ZN2cv3ogl9Texture2D6createEiiNS1_6FormatEb @ 1044
;	cv::ogl::Texture2D::release()
	_ZN2cv3ogl9Texture2D7releaseEv @ 1045
;	cv::ogl::Texture2D::copyFrom(cv::_InputArray const&, bool)
	_ZN2cv3ogl9Texture2D8copyFromERKNS_11_InputArrayEb @ 1046
;	cv::ogl::Texture2D::Texture2D(cv::Size_<int>, cv::ogl::Texture2D::Format, bool)
	_ZN2cv3ogl9Texture2DC1ENS_5Size_IiEENS1_6FormatEb @ 1047
;	cv::ogl::Texture2D::Texture2D(cv::Size_<int>, cv::ogl::Texture2D::Format, unsigned int, bool)
	_ZN2cv3ogl9Texture2DC1ENS_5Size_IiEENS1_6FormatEjb @ 1048
;	cv::ogl::Texture2D::Texture2D(cv::_InputArray const&, bool)
	_ZN2cv3ogl9Texture2DC1ERKNS_11_InputArrayEb @ 1049
;	cv::ogl::Texture2D::Texture2D(int, int, cv::ogl::Texture2D::Format, bool)
	_ZN2cv3ogl9Texture2DC1EiiNS1_6FormatEb @ 1050
;	cv::ogl::Texture2D::Texture2D(int, int, cv::ogl::Texture2D::Format, unsigned int, bool)
	_ZN2cv3ogl9Texture2DC1EiiNS1_6FormatEjb @ 1051
;	cv::ogl::Texture2D::Texture2D()
	_ZN2cv3ogl9Texture2DC1Ev @ 1052
;	cv::ogl::Texture2D::Texture2D(cv::Size_<int>, cv::ogl::Texture2D::Format, bool)
	_ZN2cv3ogl9Texture2DC2ENS_5Size_IiEENS1_6FormatEb @ 1053
;	cv::ogl::Texture2D::Texture2D(cv::Size_<int>, cv::ogl::Texture2D::Format, unsigned int, bool)
	_ZN2cv3ogl9Texture2DC2ENS_5Size_IiEENS1_6FormatEjb @ 1054
;	cv::ogl::Texture2D::Texture2D(cv::_InputArray const&, bool)
	_ZN2cv3ogl9Texture2DC2ERKNS_11_InputArrayEb @ 1055
;	cv::ogl::Texture2D::Texture2D(int, int, cv::ogl::Texture2D::Format, bool)
	_ZN2cv3ogl9Texture2DC2EiiNS1_6FormatEb @ 1056
;	cv::ogl::Texture2D::Texture2D(int, int, cv::ogl::Texture2D::Format, unsigned int, bool)
	_ZN2cv3ogl9Texture2DC2EiiNS1_6FormatEjb @ 1057
;	cv::ogl::Texture2D::Texture2D()
	_ZN2cv3ogl9Texture2DC2Ev @ 1058
;	cv::pow(cv::_InputArray const&, double, cv::_OutputArray const&)
	_ZN2cv3powERKNS_11_InputArrayEdRKNS_12_OutputArrayE @ 1059
;	cv::sum(cv::_InputArray const&)
	_ZN2cv3sumERKNS_11_InputArrayE @ 1060
;	cv::Matx<double, 2, 1>::Matx(double const*)
	_ZN2cv4MatxIdLi2ELi1EEC1EPKd @ 1061
;	cv::Matx<double, 2, 1>::Matx(double, double)
	_ZN2cv4MatxIdLi2ELi1EEC1Edd @ 1062
;	cv::Matx<double, 2, 1>::Matx(double const*)
	_ZN2cv4MatxIdLi2ELi1EEC2EPKd @ 1063
;	cv::Matx<double, 2, 1>::Matx(double, double)
	_ZN2cv4MatxIdLi2ELi1EEC2Edd @ 1064
;	cv::Matx<double, 3, 1>::Matx(double const*)
	_ZN2cv4MatxIdLi3ELi1EEC1EPKd @ 1065
;	cv::Matx<double, 3, 1>::Matx(double, double, double)
	_ZN2cv4MatxIdLi3ELi1EEC1Eddd @ 1066
;	cv::Matx<double, 3, 1>::Matx(double const*)
	_ZN2cv4MatxIdLi3ELi1EEC2EPKd @ 1067
;	cv::Matx<double, 3, 1>::Matx(double, double, double)
	_ZN2cv4MatxIdLi3ELi1EEC2Eddd @ 1068
;	cv::Matx<double, 4, 1>::Matx(double const*)
	_ZN2cv4MatxIdLi4ELi1EEC1EPKd @ 1069
;	cv::Matx<double, 4, 1>::Matx(double, double, double, double)
	_ZN2cv4MatxIdLi4ELi1EEC1Edddd @ 1070
;	cv::Matx<double, 4, 1>::Matx()
	_ZN2cv4MatxIdLi4ELi1EEC1Ev @ 1071
;	cv::Matx<double, 4, 1>::Matx(double const*)
	_ZN2cv4MatxIdLi4ELi1EEC2EPKd @ 1072
;	cv::Matx<double, 4, 1>::Matx(double, double, double, double)
	_ZN2cv4MatxIdLi4ELi1EEC2Edddd @ 1073
;	cv::Matx<double, 4, 1>::Matx()
	_ZN2cv4MatxIdLi4ELi1EEC2Ev @ 1074
;	cv::Matx<float, 2, 1>::Matx(float const*)
	_ZN2cv4MatxIfLi2ELi1EEC1EPKf @ 1075
;	cv::Matx<float, 2, 1>::Matx(float, float)
	_ZN2cv4MatxIfLi2ELi1EEC1Eff @ 1076
;	cv::Matx<float, 2, 1>::Matx()
	_ZN2cv4MatxIfLi2ELi1EEC1Ev @ 1077
;	cv::Matx<float, 2, 1>::Matx(float const*)
	_ZN2cv4MatxIfLi2ELi1EEC2EPKf @ 1078
;	cv::Matx<float, 2, 1>::Matx(float, float)
	_ZN2cv4MatxIfLi2ELi1EEC2Eff @ 1079
;	cv::Matx<float, 2, 1>::Matx()
	_ZN2cv4MatxIfLi2ELi1EEC2Ev @ 1080
;	cv::Matx<float, 3, 1>::Matx(float const*)
	_ZN2cv4MatxIfLi3ELi1EEC1EPKf @ 1081
;	cv::Matx<float, 3, 1>::Matx(float, float, float)
	_ZN2cv4MatxIfLi3ELi1EEC1Efff @ 1082
;	cv::Matx<float, 3, 1>::Matx(float const*)
	_ZN2cv4MatxIfLi3ELi1EEC2EPKf @ 1083
;	cv::Matx<float, 3, 1>::Matx(float, float, float)
	_ZN2cv4MatxIfLi3ELi1EEC2Efff @ 1084
;	cv::Matx<float, 4, 1>::Matx(float const*)
	_ZN2cv4MatxIfLi4ELi1EEC1EPKf @ 1085
;	cv::Matx<float, 4, 1>::Matx(float, float, float, float)
	_ZN2cv4MatxIfLi4ELi1EEC1Effff @ 1086
;	cv::Matx<float, 4, 1>::Matx(float const*)
	_ZN2cv4MatxIfLi4ELi1EEC2EPKf @ 1087
;	cv::Matx<float, 4, 1>::Matx(float, float, float, float)
	_ZN2cv4MatxIfLi4ELi1EEC2Effff @ 1088
;	cv::Matx<unsigned char, 2, 1>::Matx(unsigned char const*)
	_ZN2cv4MatxIhLi2ELi1EEC1EPKh @ 1089
;	cv::Matx<unsigned char, 2, 1>::Matx()
	_ZN2cv4MatxIhLi2ELi1EEC1Ev @ 1090
;	cv::Matx<unsigned char, 2, 1>::Matx(unsigned char const*)
	_ZN2cv4MatxIhLi2ELi1EEC2EPKh @ 1091
;	cv::Matx<unsigned char, 2, 1>::Matx()
	_ZN2cv4MatxIhLi2ELi1EEC2Ev @ 1092
;	cv::Matx<unsigned char, 3, 1>::Matx(unsigned char const*)
	_ZN2cv4MatxIhLi3ELi1EEC1EPKh @ 1093
;	cv::Matx<unsigned char, 3, 1>::Matx()
	_ZN2cv4MatxIhLi3ELi1EEC1Ev @ 1094
;	cv::Matx<unsigned char, 3, 1>::Matx(unsigned char const*)
	_ZN2cv4MatxIhLi3ELi1EEC2EPKh @ 1095
;	cv::Matx<unsigned char, 3, 1>::Matx()
	_ZN2cv4MatxIhLi3ELi1EEC2Ev @ 1096
;	cv::Matx<int, 128, 1>::Matx(int const*)
	_ZN2cv4MatxIiLi128ELi1EEC1EPKi @ 1097
;	cv::Matx<int, 128, 1>::Matx()
	_ZN2cv4MatxIiLi128ELi1EEC1Ev @ 1098
;	cv::Matx<int, 128, 1>::Matx(int const*)
	_ZN2cv4MatxIiLi128ELi1EEC2EPKi @ 1099
;	cv::Matx<int, 128, 1>::Matx()
	_ZN2cv4MatxIiLi128ELi1EEC2Ev @ 1100
;	cv::Matx<int, 12, 1>::Matx(int const*)
	_ZN2cv4MatxIiLi12ELi1EEC1EPKi @ 1101
;	cv::Matx<int, 12, 1>::Matx()
	_ZN2cv4MatxIiLi12ELi1EEC1Ev @ 1102
;	cv::Matx<int, 12, 1>::Matx(int const*)
	_ZN2cv4MatxIiLi12ELi1EEC2EPKi @ 1103
;	cv::Matx<int, 12, 1>::Matx()
	_ZN2cv4MatxIiLi12ELi1EEC2Ev @ 1104
;	cv::Matx<int, 16, 1>::Matx(int const*)
	_ZN2cv4MatxIiLi16ELi1EEC1EPKi @ 1105
;	cv::Matx<int, 16, 1>::Matx()
	_ZN2cv4MatxIiLi16ELi1EEC1Ev @ 1106
;	cv::Matx<int, 16, 1>::Matx(int const*)
	_ZN2cv4MatxIiLi16ELi1EEC2EPKi @ 1107
;	cv::Matx<int, 16, 1>::Matx()
	_ZN2cv4MatxIiLi16ELi1EEC2Ev @ 1108
;	cv::Matx<int, 2, 1>::Matx(int const*)
	_ZN2cv4MatxIiLi2ELi1EEC1EPKi @ 1109
;	cv::Matx<int, 2, 1>::Matx()
	_ZN2cv4MatxIiLi2ELi1EEC1Ev @ 1110
;	cv::Matx<int, 2, 1>::Matx(int const*)
	_ZN2cv4MatxIiLi2ELi1EEC2EPKi @ 1111
;	cv::Matx<int, 2, 1>::Matx()
	_ZN2cv4MatxIiLi2ELi1EEC2Ev @ 1112
;	cv::Matx<int, 32, 1>::Matx(int const*)
	_ZN2cv4MatxIiLi32ELi1EEC1EPKi @ 1113
;	cv::Matx<int, 32, 1>::Matx()
	_ZN2cv4MatxIiLi32ELi1EEC1Ev @ 1114
;	cv::Matx<int, 32, 1>::Matx(int const*)
	_ZN2cv4MatxIiLi32ELi1EEC2EPKi @ 1115
;	cv::Matx<int, 32, 1>::Matx()
	_ZN2cv4MatxIiLi32ELi1EEC2Ev @ 1116
;	cv::Matx<int, 3, 1>::Matx(int const*)
	_ZN2cv4MatxIiLi3ELi1EEC1EPKi @ 1117
;	cv::Matx<int, 3, 1>::Matx()
	_ZN2cv4MatxIiLi3ELi1EEC1Ev @ 1118
;	cv::Matx<int, 3, 1>::Matx(int const*)
	_ZN2cv4MatxIiLi3ELi1EEC2EPKi @ 1119
;	cv::Matx<int, 3, 1>::Matx()
	_ZN2cv4MatxIiLi3ELi1EEC2Ev @ 1120
;	cv::Matx<int, 4, 1>::Matx(int const*)
	_ZN2cv4MatxIiLi4ELi1EEC1EPKi @ 1121
;	cv::Matx<int, 4, 1>::Matx()
	_ZN2cv4MatxIiLi4ELi1EEC1Ev @ 1122
;	cv::Matx<int, 4, 1>::Matx(int const*)
	_ZN2cv4MatxIiLi4ELi1EEC2EPKi @ 1123
;	cv::Matx<int, 4, 1>::Matx()
	_ZN2cv4MatxIiLi4ELi1EEC2Ev @ 1124
;	cv::Matx<int, 64, 1>::Matx(int const*)
	_ZN2cv4MatxIiLi64ELi1EEC1EPKi @ 1125
;	cv::Matx<int, 64, 1>::Matx()
	_ZN2cv4MatxIiLi64ELi1EEC1Ev @ 1126
;	cv::Matx<int, 64, 1>::Matx(int const*)
	_ZN2cv4MatxIiLi64ELi1EEC2EPKi @ 1127
;	cv::Matx<int, 64, 1>::Matx()
	_ZN2cv4MatxIiLi64ELi1EEC2Ev @ 1128
;	cv::Matx<int, 6, 1>::Matx(int const*)
	_ZN2cv4MatxIiLi6ELi1EEC1EPKi @ 1129
;	cv::Matx<int, 6, 1>::Matx()
	_ZN2cv4MatxIiLi6ELi1EEC1Ev @ 1130
;	cv::Matx<int, 6, 1>::Matx(int const*)
	_ZN2cv4MatxIiLi6ELi1EEC2EPKi @ 1131
;	cv::Matx<int, 6, 1>::Matx()
	_ZN2cv4MatxIiLi6ELi1EEC2Ev @ 1132
;	cv::Matx<int, 8, 1>::Matx(int const*)
	_ZN2cv4MatxIiLi8ELi1EEC1EPKi @ 1133
;	cv::Matx<int, 8, 1>::Matx()
	_ZN2cv4MatxIiLi8ELi1EEC1Ev @ 1134
;	cv::Matx<int, 8, 1>::Matx(int const*)
	_ZN2cv4MatxIiLi8ELi1EEC2EPKi @ 1135
;	cv::Matx<int, 8, 1>::Matx()
	_ZN2cv4MatxIiLi8ELi1EEC2Ev @ 1136
;	cv::Matx<int, 9, 1>::Matx(int const*)
	_ZN2cv4MatxIiLi9ELi1EEC1EPKi @ 1137
;	cv::Matx<int, 9, 1>::Matx()
	_ZN2cv4MatxIiLi9ELi1EEC1Ev @ 1138
;	cv::Matx<int, 9, 1>::Matx(int const*)
	_ZN2cv4MatxIiLi9ELi1EEC2EPKi @ 1139
;	cv::Matx<int, 9, 1>::Matx()
	_ZN2cv4MatxIiLi9ELi1EEC2Ev @ 1140
;	cv::Matx<short, 3, 1>::Matx(short const*)
	_ZN2cv4MatxIsLi3ELi1EEC1EPKs @ 1141
;	cv::Matx<short, 3, 1>::Matx()
	_ZN2cv4MatxIsLi3ELi1EEC1Ev @ 1142
;	cv::Matx<short, 3, 1>::Matx(short const*)
	_ZN2cv4MatxIsLi3ELi1EEC2EPKs @ 1143
;	cv::Matx<short, 3, 1>::Matx()
	_ZN2cv4MatxIsLi3ELi1EEC2Ev @ 1144
;	cv::Matx<unsigned short, 3, 1>::Matx(unsigned short const*)
	_ZN2cv4MatxItLi3ELi1EEC1EPKt @ 1145
;	cv::Matx<unsigned short, 3, 1>::Matx(unsigned short const*)
	_ZN2cv4MatxItLi3ELi1EEC2EPKt @ 1146
;	cv::flip(cv::_InputArray const&, cv::_OutputArray const&, int)
	_ZN2cv4flipERKNS_11_InputArrayERKNS_12_OutputArrayEi @ 1147
;	cv::gemm(cv::_InputArray const&, cv::_InputArray const&, double, cv::_InputArray const&, double, cv::_OutputArray const&, int)
	_ZN2cv4gemmERKNS_11_InputArrayES2_dS2_dRKNS_12_OutputArrayEi @ 1148
;	cv::idct(cv::_InputArray const&, cv::_OutputArray const&, int)
	_ZN2cv4idctERKNS_11_InputArrayERKNS_12_OutputArrayEi @ 1149
;	cv::idft(cv::_InputArray const&, cv::_OutputArray const&, int, int)
	_ZN2cv4idftERKNS_11_InputArrayERKNS_12_OutputArrayEii @ 1150
;	cv::line(cv::Mat&, cv::Point_<int>, cv::Point_<int>, cv::Scalar_<double> const&, int, int, int)
	_ZN2cv4lineERNS_3MatENS_6Point_IiEES3_RKNS_7Scalar_IdEEiii @ 1151
;	cv::mean(cv::_InputArray const&, cv::_InputArray const&)
	_ZN2cv4meanERKNS_11_InputArrayES2_ @ 1152
;	cv::norm(cv::_InputArray const&, cv::_InputArray const&, int, cv::_InputArray const&)
	_ZN2cv4normERKNS_11_InputArrayES2_iS2_ @ 1153
;	cv::norm(cv::_InputArray const&, int, cv::_InputArray const&)
	_ZN2cv4normERKNS_11_InputArrayEiS2_ @ 1154
;	cv::norm(cv::SparseMat const&, int)
	_ZN2cv4normERKNS_9SparseMatEi @ 1155
;	cv::read(cv::FileNode const&, cv::Mat&, cv::Mat const&)
	_ZN2cv4readERKNS_8FileNodeERNS_3MatERKS3_ @ 1156
;	cv::read(cv::FileNode const&, cv::SparseMat&, cv::SparseMat const&)
	_ZN2cv4readERKNS_8FileNodeERNS_9SparseMatERKS3_ @ 1157
;	cv::sort(cv::_InputArray const&, cv::_OutputArray const&, int)
	_ZN2cv4sortERKNS_11_InputArrayERKNS_12_OutputArrayEi @ 1158
;	cv::sqrt(cv::_InputArray const&, cv::_OutputArray const&)
	_ZN2cv4sqrtERKNS_11_InputArrayERKNS_12_OutputArrayE @ 1159
;	cv::swap(cv::Mat&, cv::Mat&)
	_ZN2cv4swapERNS_3MatES1_ @ 1160
;	cv::MatOp::MatOp()
	_ZN2cv5MatOpC1Ev @ 1161
;	cv::MatOp::MatOp()
	_ZN2cv5MatOpC2Ev @ 1162
;	cv::MatOp::~MatOp()
	_ZN2cv5MatOpD0Ev @ 1163
;	cv::MatOp::~MatOp()
	_ZN2cv5MatOpD1Ev @ 1164
;	cv::MatOp::~MatOp()
	_ZN2cv5MatOpD2Ev @ 1165
;	cv::Mutex::lock()
	_ZN2cv5Mutex4lockEv @ 1166
;	cv::Mutex::unlock()
	_ZN2cv5Mutex6unlockEv @ 1167
;	cv::Mutex::trylock()
	_ZN2cv5Mutex7trylockEv @ 1168
;	cv::Mutex::Mutex(cv::Mutex const&)
	_ZN2cv5MutexC1ERKS0_ @ 1169
;	cv::Mutex::Mutex()
	_ZN2cv5MutexC1Ev @ 1170
;	cv::Mutex::Mutex(cv::Mutex const&)
	_ZN2cv5MutexC2ERKS0_ @ 1171
;	cv::Mutex::Mutex()
	_ZN2cv5MutexC2Ev @ 1172
;	cv::Mutex::~Mutex()
	_ZN2cv5MutexD1Ev @ 1173
;	cv::Mutex::~Mutex()
	_ZN2cv5MutexD2Ev @ 1174
;	cv::Mutex::operator=(cv::Mutex const&)
	_ZN2cv5MutexaSERKS0_ @ 1175
;	cv::Param::Param(int, bool, int, int (cv::Algorithm::*)() const, void (cv::Algorithm::*)(int), std::string const&)
	_ZN2cv5ParamC1EibiMNS_9AlgorithmEKFivEMS1_FviERKSs @ 1176
;	cv::Param::Param()
	_ZN2cv5ParamC1Ev @ 1177
;	cv::Param::Param(int, bool, int, int (cv::Algorithm::*)() const, void (cv::Algorithm::*)(int), std::string const&)
	_ZN2cv5ParamC2EibiMNS_9AlgorithmEKFivEMS1_FviERKSs @ 1178
;	cv::Param::Param()
	_ZN2cv5ParamC2Ev @ 1179
;	cv::Range::all()
	_ZN2cv5Range3allEv @ 1180
;	cv::Range::Range(CvSlice const&)
	_ZN2cv5RangeC1ERK7CvSlice @ 1181
;	cv::Range::Range(int, int)
	_ZN2cv5RangeC1Eii @ 1182
;	cv::Range::Range()
	_ZN2cv5RangeC1Ev @ 1183
;	cv::Range::Range(CvSlice const&)
	_ZN2cv5RangeC2ERK7CvSlice @ 1184
;	cv::Range::Range(int, int)
	_ZN2cv5RangeC2Eii @ 1185
;	cv::Range::Range()
	_ZN2cv5RangeC2Ev @ 1186
;	cv::Rect_<double>::Rect_(double, double, double, double)
	_ZN2cv5Rect_IdEC1Edddd @ 1187
;	cv::Rect_<double>::Rect_(double, double, double, double)
	_ZN2cv5Rect_IdEC2Edddd @ 1188
;	cv::Rect_<int>::Rect_(CvRect const&)
	_ZN2cv5Rect_IiEC1ERK6CvRect @ 1189
;	cv::Rect_<int>::Rect_(cv::Rect_<int> const&)
	_ZN2cv5Rect_IiEC1ERKS1_ @ 1190
;	cv::Rect_<int>::Rect_(int, int, int, int)
	_ZN2cv5Rect_IiEC1Eiiii @ 1191
;	cv::Rect_<int>::Rect_(CvRect const&)
	_ZN2cv5Rect_IiEC2ERK6CvRect @ 1192
;	cv::Rect_<int>::Rect_(cv::Rect_<int> const&)
	_ZN2cv5Rect_IiEC2ERKS1_ @ 1193
;	cv::Rect_<int>::Rect_(int, int, int, int)
	_ZN2cv5Rect_IiEC2Eiiii @ 1194
;	cv::Size_<float>::Size_(CvSize2D32f const&)
	_ZN2cv5Size_IfEC1ERK11CvSize2D32f @ 1195
;	cv::Size_<float>::Size_(cv::Size_<float> const&)
	_ZN2cv5Size_IfEC1ERKS1_ @ 1196
;	cv::Size_<float>::Size_()
	_ZN2cv5Size_IfEC1Ev @ 1197
;	cv::Size_<float>::Size_(CvSize2D32f const&)
	_ZN2cv5Size_IfEC2ERK11CvSize2D32f @ 1198
;	cv::Size_<float>::Size_(cv::Size_<float> const&)
	_ZN2cv5Size_IfEC2ERKS1_ @ 1199
;	cv::Size_<float>::Size_()
	_ZN2cv5Size_IfEC2Ev @ 1200
;	cv::Size_<int>::Size_(CvSize const&)
	_ZN2cv5Size_IiEC1ERK6CvSize @ 1201
;	cv::Size_<int>::Size_(cv::Size_<int> const&)
	_ZN2cv5Size_IiEC1ERKS1_ @ 1202
;	cv::Size_<int>::Size_(int, int)
	_ZN2cv5Size_IiEC1Eii @ 1203
;	cv::Size_<int>::Size_()
	_ZN2cv5Size_IiEC1Ev @ 1204
;	cv::Size_<int>::Size_(CvSize const&)
	_ZN2cv5Size_IiEC2ERK6CvSize @ 1205
;	cv::Size_<int>::Size_(cv::Size_<int> const&)
	_ZN2cv5Size_IiEC2ERKS1_ @ 1206
;	cv::Size_<int>::Size_(int, int)
	_ZN2cv5Size_IiEC2Eii @ 1207
;	cv::Size_<int>::Size_()
	_ZN2cv5Size_IiEC2Ev @ 1208
;	cv::Size_<int>::operator=(cv::Size_<int> const&)
	_ZN2cv5Size_IiEaSERKS1_ @ 1209
;	cv::eigen(cv::_InputArray const&, cv::_OutputArray const&, cv::_OutputArray const&, int, int)
	_ZN2cv5eigenERKNS_11_InputArrayERKNS_12_OutputArrayES5_ii @ 1210
;	cv::eigen(cv::_InputArray const&, cv::_OutputArray const&, int, int)
	_ZN2cv5eigenERKNS_11_InputArrayERKNS_12_OutputArrayEii @ 1211
;	cv::eigen(cv::_InputArray const&, bool, cv::_OutputArray const&, cv::_OutputArray const&)
	_ZN2cv5eigenERKNS_11_InputArrayEbRKNS_12_OutputArrayES5_ @ 1212
;	cv::error(cv::Exception const&)
	_ZN2cv5errorERKNS_9ExceptionE @ 1213
;	cv::merge(cv::Mat const*, unsigned long long, cv::_OutputArray const&)
	_ZN2cv5mergeEPKNS_3MatEyRKNS_12_OutputArrayE @ 1214
;	cv::merge(cv::_InputArray const&, cv::_OutputArray const&)
	_ZN2cv5mergeERKNS_11_InputArrayERKNS_12_OutputArrayE @ 1215
;	cv::merge(std::vector<cv::Mat, std::allocator<cv::Mat> > const&, cv::_OutputArray const&)
	_ZN2cv5mergeERKSt6vectorINS_3MatESaIS1_EERKNS_12_OutputArrayE @ 1216
;	cv::phase(cv::_InputArray const&, cv::_InputArray const&, cv::_OutputArray const&, bool)
	_ZN2cv5phaseERKNS_11_InputArrayES2_RKNS_12_OutputArrayEb @ 1217
;	cv::randn(cv::_OutputArray const&, cv::_InputArray const&, cv::_InputArray const&)
	_ZN2cv5randnERKNS_12_OutputArrayERKNS_11_InputArrayES5_ @ 1218
;	cv::randu(cv::_OutputArray const&, cv::_InputArray const&, cv::_InputArray const&)
	_ZN2cv5randuERKNS_12_OutputArrayERKNS_11_InputArrayES5_ @ 1219
;	cv::solve(cv::_InputArray const&, cv::_InputArray const&, cv::_OutputArray const&, int)
	_ZN2cv5solveERKNS_11_InputArrayES2_RKNS_12_OutputArrayEi @ 1220
;	cv::split(cv::_InputArray const&, cv::_OutputArray const&)
	_ZN2cv5splitERKNS_11_InputArrayERKNS_12_OutputArrayE @ 1221
;	cv::split(cv::Mat const&, cv::Mat*)
	_ZN2cv5splitERKNS_3MatEPS0_ @ 1222
;	cv::split(cv::Mat const&, std::vector<cv::Mat, std::allocator<cv::Mat> >&)
	_ZN2cv5splitERKNS_3MatERSt6vectorIS0_SaIS0_EE @ 1223
;	cv::trace(cv::_InputArray const&)
	_ZN2cv5traceERKNS_11_InputArrayE @ 1224
;	cv::write(cv::FileStorage&, std::string const&, cv::Mat const&)
	_ZN2cv5writeERNS_11FileStorageERKSsRKNS_3MatE @ 1225
;	cv::write(cv::FileStorage&, std::string const&, cv::SparseMat const&)
	_ZN2cv5writeERNS_11FileStorageERKSsRKNS_9SparseMatE @ 1226
;	cv::write(cv::FileStorage&, std::string const&, std::string const&)
	_ZN2cv5writeERNS_11FileStorageERKSsS3_ @ 1227
;	cv::write(cv::FileStorage&, std::string const&, double)
	_ZN2cv5writeERNS_11FileStorageERKSsd @ 1228
;	cv::write(cv::FileStorage&, std::string const&, float)
	_ZN2cv5writeERNS_11FileStorageERKSsf @ 1229
;	cv::write(cv::FileStorage&, std::string const&, int)
	_ZN2cv5writeERNS_11FileStorageERKSsi @ 1230
;	cv::GlFont::get(std::string const&, int, cv::GlFont::Weight, cv::GlFont::Style)
	_ZN2cv6GlFont3getERKSsiNS0_6WeightENS0_5StyleE @ 1231
;	cv::GlFont::GlFont(std::string const&, int, cv::GlFont::Weight, cv::GlFont::Style)
	_ZN2cv6GlFontC1ERKSsiNS0_6WeightENS0_5StyleE @ 1232
;	cv::GlFont::GlFont(std::string const&, int, cv::GlFont::Weight, cv::GlFont::Style)
	_ZN2cv6GlFontC2ERKSsiNS0_6WeightENS0_5StyleE @ 1233
;	cv::KDTree::build(cv::_InputArray const&, cv::_InputArray const&, bool)
	_ZN2cv6KDTree5buildERKNS_11_InputArrayES3_b @ 1234
;	cv::KDTree::build(cv::_InputArray const&, bool)
	_ZN2cv6KDTree5buildERKNS_11_InputArrayEb @ 1235
;	cv::KDTree::KDTree(cv::_InputArray const&, cv::_InputArray const&, bool)
	_ZN2cv6KDTreeC1ERKNS_11_InputArrayES3_b @ 1236
;	cv::KDTree::KDTree(cv::_InputArray const&, bool)
	_ZN2cv6KDTreeC1ERKNS_11_InputArrayEb @ 1237
;	cv::KDTree::KDTree()
	_ZN2cv6KDTreeC1Ev @ 1238
;	cv::KDTree::KDTree(cv::_InputArray const&, cv::_InputArray const&, bool)
	_ZN2cv6KDTreeC2ERKNS_11_InputArrayES3_b @ 1239
;	cv::KDTree::KDTree(cv::_InputArray const&, bool)
	_ZN2cv6KDTreeC2ERKNS_11_InputArrayEb @ 1240
;	cv::KDTree::KDTree()
	_ZN2cv6KDTreeC2Ev @ 1241
;	cv::Point_<float>::Point_(CvPoint2D32f const&)
	_ZN2cv6Point_IfEC1ERK12CvPoint2D32f @ 1242
;	cv::Point_<float>::Point_(cv::Point_<float> const&)
	_ZN2cv6Point_IfEC1ERKS1_ @ 1243
;	cv::Point_<float>::Point_()
	_ZN2cv6Point_IfEC1Ev @ 1244
;	cv::Point_<float>::Point_(CvPoint2D32f const&)
	_ZN2cv6Point_IfEC2ERK12CvPoint2D32f @ 1245
;	cv::Point_<float>::Point_(cv::Point_<float> const&)
	_ZN2cv6Point_IfEC2ERKS1_ @ 1246
;	cv::Point_<float>::Point_()
	_ZN2cv6Point_IfEC2Ev @ 1247
;	cv::Point_<int>::Point_(CvPoint const&)
	_ZN2cv6Point_IiEC1ERK7CvPoint @ 1248
;	cv::Point_<int>::Point_(cv::Point_<int> const&)
	_ZN2cv6Point_IiEC1ERKS1_ @ 1249
;	cv::Point_<int>::Point_(int, int)
	_ZN2cv6Point_IiEC1Eii @ 1250
;	cv::Point_<int>::Point_()
	_ZN2cv6Point_IiEC1Ev @ 1251
;	cv::Point_<int>::Point_(CvPoint const&)
	_ZN2cv6Point_IiEC2ERK7CvPoint @ 1252
;	cv::Point_<int>::Point_(cv::Point_<int> const&)
	_ZN2cv6Point_IiEC2ERKS1_ @ 1253
;	cv::Point_<int>::Point_(int, int)
	_ZN2cv6Point_IiEC2Eii @ 1254
;	cv::Point_<int>::Point_()
	_ZN2cv6Point_IiEC2Ev @ 1255
;	cv::Point_<int>::operator=(cv::Point_<int> const&)
	_ZN2cv6Point_IiEaSERKS1_ @ 1256
;	cv::circle(cv::Mat&, cv::Point_<int>, int, cv::Scalar_<double> const&, int, int, int)
	_ZN2cv6circleERNS_3MatENS_6Point_IiEEiRKNS_7Scalar_IdEEiii @ 1257
;	cv::divide(cv::_InputArray const&, cv::_InputArray const&, cv::_OutputArray const&, double, int)
	_ZN2cv6divideERKNS_11_InputArrayES2_RKNS_12_OutputArrayEdi @ 1258
;	cv::divide(double, cv::_InputArray const&, cv::_OutputArray const&, int)
	_ZN2cv6divideEdRKNS_11_InputArrayERKNS_12_OutputArrayEi @ 1259
;	cv::format(char const*, ...)
	_ZN2cv6formatEPKcz @ 1260
;	cv::invert(cv::_InputArray const&, cv::_OutputArray const&, int)
	_ZN2cv6invertERKNS_11_InputArrayERKNS_12_OutputArrayEi @ 1261
;	cv::kmeans(cv::_InputArray const&, int, cv::_OutputArray const&, cv::TermCriteria, int, int, cv::_OutputArray const&)
	_ZN2cv6kmeansERKNS_11_InputArrayEiRKNS_12_OutputArrayENS_12TermCriteriaEiiS5_ @ 1262
;	cv::reduce(cv::_InputArray const&, cv::_OutputArray const&, int, int, int)
	_ZN2cv6reduceERKNS_11_InputArrayERKNS_12_OutputArrayEiii @ 1263
;	cv::render(cv::GlArrays const&, int, cv::Scalar_<double>)
	_ZN2cv6renderERKNS_8GlArraysEiNS_7Scalar_IdEE @ 1264
;	cv::render(cv::GlTexture const&, cv::Rect_<double>, cv::Rect_<double>)
	_ZN2cv6renderERKNS_9GlTextureENS_5Rect_IdEES4_ @ 1265
;	cv::render(std::string const&, cv::Ptr<cv::GlFont> const&, cv::Scalar_<double>, cv::Point_<double>)
	_ZN2cv6renderERKSsRKNS_3PtrINS_6GlFontEEENS_7Scalar_IdEENS_6Point_IdEE @ 1266
;	cv::repeat(cv::_InputArray const&, int, int, cv::_OutputArray const&)
	_ZN2cv6repeatERKNS_11_InputArrayEiiRKNS_12_OutputArrayE @ 1267
;	cv::repeat(cv::Mat const&, int, int)
	_ZN2cv6repeatERKNS_3MatEii @ 1268
;	cv::seqPop(CvSeq*, void*)
	_ZN2cv6seqPopEP5CvSeqPv @ 1269
;	cv::theRNG()
	_ZN2cv6theRNGEv @ 1270
;	cv::Complex<double>::Complex(double, double)
	_ZN2cv7ComplexIdEC1Edd @ 1271
;	cv::Complex<double>::Complex()
	_ZN2cv7ComplexIdEC1Ev @ 1272
;	cv::Complex<double>::Complex(double, double)
	_ZN2cv7ComplexIdEC2Edd @ 1273
;	cv::Complex<double>::Complex()
	_ZN2cv7ComplexIdEC2Ev @ 1274
;	cv::Complex<float>::Complex(float, float)
	_ZN2cv7ComplexIfEC1Eff @ 1275
;	cv::Complex<float>::Complex()
	_ZN2cv7ComplexIfEC1Ev @ 1276
;	cv::Complex<float>::Complex(float, float)
	_ZN2cv7ComplexIfEC2Eff @ 1277
;	cv::Complex<float>::Complex()
	_ZN2cv7ComplexIfEC2Ev @ 1278
;	cv::MatExpr::MatExpr(cv::MatOp const*, int, cv::Mat const&, cv::Mat const&, cv::Mat const&, double, double, cv::Scalar_<double> const&)
	_ZN2cv7MatExprC1EPKNS_5MatOpEiRKNS_3MatES6_S6_ddRKNS_7Scalar_IdEE @ 1279
;	cv::MatExpr::MatExpr(cv::Mat const&)
	_ZN2cv7MatExprC1ERKNS_3MatE @ 1280
;	cv::MatExpr::MatExpr()
	_ZN2cv7MatExprC1Ev @ 1281
;	cv::MatExpr::MatExpr(cv::MatOp const*, int, cv::Mat const&, cv::Mat const&, cv::Mat const&, double, double, cv::Scalar_<double> const&)
	_ZN2cv7MatExprC2EPKNS_5MatOpEiRKNS_3MatES6_S6_ddRKNS_7Scalar_IdEE @ 1282
;	cv::MatExpr::MatExpr(cv::Mat const&)
	_ZN2cv7MatExprC2ERKNS_3MatE @ 1283
;	cv::MatExpr::MatExpr()
	_ZN2cv7MatExprC2Ev @ 1284
;	cv::MatExpr::~MatExpr()
	_ZN2cv7MatExprD1Ev @ 1285
;	cv::MatOp_T::makeExpr(cv::MatExpr&, cv::Mat const&, double)
	_ZN2cv7MatOp_T8makeExprERNS_7MatExprERKNS_3MatEd @ 1286
;	cv::MatOp_T::~MatOp_T()
	_ZN2cv7MatOp_TD0Ev @ 1287
;	cv::MatOp_T::~MatOp_T()
	_ZN2cv7MatOp_TD1Ev @ 1288
;	cv::Point3_<double>::Point3_(double, double, double)
	_ZN2cv7Point3_IdEC1Eddd @ 1289
;	cv::Point3_<double>::Point3_(double, double, double)
	_ZN2cv7Point3_IdEC2Eddd @ 1290
;	cv::Scalar_<double>::all(double)
	_ZN2cv7Scalar_IdE3allEd @ 1291
;	cv::Scalar_<double>::Scalar_(CvScalar const&)
	_ZN2cv7Scalar_IdEC1ERK8CvScalar @ 1292
;	cv::Scalar_<double>::Scalar_(double)
	_ZN2cv7Scalar_IdEC1Ed @ 1293
;	cv::Scalar_<double>::Scalar_(double, double, double, double)
	_ZN2cv7Scalar_IdEC1Edddd @ 1294
;	cv::Scalar_<double>::Scalar_()
	_ZN2cv7Scalar_IdEC1Ev @ 1295
;	cv::Scalar_<double>::Scalar_(CvScalar const&)
	_ZN2cv7Scalar_IdEC2ERK8CvScalar @ 1296
;	cv::Scalar_<double>::Scalar_(double)
	_ZN2cv7Scalar_IdEC2Ed @ 1297
;	cv::Scalar_<double>::Scalar_(double, double, double, double)
	_ZN2cv7Scalar_IdEC2Edddd @ 1298
;	cv::Scalar_<double>::Scalar_()
	_ZN2cv7Scalar_IdEC2Ev @ 1299
;	cv::USE_AVX
	_ZN2cv7USE_AVXE @ 1300 DATA
;	cv::absdiff(cv::_InputArray const&, cv::_InputArray const&, cv::_OutputArray const&)
	_ZN2cv7absdiffERKNS_11_InputArrayES2_RKNS_12_OutputArrayE @ 1301
;	cv::compare(cv::_InputArray const&, cv::_InputArray const&, cv::_OutputArray const&, int)
	_ZN2cv7compareERKNS_11_InputArrayES2_RKNS_12_OutputArrayEi @ 1302
;	cv::ellipse(cv::Mat&, cv::Point_<int>, cv::Size_<int>, double, double, double, cv::Scalar_<double> const&, int, int, int)
	_ZN2cv7ellipseERNS_3MatENS_6Point_IiEENS_5Size_IiEEdddRKNS_7Scalar_IdEEiii @ 1303
;	cv::ellipse(cv::Mat&, cv::RotatedRect const&, cv::Scalar_<double> const&, int, int)
	_ZN2cv7ellipseERNS_3MatERKNS_11RotatedRectERKNS_7Scalar_IdEEii @ 1304
;	cv::hconcat(cv::Mat const*, unsigned long long, cv::_OutputArray const&)
	_ZN2cv7hconcatEPKNS_3MatEyRKNS_12_OutputArrayE @ 1305
;	cv::hconcat(cv::_InputArray const&, cv::_OutputArray const&)
	_ZN2cv7hconcatERKNS_11_InputArrayERKNS_12_OutputArrayE @ 1306
;	cv::hconcat(cv::_InputArray const&, cv::_InputArray const&, cv::_OutputArray const&)
	_ZN2cv7hconcatERKNS_11_InputArrayES2_RKNS_12_OutputArrayE @ 1307
;	cv::inRange(cv::_InputArray const&, cv::_InputArray const&, cv::_InputArray const&, cv::_OutputArray const&)
	_ZN2cv7inRangeERKNS_11_InputArrayES2_S2_RKNS_12_OutputArrayE @ 1308
;	cv::noArray()
	_ZN2cv7noArrayEv @ 1309
;	cv::normL1_(float const*, float const*, int)
	_ZN2cv7normL1_EPKfS1_i @ 1310
;	cv::normL1_(unsigned char const*, unsigned char const*, int)
	_ZN2cv7normL1_EPKhS1_i @ 1311
;	int cv::normL1_<signed char, int>(signed char const*, unsigned char const*, int*, int, int)
	_ZN2cv7normL1_IaiEEiPKT_PKhPT0_ii @ 1312
;	int cv::normL1_<double, double>(double const*, unsigned char const*, double*, int, int)
	_ZN2cv7normL1_IddEEiPKT_PKhPT0_ii @ 1313
;	int cv::normL1_<float, double>(float const*, unsigned char const*, double*, int, int)
	_ZN2cv7normL1_IfdEEiPKT_PKhPT0_ii @ 1314
;	int cv::normL1_<unsigned char, int>(unsigned char const*, unsigned char const*, int*, int, int)
	_ZN2cv7normL1_IhiEEiPKT_PKhPT0_ii @ 1315
;	int cv::normL1_<int, double>(int const*, unsigned char const*, double*, int, int)
	_ZN2cv7normL1_IidEEiPKT_PKhPT0_ii @ 1316
;	int cv::normL1_<short, int>(short const*, unsigned char const*, int*, int, int)
	_ZN2cv7normL1_IsiEEiPKT_PKhPT0_ii @ 1317
;	int cv::normL1_<unsigned short, int>(unsigned short const*, unsigned char const*, int*, int, int)
	_ZN2cv7normL1_ItiEEiPKT_PKhPT0_ii @ 1318
;	int cv::normL2_<signed char, int>(signed char const*, unsigned char const*, int*, int, int)
	_ZN2cv7normL2_IaiEEiPKT_PKhPT0_ii @ 1319
;	int cv::normL2_<double, double>(double const*, unsigned char const*, double*, int, int)
	_ZN2cv7normL2_IddEEiPKT_PKhPT0_ii @ 1320
;	int cv::normL2_<float, double>(float const*, unsigned char const*, double*, int, int)
	_ZN2cv7normL2_IfdEEiPKT_PKhPT0_ii @ 1321
;	int cv::normL2_<unsigned char, int>(unsigned char const*, unsigned char const*, int*, int, int)
	_ZN2cv7normL2_IhiEEiPKT_PKhPT0_ii @ 1322
;	int cv::normL2_<int, double>(int const*, unsigned char const*, double*, int, int)
	_ZN2cv7normL2_IidEEiPKT_PKhPT0_ii @ 1323
;	int cv::normL2_<short, double>(short const*, unsigned char const*, double*, int, int)
	_ZN2cv7normL2_IsdEEiPKT_PKhPT0_ii @ 1324
;	int cv::normL2_<unsigned short, double>(unsigned short const*, unsigned char const*, double*, int, int)
	_ZN2cv7normL2_ItdEEiPKT_PKhPT0_ii @ 1325
;	cv::putText(cv::Mat&, std::string const&, cv::Point_<int>, int, double, cv::Scalar_<double>, int, int, bool)
	_ZN2cv7putTextERNS_3MatERKSsNS_6Point_IiEEidNS_7Scalar_IdEEiib @ 1326
;	cv::seqPush(CvSeq*, void const*)
	_ZN2cv7seqPushEP5CvSeqPKv @ 1327
;	cv::sortIdx(cv::_InputArray const&, cv::_OutputArray const&, int)
	_ZN2cv7sortIdxERKNS_11_InputArrayERKNS_12_OutputArrayEi @ 1328
;	cv::toUtf16(std::string const&)
	_ZN2cv7toUtf16ERKSs @ 1329
;	void cv::vBinOp8<signed char, cv::OpAdd<signed char, signed char, signed char>, cv::_VAdd8s>(signed char const*, unsigned long long, signed char const*, unsigned long long, signed char*, unsigned long long, cv::Size_<int>)
	_ZN2cv7vBinOp8IaNS_5OpAddIaaaEENS_7_VAdd8sEEEvPKT_yS6_yPS4_yNS_5Size_IiEE @ 1330
;	void cv::vBinOp8<signed char, cv::OpMax<signed char>, cv::_VMax8s>(signed char const*, unsigned long long, signed char const*, unsigned long long, signed char*, unsigned long long, cv::Size_<int>)
	_ZN2cv7vBinOp8IaNS_5OpMaxIaEENS_7_VMax8sEEEvPKT_yS6_yPS4_yNS_5Size_IiEE @ 1331
;	void cv::vBinOp8<signed char, cv::OpMin<signed char>, cv::_VMin8s>(signed char const*, unsigned long long, signed char const*, unsigned long long, signed char*, unsigned long long, cv::Size_<int>)
	_ZN2cv7vBinOp8IaNS_5OpMinIaEENS_7_VMin8sEEEvPKT_yS6_yPS4_yNS_5Size_IiEE @ 1332
;	void cv::vBinOp8<signed char, cv::OpSub<signed char, signed char, signed char>, cv::_VSub8s>(signed char const*, unsigned long long, signed char const*, unsigned long long, signed char*, unsigned long long, cv::Size_<int>)
	_ZN2cv7vBinOp8IaNS_5OpSubIaaaEENS_7_VSub8sEEEvPKT_yS6_yPS4_yNS_5Size_IiEE @ 1333
;	void cv::vBinOp8<signed char, cv::OpAbsDiff<signed char>, cv::_VAbsDiff8s>(signed char const*, unsigned long long, signed char const*, unsigned long long, signed char*, unsigned long long, cv::Size_<int>)
	_ZN2cv7vBinOp8IaNS_9OpAbsDiffIaEENS_11_VAbsDiff8sEEEvPKT_yS6_yPS4_yNS_5Size_IiEE @ 1334
;	void cv::vBinOp8<unsigned char, cv::OpOr<unsigned char>, cv::_VOr8u>(unsigned char const*, unsigned long long, unsigned char const*, unsigned long long, unsigned char*, unsigned long long, cv::Size_<int>)
	_ZN2cv7vBinOp8IhNS_4OpOrIhEENS_6_VOr8uEEEvPKT_yS6_yPS4_yNS_5Size_IiEE @ 1335
;	void cv::vBinOp8<unsigned char, cv::OpAdd<unsigned char, unsigned char, unsigned char>, cv::_VAdd8u>(unsigned char const*, unsigned long long, unsigned char const*, unsigned long long, unsigned char*, unsigned long long, cv::Size_<int>)
	_ZN2cv7vBinOp8IhNS_5OpAddIhhhEENS_7_VAdd8uEEEvPKT_yS6_yPS4_yNS_5Size_IiEE @ 1336
;	void cv::vBinOp8<unsigned char, cv::OpAnd<unsigned char>, cv::_VAnd8u>(unsigned char const*, unsigned long long, unsigned char const*, unsigned long long, unsigned char*, unsigned long long, cv::Size_<int>)
	_ZN2cv7vBinOp8IhNS_5OpAndIhEENS_7_VAnd8uEEEvPKT_yS6_yPS4_yNS_5Size_IiEE @ 1337
;	void cv::vBinOp8<unsigned char, cv::OpMax<unsigned char>, cv::_VMax8u>(unsigned char const*, unsigned long long, unsigned char const*, unsigned long long, unsigned char*, unsigned long long, cv::Size_<int>)
	_ZN2cv7vBinOp8IhNS_5OpMaxIhEENS_7_VMax8uEEEvPKT_yS6_yPS4_yNS_5Size_IiEE @ 1338
;	void cv::vBinOp8<unsigned char, cv::OpMin<unsigned char>, cv::_VMin8u>(unsigned char const*, unsigned long long, unsigned char const*, unsigned long long, unsigned char*, unsigned long long, cv::Size_<int>)
	_ZN2cv7vBinOp8IhNS_5OpMinIhEENS_7_VMin8uEEEvPKT_yS6_yPS4_yNS_5Size_IiEE @ 1339
;	void cv::vBinOp8<unsigned char, cv::OpNot<unsigned char>, cv::_VNot8u>(unsigned char const*, unsigned long long, unsigned char const*, unsigned long long, unsigned char*, unsigned long long, cv::Size_<int>)
	_ZN2cv7vBinOp8IhNS_5OpNotIhEENS_7_VNot8uEEEvPKT_yS6_yPS4_yNS_5Size_IiEE @ 1340
;	void cv::vBinOp8<unsigned char, cv::OpSub<unsigned char, unsigned char, unsigned char>, cv::_VSub8u>(unsigned char const*, unsigned long long, unsigned char const*, unsigned long long, unsigned char*, unsigned long long, cv::Size_<int>)
	_ZN2cv7vBinOp8IhNS_5OpSubIhhhEENS_7_VSub8uEEEvPKT_yS6_yPS4_yNS_5Size_IiEE @ 1341
;	void cv::vBinOp8<unsigned char, cv::OpXor<unsigned char>, cv::_VXor8u>(unsigned char const*, unsigned long long, unsigned char const*, unsigned long long, unsigned char*, unsigned long long, cv::Size_<int>)
	_ZN2cv7vBinOp8IhNS_5OpXorIhEENS_7_VXor8uEEEvPKT_yS6_yPS4_yNS_5Size_IiEE @ 1342
;	void cv::vBinOp8<unsigned char, cv::OpAbsDiff<unsigned char>, cv::_VAbsDiff8u>(unsigned char const*, unsigned long long, unsigned char const*, unsigned long long, unsigned char*, unsigned long long, cv::Size_<int>)
	_ZN2cv7vBinOp8IhNS_9OpAbsDiffIhEENS_11_VAbsDiff8uEEEvPKT_yS6_yPS4_yNS_5Size_IiEE @ 1343
;	cv::vconcat(cv::Mat const*, unsigned long long, cv::_OutputArray const&)
	_ZN2cv7vconcatEPKNS_3MatEyRKNS_12_OutputArrayE @ 1344
;	cv::vconcat(cv::_InputArray const&, cv::_OutputArray const&)
	_ZN2cv7vconcatERKNS_11_InputArrayERKNS_12_OutputArrayE @ 1345
;	cv::vconcat(cv::_InputArray const&, cv::_InputArray const&, cv::_OutputArray const&)
	_ZN2cv7vconcatERKNS_11_InputArrayES2_RKNS_12_OutputArrayE @ 1346
;	cv::AutoLock::AutoLock(cv::Mutex&)
	_ZN2cv8AutoLockC1ERNS_5MutexE @ 1347
;	cv::AutoLock::AutoLock(cv::Mutex&)
	_ZN2cv8AutoLockC2ERNS_5MutexE @ 1348
;	cv::AutoLock::~AutoLock()
	_ZN2cv8AutoLockD1Ev @ 1349
;	cv::AutoLock::~AutoLock()
	_ZN2cv8AutoLockD2Ev @ 1350
;	cv::Cholesky(double*, unsigned long long, int, double*, unsigned long long, int)
	_ZN2cv8CholeskyEPdyiS0_yi @ 1351
;	cv::Cholesky(float*, unsigned long long, int, float*, unsigned long long, int)
	_ZN2cv8CholeskyEPfyiS0_yi @ 1352
;	cv::FileNode::FileNode(CvFileStorage const*, CvFileNode const*)
	_ZN2cv8FileNodeC1EPK13CvFileStoragePK10CvFileNode @ 1353
;	cv::FileNode::FileNode(cv::FileNode const&)
	_ZN2cv8FileNodeC1ERKS0_ @ 1354
;	cv::FileNode::FileNode()
	_ZN2cv8FileNodeC1Ev @ 1355
;	cv::FileNode::FileNode(CvFileStorage const*, CvFileNode const*)
	_ZN2cv8FileNodeC2EPK13CvFileStoragePK10CvFileNode @ 1356
;	cv::FileNode::FileNode(cv::FileNode const&)
	_ZN2cv8FileNodeC2ERKS0_ @ 1357
;	cv::FileNode::FileNode()
	_ZN2cv8FileNodeC2Ev @ 1358
;	cv::FileNode::operator*()
	_ZN2cv8FileNodedeEv @ 1359
;	cv::GlArrays::setColorArray(cv::_InputArray const&, bool)
	_ZN2cv8GlArrays13setColorArrayERKNS_11_InputArrayEb @ 1360
;	cv::GlArrays::setNormalArray(cv::_InputArray const&)
	_ZN2cv8GlArrays14setNormalArrayERKNS_11_InputArrayE @ 1361
;	cv::GlArrays::setVertexArray(cv::_InputArray const&)
	_ZN2cv8GlArrays14setVertexArrayERKNS_11_InputArrayE @ 1362
;	cv::GlArrays::resetColorArray()
	_ZN2cv8GlArrays15resetColorArrayEv @ 1363
;	cv::GlArrays::resetNormalArray()
	_ZN2cv8GlArrays16resetNormalArrayEv @ 1364
;	cv::GlArrays::resetVertexArray()
	_ZN2cv8GlArrays16resetVertexArrayEv @ 1365
;	cv::GlArrays::setTexCoordArray(cv::_InputArray const&)
	_ZN2cv8GlArrays16setTexCoordArrayERKNS_11_InputArrayE @ 1366
;	cv::GlArrays::resetTexCoordArray()
	_ZN2cv8GlArrays18resetTexCoordArrayEv @ 1367
;	cv::GlArrays::GlArrays()
	_ZN2cv8GlArraysC1Ev @ 1368
;	cv::GlArrays::GlArrays()
	_ZN2cv8GlArraysC2Ev @ 1369
;	cv::GlBuffer::unmapDevice()
	_ZN2cv8GlBuffer11unmapDeviceEv @ 1370
;	cv::GlBuffer::create(cv::Size_<int>, int)
	_ZN2cv8GlBuffer6createENS_5Size_IiEEi @ 1371
;	cv::GlBuffer::create(cv::Size_<int>, int, cv::GlBuffer::Usage)
	_ZN2cv8GlBuffer6createENS_5Size_IiEEiNS0_5UsageE @ 1372
;	cv::GlBuffer::create(int, int, int)
	_ZN2cv8GlBuffer6createEiii @ 1373
;	cv::GlBuffer::create(int, int, int, cv::GlBuffer::Usage)
	_ZN2cv8GlBuffer6createEiiiNS0_5UsageE @ 1374
;	cv::GlBuffer::mapHost()
	_ZN2cv8GlBuffer7mapHostEv @ 1375
;	cv::GlBuffer::release()
	_ZN2cv8GlBuffer7releaseEv @ 1376
;	cv::GlBuffer::copyFrom(cv::_InputArray const&)
	_ZN2cv8GlBuffer8copyFromERKNS_11_InputArrayE @ 1377
;	cv::GlBuffer::mapDevice()
	_ZN2cv8GlBuffer9mapDeviceEv @ 1378
;	cv::GlBuffer::unmapHost()
	_ZN2cv8GlBuffer9unmapHostEv @ 1379
;	cv::GlBuffer::GlBuffer(cv::GlBuffer::Usage)
	_ZN2cv8GlBufferC1ENS0_5UsageE @ 1380
;	cv::GlBuffer::GlBuffer(cv::Size_<int>, int, cv::GlBuffer::Usage)
	_ZN2cv8GlBufferC1ENS_5Size_IiEEiNS0_5UsageE @ 1381
;	cv::GlBuffer::GlBuffer(cv::_InputArray const&, cv::GlBuffer::Usage)
	_ZN2cv8GlBufferC1ERKNS_11_InputArrayENS0_5UsageE @ 1382
;	cv::GlBuffer::GlBuffer(int, int, int, cv::GlBuffer::Usage)
	_ZN2cv8GlBufferC1EiiiNS0_5UsageE @ 1383
;	cv::GlBuffer::GlBuffer(cv::GlBuffer::Usage)
	_ZN2cv8GlBufferC2ENS0_5UsageE @ 1384
;	cv::GlBuffer::GlBuffer(cv::Size_<int>, int, cv::GlBuffer::Usage)
	_ZN2cv8GlBufferC2ENS_5Size_IiEEiNS0_5UsageE @ 1385
;	cv::GlBuffer::GlBuffer(cv::_InputArray const&, cv::GlBuffer::Usage)
	_ZN2cv8GlBufferC2ERKNS_11_InputArrayENS0_5UsageE @ 1386
;	cv::GlBuffer::GlBuffer(int, int, int, cv::GlBuffer::Usage)
	_ZN2cv8GlBufferC2EiiiNS0_5UsageE @ 1387
;	cv::GlCamera::setCameraPos(cv::Point3_<double>, double, double, double)
	_ZN2cv8GlCamera12setCameraPosENS_7Point3_IdEEddd @ 1388
;	cv::GlCamera::setOrthoProjection(double, double, double, double, double, double)
	_ZN2cv8GlCamera18setOrthoProjectionEdddddd @ 1389
;	cv::GlCamera::setProjectionMatrix(cv::Mat const&, bool)
	_ZN2cv8GlCamera19setProjectionMatrixERKNS_3MatEb @ 1390
;	cv::GlCamera::setPerspectiveProjection(double, double, double, double)
	_ZN2cv8GlCamera24setPerspectiveProjectionEdddd @ 1391
;	cv::GlCamera::lookAt(cv::Point3_<double>, cv::Point3_<double>, cv::Point3_<double>)
	_ZN2cv8GlCamera6lookAtENS_7Point3_IdEES2_S2_ @ 1392
;	cv::GlCamera::setScale(cv::Point3_<double>)
	_ZN2cv8GlCamera8setScaleENS_7Point3_IdEE @ 1393
;	cv::GlCamera::GlCamera()
	_ZN2cv8GlCameraC1Ev @ 1394
;	cv::GlCamera::GlCamera()
	_ZN2cv8GlCameraC2Ev @ 1395
;	cv::SVDecomp(cv::_InputArray const&, cv::_OutputArray const&, cv::_OutputArray const&, cv::_OutputArray const&, int)
	_ZN2cv8SVDecompERKNS_11_InputArrayERKNS_12_OutputArrayES5_S5_i @ 1396
;	cv::USE_SSE2
	_ZN2cv8USE_SSE2E @ 1397 DATA
;	cv::clearSeq(CvSeq*)
	_ZN2cv8clearSeqEP5CvSeq @ 1398
;	cv::clipLine(cv::Rect_<int>, cv::Point_<int>&, cv::Point_<int>&)
	_ZN2cv8clipLineENS_5Rect_IiEERNS_6Point_IiEES4_ @ 1399
;	cv::clipLine(cv::Size_<int>, cv::Point_<int>&, cv::Point_<int>&)
	_ZN2cv8clipLineENS_5Size_IiEERNS_6Point_IiEES4_ @ 1400
;	cv::cubeRoot(float)
	_ZN2cv8cubeRootEf @ 1401
;	double cv::dotProd_<signed char>(signed char const*, signed char const*, int)
	_ZN2cv8dotProd_IaEEdPKT_S3_i @ 1402
;	double cv::dotProd_<double>(double const*, double const*, int)
	_ZN2cv8dotProd_IdEEdPKT_S3_i @ 1403
;	double cv::dotProd_<float>(float const*, float const*, int)
	_ZN2cv8dotProd_IfEEdPKT_S3_i @ 1404
;	double cv::dotProd_<unsigned char>(unsigned char const*, unsigned char const*, int)
	_ZN2cv8dotProd_IhEEdPKT_S3_i @ 1405
;	double cv::dotProd_<int>(int const*, int const*, int)
	_ZN2cv8dotProd_IiEEdPKT_S3_i @ 1406
;	double cv::dotProd_<short>(short const*, short const*, int)
	_ZN2cv8dotProd_IsEEdPKT_S3_i @ 1407
;	double cv::dotProd_<unsigned short>(unsigned short const*, unsigned short const*, int)
	_ZN2cv8dotProd_ItEEdPKT_S3_i @ 1408
;	cv::fastFree(void*)
	_ZN2cv8fastFreeEPv @ 1409
;	cv::fillPoly(cv::_OutputArray const&, cv::_InputArray const&, cv::Scalar_<double> const&, int, int, cv::Point_<int>)
	_ZN2cv8fillPolyERKNS_12_OutputArrayERKNS_11_InputArrayERKNS_7Scalar_IdEEiiNS_6Point_IiEE @ 1410
;	cv::fillPoly(cv::Mat&, cv::Point_<int> const**, int const*, int, cv::Scalar_<double> const&, int, int, cv::Point_<int>)
	_ZN2cv8fillPolyERNS_3MatEPPKNS_6Point_IiEEPKiiRKNS_7Scalar_IdEEiiS3_ @ 1411
;	cv::multiply(cv::_InputArray const&, cv::_InputArray const&, cv::_OutputArray const&, double, int)
	_ZN2cv8multiplyERKNS_11_InputArrayES2_RKNS_12_OutputArrayEdi @ 1412
;	int cv::normInf_<signed char, int>(signed char const*, unsigned char const*, int*, int, int)
	_ZN2cv8normInf_IaiEEiPKT_PKhPT0_ii @ 1413
;	int cv::normInf_<double, double>(double const*, unsigned char const*, double*, int, int)
	_ZN2cv8normInf_IddEEiPKT_PKhPT0_ii @ 1414
;	int cv::normInf_<float, float>(float const*, unsigned char const*, float*, int, int)
	_ZN2cv8normInf_IffEEiPKT_PKhPT0_ii @ 1415
;	int cv::normInf_<unsigned char, int>(unsigned char const*, unsigned char const*, int*, int, int)
	_ZN2cv8normInf_IhiEEiPKT_PKhPT0_ii @ 1416
;	int cv::normInf_<int, int>(int const*, unsigned char const*, int*, int, int)
	_ZN2cv8normInf_IiiEEiPKT_PKhPT0_ii @ 1417
;	int cv::normInf_<short, int>(short const*, unsigned char const*, int*, int, int)
	_ZN2cv8normInf_IsiEEiPKT_PKhPT0_ii @ 1418
;	int cv::normInf_<unsigned short, int>(unsigned short const*, unsigned char const*, int*, int, int)
	_ZN2cv8normInf_ItiEEiPKT_PKhPT0_ii @ 1419
;	cv::scaleAdd(cv::_InputArray const&, double, cv::_InputArray const&, cv::_OutputArray const&)
	_ZN2cv8scaleAddERKNS_11_InputArrayEdS2_RKNS_12_OutputArrayE @ 1420
;	cv::subtract(cv::_InputArray const&, cv::_InputArray const&, cv::_OutputArray const&, cv::_InputArray const&, int)
	_ZN2cv8subtractERKNS_11_InputArrayES2_RKNS_12_OutputArrayES2_i @ 1421
;	cv::tempfile(char const*)
	_ZN2cv8tempfileEPKc @ 1422
;	void cv::vBinOp16<short, cv::OpAdd<short, short, short>, cv::_VAdd16s>(short const*, unsigned long long, short const*, unsigned long long, short*, unsigned long long, cv::Size_<int>)
	_ZN2cv8vBinOp16IsNS_5OpAddIsssEENS_8_VAdd16sEEEvPKT_yS6_yPS4_yNS_5Size_IiEE @ 1423
;	void cv::vBinOp16<short, cv::OpMax<short>, cv::_VMax16s>(short const*, unsigned long long, short const*, unsigned long long, short*, unsigned long long, cv::Size_<int>)
	_ZN2cv8vBinOp16IsNS_5OpMaxIsEENS_8_VMax16sEEEvPKT_yS6_yPS4_yNS_5Size_IiEE @ 1424
;	void cv::vBinOp16<short, cv::OpMin<short>, cv::_VMin16s>(short const*, unsigned long long, short const*, unsigned long long, short*, unsigned long long, cv::Size_<int>)
	_ZN2cv8vBinOp16IsNS_5OpMinIsEENS_8_VMin16sEEEvPKT_yS6_yPS4_yNS_5Size_IiEE @ 1425
;	void cv::vBinOp16<short, cv::OpSub<short, short, short>, cv::_VSub16s>(short const*, unsigned long long, short const*, unsigned long long, short*, unsigned long long, cv::Size_<int>)
	_ZN2cv8vBinOp16IsNS_5OpSubIsssEENS_8_VSub16sEEEvPKT_yS6_yPS4_yNS_5Size_IiEE @ 1426
;	void cv::vBinOp16<short, cv::OpAbsDiff<short>, cv::_VAbsDiff16s>(short const*, unsigned long long, short const*, unsigned long long, short*, unsigned long long, cv::Size_<int>)
	_ZN2cv8vBinOp16IsNS_9OpAbsDiffIsEENS_12_VAbsDiff16sEEEvPKT_yS6_yPS4_yNS_5Size_IiEE @ 1427
;	void cv::vBinOp16<unsigned short, cv::OpAdd<unsigned short, unsigned short, unsigned short>, cv::_VAdd16u>(unsigned short const*, unsigned long long, unsigned short const*, unsigned long long, unsigned short*, unsigned long long, cv::Size_<int>)
	_ZN2cv8vBinOp16ItNS_5OpAddItttEENS_8_VAdd16uEEEvPKT_yS6_yPS4_yNS_5Size_IiEE @ 1428
;	void cv::vBinOp16<unsigned short, cv::OpMax<unsigned short>, cv::_VMax16u>(unsigned short const*, unsigned long long, unsigned short const*, unsigned long long, unsigned short*, unsigned long long, cv::Size_<int>)
	_ZN2cv8vBinOp16ItNS_5OpMaxItEENS_8_VMax16uEEEvPKT_yS6_yPS4_yNS_5Size_IiEE @ 1429
;	void cv::vBinOp16<unsigned short, cv::OpMin<unsigned short>, cv::_VMin16u>(unsigned short const*, unsigned long long, unsigned short const*, unsigned long long, unsigned short*, unsigned long long, cv::Size_<int>)
	_ZN2cv8vBinOp16ItNS_5OpMinItEENS_8_VMin16uEEEvPKT_yS6_yPS4_yNS_5Size_IiEE @ 1430
;	void cv::vBinOp16<unsigned short, cv::OpSub<unsigned short, unsigned short, unsigned short>, cv::_VSub16u>(unsigned short const*, unsigned long long, unsigned short const*, unsigned long long, unsigned short*, unsigned long long, cv::Size_<int>)
	_ZN2cv8vBinOp16ItNS_5OpSubItttEENS_8_VSub16uEEEvPKT_yS6_yPS4_yNS_5Size_IiEE @ 1431
;	void cv::vBinOp16<unsigned short, cv::OpAbsDiff<unsigned short>, cv::_VAbsDiff16u>(unsigned short const*, unsigned long long, unsigned short const*, unsigned long long, unsigned short*, unsigned long long, cv::Size_<int>)
	_ZN2cv8vBinOp16ItNS_9OpAbsDiffItEENS_12_VAbsDiff16uEEEvPKT_yS6_yPS4_yNS_5Size_IiEE @ 1432
;	cv::Algorithm::setAlgorithm(char const*, cv::Ptr<cv::Algorithm> const&)
	_ZN2cv9Algorithm12setAlgorithmEPKcRKNS_3PtrIS0_EE @ 1433
;	cv::Algorithm::setAlgorithm(std::string const&, cv::Ptr<cv::Algorithm> const&)
	_ZN2cv9Algorithm12setAlgorithmERKSsRKNS_3PtrIS0_EE @ 1434
;	cv::Algorithm::setMatVector(char const*, std::vector<cv::Mat, std::allocator<cv::Mat> > const&)
	_ZN2cv9Algorithm12setMatVectorEPKcRKSt6vectorINS_3MatESaIS4_EE @ 1435
;	cv::Algorithm::setMatVector(std::string const&, std::vector<cv::Mat, std::allocator<cv::Mat> > const&)
	_ZN2cv9Algorithm12setMatVectorERKSsRKSt6vectorINS_3MatESaIS4_EE @ 1436
;	cv::Algorithm::set(char const*, cv::Mat const&)
	_ZN2cv9Algorithm3setEPKcRKNS_3MatE @ 1437
;	cv::Algorithm::set(char const*, cv::Ptr<cv::Algorithm> const&)
	_ZN2cv9Algorithm3setEPKcRKNS_3PtrIS0_EE @ 1438
;	cv::Algorithm::set(char const*, std::string const&)
	_ZN2cv9Algorithm3setEPKcRKSs @ 1439
;	cv::Algorithm::set(char const*, std::vector<cv::Mat, std::allocator<cv::Mat> > const&)
	_ZN2cv9Algorithm3setEPKcRKSt6vectorINS_3MatESaIS4_EE @ 1440
;	cv::Algorithm::set(char const*, bool)
	_ZN2cv9Algorithm3setEPKcb @ 1441
;	cv::Algorithm::set(char const*, double)
	_ZN2cv9Algorithm3setEPKcd @ 1442
;	cv::Algorithm::set(char const*, int)
	_ZN2cv9Algorithm3setEPKci @ 1443
;	cv::Algorithm::set(std::string const&, cv::Mat const&)
	_ZN2cv9Algorithm3setERKSsRKNS_3MatE @ 1444
;	cv::Algorithm::set(std::string const&, cv::Ptr<cv::Algorithm> const&)
	_ZN2cv9Algorithm3setERKSsRKNS_3PtrIS0_EE @ 1445
;	cv::Algorithm::set(std::string const&, std::vector<cv::Mat, std::allocator<cv::Mat> > const&)
	_ZN2cv9Algorithm3setERKSsRKSt6vectorINS_3MatESaIS4_EE @ 1446
;	cv::Algorithm::set(std::string const&, std::string const&)
	_ZN2cv9Algorithm3setERKSsS2_ @ 1447
;	cv::Algorithm::set(std::string const&, bool)
	_ZN2cv9Algorithm3setERKSsb @ 1448
;	cv::Algorithm::set(std::string const&, double)
	_ZN2cv9Algorithm3setERKSsd @ 1449
;	cv::Algorithm::set(std::string const&, int)
	_ZN2cv9Algorithm3setERKSsi @ 1450
;	cv::Algorithm::read(cv::FileNode const&)
	_ZN2cv9Algorithm4readERKNS_8FileNodeE @ 1451
;	cv::Algorithm::setInt(char const*, int)
	_ZN2cv9Algorithm6setIntEPKci @ 1452
;	cv::Algorithm::setInt(std::string const&, int)
	_ZN2cv9Algorithm6setIntERKSsi @ 1453
;	cv::Algorithm::setMat(char const*, cv::Mat const&)
	_ZN2cv9Algorithm6setMatEPKcRKNS_3MatE @ 1454
;	cv::Algorithm::setMat(std::string const&, cv::Mat const&)
	_ZN2cv9Algorithm6setMatERKSsRKNS_3MatE @ 1455
;	cv::Algorithm::_create(std::string const&)
	_ZN2cv9Algorithm7_createERKSs @ 1456
;	cv::Algorithm::getList(std::vector<std::string, std::allocator<std::string> >&)
	_ZN2cv9Algorithm7getListERSt6vectorISsSaISsEE @ 1457
;	cv::Algorithm::setBool(char const*, bool)
	_ZN2cv9Algorithm7setBoolEPKcb @ 1458
;	cv::Algorithm::setBool(std::string const&, bool)
	_ZN2cv9Algorithm7setBoolERKSsb @ 1459
;	cv::Algorithm::setDouble(char const*, double)
	_ZN2cv9Algorithm9setDoubleEPKcd @ 1460
;	cv::Algorithm::setDouble(std::string const&, double)
	_ZN2cv9Algorithm9setDoubleERKSsd @ 1461
;	cv::Algorithm::setString(char const*, std::string const&)
	_ZN2cv9Algorithm9setStringEPKcRKSs @ 1462
;	cv::Algorithm::setString(std::string const&, std::string const&)
	_ZN2cv9Algorithm9setStringERKSsS2_ @ 1463
;	cv::Algorithm::Algorithm()
	_ZN2cv9AlgorithmC1Ev @ 1464
;	cv::Algorithm::Algorithm()
	_ZN2cv9AlgorithmC2Ev @ 1465
;	cv::Algorithm::~Algorithm()
	_ZN2cv9AlgorithmD0Ev @ 1466
;	cv::Algorithm::~Algorithm()
	_ZN2cv9AlgorithmD1Ev @ 1467
;	cv::Algorithm::~Algorithm()
	_ZN2cv9AlgorithmD2Ev @ 1468
;	cv::Exception::formatMessage()
	_ZN2cv9Exception13formatMessageEv @ 1469
;	cv::Exception::Exception(int, std::string const&, std::string const&, std::string const&, int)
	_ZN2cv9ExceptionC1EiRKSsS2_S2_i @ 1470
;	cv::Exception::Exception()
	_ZN2cv9ExceptionC1Ev @ 1471
;	cv::Exception::Exception(int, std::string const&, std::string const&, std::string const&, int)
	_ZN2cv9ExceptionC2EiRKSsS2_S2_i @ 1472
;	cv::Exception::Exception()
	_ZN2cv9ExceptionC2Ev @ 1473
;	cv::Exception::~Exception()
	_ZN2cv9ExceptionD0Ev @ 1474
;	cv::Exception::~Exception()
	_ZN2cv9ExceptionD1Ev @ 1475
;	cv::Exception::~Exception()
	_ZN2cv9ExceptionD2Ev @ 1476
;	cv::Formatted::Formatted(cv::Mat const&, cv::Formatter const*, int const*)
	_ZN2cv9FormattedC1ERKNS_3MatEPKNS_9FormatterEPKi @ 1477
;	cv::Formatted::Formatted(cv::Mat const&, cv::Formatter const*, std::vector<int, std::allocator<int> > const&)
	_ZN2cv9FormattedC1ERKNS_3MatEPKNS_9FormatterERKSt6vectorIiSaIiEE @ 1478
;	cv::Formatted::Formatted(cv::Mat const&, cv::Formatter const*, int const*)
	_ZN2cv9FormattedC2ERKNS_3MatEPKNS_9FormatterEPKi @ 1479
;	cv::Formatted::Formatted(cv::Mat const&, cv::Formatter const*, std::vector<int, std::allocator<int> > const&)
	_ZN2cv9FormattedC2ERKNS_3MatEPKNS_9FormatterERKSt6vectorIiSaIiEE @ 1480
;	cv::Formatter::setDefault(cv::Formatter const*)
	_ZN2cv9Formatter10setDefaultEPKS0_ @ 1481
;	cv::Formatter::get(char const*)
	_ZN2cv9Formatter3getEPKc @ 1482
;	cv::Formatter::~Formatter()
	_ZN2cv9FormatterD0Ev @ 1483
;	cv::Formatter::~Formatter()
	_ZN2cv9FormatterD1Ev @ 1484
;	cv::Formatter::~Formatter()
	_ZN2cv9FormatterD2Ev @ 1485
;	cv::GlTexture::create(cv::Size_<int>, int)
	_ZN2cv9GlTexture6createENS_5Size_IiEEi @ 1486
;	cv::GlTexture::create(int, int, int)
	_ZN2cv9GlTexture6createEiii @ 1487
;	cv::GlTexture::release()
	_ZN2cv9GlTexture7releaseEv @ 1488
;	cv::GlTexture::copyFrom(cv::_InputArray const&, bool)
	_ZN2cv9GlTexture8copyFromERKNS_11_InputArrayEb @ 1489
;	cv::GlTexture::GlTexture(cv::Size_<int>, int)
	_ZN2cv9GlTextureC1ENS_5Size_IiEEi @ 1490
;	cv::GlTexture::GlTexture(cv::_InputArray const&, bool)
	_ZN2cv9GlTextureC1ERKNS_11_InputArrayEb @ 1491
;	cv::GlTexture::GlTexture(int, int, int)
	_ZN2cv9GlTextureC1Eiii @ 1492
;	cv::GlTexture::GlTexture()
	_ZN2cv9GlTextureC1Ev @ 1493
;	cv::GlTexture::GlTexture(cv::Size_<int>, int)
	_ZN2cv9GlTextureC2ENS_5Size_IiEEi @ 1494
;	cv::GlTexture::GlTexture(cv::_InputArray const&, bool)
	_ZN2cv9GlTextureC2ERKNS_11_InputArrayEb @ 1495
;	cv::GlTexture::GlTexture(int, int, int)
	_ZN2cv9GlTextureC2Eiii @ 1496
;	cv::GlTexture::GlTexture()
	_ZN2cv9GlTextureC2Ev @ 1497
;	cv::MatOp_Bin::makeExpr(cv::MatExpr&, char, cv::Mat const&, cv::Scalar_<double> const&)
	_ZN2cv9MatOp_Bin8makeExprERNS_7MatExprEcRKNS_3MatERKNS_7Scalar_IdEE @ 1498
;	cv::MatOp_Bin::makeExpr(cv::MatExpr&, char, cv::Mat const&, cv::Mat const&, double)
	_ZN2cv9MatOp_Bin8makeExprERNS_7MatExprEcRKNS_3MatES5_d @ 1499
;	cv::MatOp_Bin::~MatOp_Bin()
	_ZN2cv9MatOp_BinD0Ev @ 1500
;	cv::MatOp_Bin::~MatOp_Bin()
	_ZN2cv9MatOp_BinD1Ev @ 1501
;	cv::MatOp_Cmp::makeExpr(cv::MatExpr&, int, cv::Mat const&, cv::Mat const&)
	_ZN2cv9MatOp_Cmp8makeExprERNS_7MatExprEiRKNS_3MatES5_ @ 1502
;	cv::MatOp_Cmp::makeExpr(cv::MatExpr&, int, cv::Mat const&, double)
	_ZN2cv9MatOp_Cmp8makeExprERNS_7MatExprEiRKNS_3MatEd @ 1503
;	cv::MatOp_Cmp::~MatOp_Cmp()
	_ZN2cv9MatOp_CmpD0Ev @ 1504
;	cv::MatOp_Cmp::~MatOp_Cmp()
	_ZN2cv9MatOp_CmpD1Ev @ 1505
;	cv::SparseMat::removeNode(unsigned long long, unsigned long long, unsigned long long)
	_ZN2cv9SparseMat10removeNodeEyyy @ 1506
;	cv::SparseMat::resizeHashTab(unsigned long long)
	_ZN2cv9SparseMat13resizeHashTabEy @ 1507
;	cv::SparseMat::Hdr::clear()
	_ZN2cv9SparseMat3Hdr5clearEv @ 1508
;	cv::SparseMat::Hdr::Hdr(int, int const*, int)
	_ZN2cv9SparseMat3HdrC1EiPKii @ 1509
;	cv::SparseMat::Hdr::Hdr(int, int const*, int)
	_ZN2cv9SparseMat3HdrC2EiPKii @ 1510
;	cv::SparseMat::end()
	_ZN2cv9SparseMat3endEv @ 1511
;	cv::SparseMat::ptr(int const*, bool, unsigned long long*)
	_ZN2cv9SparseMat3ptrEPKibPy @ 1512
;	cv::SparseMat::ptr(int, bool, unsigned long long*)
	_ZN2cv9SparseMat3ptrEibPy @ 1513
;	cv::SparseMat::ptr(int, int, bool, unsigned long long*)
	_ZN2cv9SparseMat3ptrEiibPy @ 1514
;	cv::SparseMat::ptr(int, int, int, bool, unsigned long long*)
	_ZN2cv9SparseMat3ptrEiiibPy @ 1515
;	cv::SparseMat::node(unsigned long long)
	_ZN2cv9SparseMat4nodeEy @ 1516
;	cv::SparseMat::begin()
	_ZN2cv9SparseMat5beginEv @ 1517
;	cv::SparseMat::clear()
	_ZN2cv9SparseMat5clearEv @ 1518
;	cv::SparseMat::erase(int const*, unsigned long long*)
	_ZN2cv9SparseMat5eraseEPKiPy @ 1519
;	cv::SparseMat::erase(int, int, unsigned long long*)
	_ZN2cv9SparseMat5eraseEiiPy @ 1520
;	cv::SparseMat::erase(int, int, int, unsigned long long*)
	_ZN2cv9SparseMat5eraseEiiiPy @ 1521
;	cv::SparseMat::addref()
	_ZN2cv9SparseMat6addrefEv @ 1522
;	cv::SparseMat::create(int, int const*, int)
	_ZN2cv9SparseMat6createEiPKii @ 1523
;	cv::SparseMat::newNode(int const*, unsigned long long)
	_ZN2cv9SparseMat7newNodeEPKiy @ 1524
;	cv::SparseMat::release()
	_ZN2cv9SparseMat7releaseEv @ 1525
;	cv::SparseMat::SparseMat(CvSparseMat const*)
	_ZN2cv9SparseMatC1EPK11CvSparseMat @ 1526
;	cv::SparseMat::SparseMat(cv::Mat const&)
	_ZN2cv9SparseMatC1ERKNS_3MatE @ 1527
;	cv::SparseMat::SparseMat(cv::SparseMat const&)
	_ZN2cv9SparseMatC1ERKS0_ @ 1528
;	cv::SparseMat::SparseMat(int, int const*, int)
	_ZN2cv9SparseMatC1EiPKii @ 1529
;	cv::SparseMat::SparseMat()
	_ZN2cv9SparseMatC1Ev @ 1530
;	cv::SparseMat::SparseMat(CvSparseMat const*)
	_ZN2cv9SparseMatC2EPK11CvSparseMat @ 1531
;	cv::SparseMat::SparseMat(cv::Mat const&)
	_ZN2cv9SparseMatC2ERKNS_3MatE @ 1532
;	cv::SparseMat::SparseMat(cv::SparseMat const&)
	_ZN2cv9SparseMatC2ERKS0_ @ 1533
;	cv::SparseMat::SparseMat(int, int const*, int)
	_ZN2cv9SparseMatC2EiPKii @ 1534
;	cv::SparseMat::SparseMat()
	_ZN2cv9SparseMatC2Ev @ 1535
;	cv::SparseMat::~SparseMat()
	_ZN2cv9SparseMatD1Ev @ 1536
;	cv::SparseMat::~SparseMat()
	_ZN2cv9SparseMatD2Ev @ 1537
;	cv::SparseMat::operator=(cv::Mat const&)
	_ZN2cv9SparseMataSERKNS_3MatE @ 1538
;	cv::SparseMat::operator=(cv::SparseMat const&)
	_ZN2cv9SparseMataSERKS0_ @ 1539
;	cv::fastAtan2(float const*, float const*, float*, int, bool)
	_ZN2cv9fastAtan2EPKfS1_Pfib @ 1540
;	cv::fastAtan2(float, float)
	_ZN2cv9fastAtan2Eff @ 1541
;	cv::fromUtf16(std::basic_string<wchar_t, std::char_traits<wchar_t>, std::allocator<wchar_t> > const&)
	_ZN2cv9fromUtf16ERKSbIwSt11char_traitsIwESaIwEE @ 1542
;	cv::magnitude(float const*, float const*, float*, int)
	_ZN2cv9magnitudeEPKfS1_Pfi @ 1543
;	cv::magnitude(cv::_InputArray const&, cv::_InputArray const&, cv::_OutputArray const&)
	_ZN2cv9magnitudeERKNS_11_InputArrayES2_RKNS_12_OutputArrayE @ 1544
;	cv::minMaxIdx(cv::_InputArray const&, double*, double*, int*, int*, cv::_InputArray const&)
	_ZN2cv9minMaxIdxERKNS_11_InputArrayEPdS3_PiS4_S2_ @ 1545
;	cv::minMaxLoc(cv::_InputArray const&, double*, double*, cv::Point_<int>*, cv::Point_<int>*, cv::_InputArray const&)
	_ZN2cv9minMaxLocERKNS_11_InputArrayEPdS3_PNS_6Point_IiEES6_S2_ @ 1546
;	cv::minMaxLoc(cv::SparseMat const&, double*, double*, int*, int*)
	_ZN2cv9minMaxLocERKNS_9SparseMatEPdS3_PiS4_ @ 1547
;	cv::normalize(cv::_InputArray const&, cv::_OutputArray const&, double, double, int, int, cv::_InputArray const&)
	_ZN2cv9normalizeERKNS_11_InputArrayERKNS_12_OutputArrayEddiiS2_ @ 1548
;	cv::normalize(cv::SparseMat const&, cv::SparseMat&, double, int)
	_ZN2cv9normalizeERKNS_9SparseMatERS0_di @ 1549
;	cv::patchNaNs(cv::_OutputArray const&, double)
	_ZN2cv9patchNaNsERKNS_12_OutputArrayEd @ 1550
;	cv::polylines(cv::_OutputArray const&, cv::_InputArray const&, bool, cv::Scalar_<double> const&, int, int, int)
	_ZN2cv9polylinesERKNS_12_OutputArrayERKNS_11_InputArrayEbRKNS_7Scalar_IdEEiii @ 1551
;	cv::polylines(cv::Mat&, cv::Point_<int> const**, int const*, int, bool, cv::Scalar_<double> const&, int, int, int)
	_ZN2cv9polylinesERNS_3MatEPPKNS_6Point_IiEEPKiibRKNS_7Scalar_IdEEiii @ 1552
;	cv::rectangle(cv::Mat&, cv::Rect_<int>, cv::Scalar_<double> const&, int, int, int)
	_ZN2cv9rectangleERNS_3MatENS_5Rect_IiEERKNS_7Scalar_IdEEiii @ 1553
;	cv::rectangle(cv::Mat&, cv::Point_<int>, cv::Point_<int>, cv::Scalar_<double> const&, int, int, int)
	_ZN2cv9rectangleERNS_3MatENS_6Point_IiEES3_RKNS_7Scalar_IdEEiii @ 1554
;	cv::seqRemove(CvSeq*, int)
	_ZN2cv9seqRemoveEP5CvSeqi @ 1555
;	cv::solvePoly(cv::_InputArray const&, cv::_OutputArray const&, int)
	_ZN2cv9solvePolyERKNS_11_InputArrayERKNS_12_OutputArrayEi @ 1556
;	cv::transform(cv::_InputArray const&, cv::_OutputArray const&, cv::_InputArray const&)
	_ZN2cv9transformERKNS_11_InputArrayERKNS_12_OutputArrayES2_ @ 1557
;	cv::transpose(cv::_InputArray const&, cv::_OutputArray const&)
	_ZN2cv9transposeERKNS_11_InputArrayERKNS_12_OutputArrayE @ 1558
;	void cv::vBinOp32f<cv::OpAdd<float, float, float>, cv::_VAdd32f>(float const*, unsigned long long, float const*, unsigned long long, float*, unsigned long long, cv::Size_<int>)
	_ZN2cv9vBinOp32fINS_5OpAddIfffEENS_8_VAdd32fEEEvPKfyS5_yPfyNS_5Size_IiEE @ 1559
;	void cv::vBinOp32f<cv::OpMax<float>, cv::_VMax32f>(float const*, unsigned long long, float const*, unsigned long long, float*, unsigned long long, cv::Size_<int>)
	_ZN2cv9vBinOp32fINS_5OpMaxIfEENS_8_VMax32fEEEvPKfyS5_yPfyNS_5Size_IiEE @ 1560
;	void cv::vBinOp32f<cv::OpMin<float>, cv::_VMin32f>(float const*, unsigned long long, float const*, unsigned long long, float*, unsigned long long, cv::Size_<int>)
	_ZN2cv9vBinOp32fINS_5OpMinIfEENS_8_VMin32fEEEvPKfyS5_yPfyNS_5Size_IiEE @ 1561
;	void cv::vBinOp32f<cv::OpSub<float, float, float>, cv::_VSub32f>(float const*, unsigned long long, float const*, unsigned long long, float*, unsigned long long, cv::Size_<int>)
	_ZN2cv9vBinOp32fINS_5OpSubIfffEENS_8_VSub32fEEEvPKfyS5_yPfyNS_5Size_IiEE @ 1562
;	void cv::vBinOp32f<cv::OpAbsDiff<float>, cv::_VAbsDiff32f>(float const*, unsigned long long, float const*, unsigned long long, float*, unsigned long long, cv::Size_<int>)
	_ZN2cv9vBinOp32fINS_9OpAbsDiffIfEENS_12_VAbsDiff32fEEEvPKfyS5_yPfyNS_5Size_IiEE @ 1563
;	void cv::vBinOp32s<cv::OpAdd<int, int, int>, cv::_VAdd32s>(int const*, unsigned long long, int const*, unsigned long long, int*, unsigned long long, cv::Size_<int>)
	_ZN2cv9vBinOp32sINS_5OpAddIiiiEENS_8_VAdd32sEEEvPKiyS5_yPiyNS_5Size_IiEE @ 1564
;	void cv::vBinOp32s<cv::OpMax<int>, cv::_VMax32s>(int const*, unsigned long long, int const*, unsigned long long, int*, unsigned long long, cv::Size_<int>)
	_ZN2cv9vBinOp32sINS_5OpMaxIiEENS_8_VMax32sEEEvPKiyS5_yPiyNS_5Size_IiEE @ 1565
;	void cv::vBinOp32s<cv::OpMin<int>, cv::_VMin32s>(int const*, unsigned long long, int const*, unsigned long long, int*, unsigned long long, cv::Size_<int>)
	_ZN2cv9vBinOp32sINS_5OpMinIiEENS_8_VMin32sEEEvPKiyS5_yPiyNS_5Size_IiEE @ 1566
;	void cv::vBinOp32s<cv::OpSub<int, int, int>, cv::_VSub32s>(int const*, unsigned long long, int const*, unsigned long long, int*, unsigned long long, cv::Size_<int>)
	_ZN2cv9vBinOp32sINS_5OpSubIiiiEENS_8_VSub32sEEEvPKiyS5_yPiyNS_5Size_IiEE @ 1567
;	void cv::vBinOp32s<cv::OpAbsDiff<int>, cv::_VAbsDiff32s>(int const*, unsigned long long, int const*, unsigned long long, int*, unsigned long long, cv::Size_<int>)
	_ZN2cv9vBinOp32sINS_9OpAbsDiffIiEENS_12_VAbsDiff32sEEEvPKiyS5_yPiyNS_5Size_IiEE @ 1568
;	void cv::vBinOp64f<cv::OpAdd<double, double, double>, cv::_VAdd64f>(double const*, unsigned long long, double const*, unsigned long long, double*, unsigned long long, cv::Size_<int>)
	_ZN2cv9vBinOp64fINS_5OpAddIdddEENS_8_VAdd64fEEEvPKdyS5_yPdyNS_5Size_IiEE @ 1569
;	void cv::vBinOp64f<cv::OpMax<double>, cv::_VMax64f>(double const*, unsigned long long, double const*, unsigned long long, double*, unsigned long long, cv::Size_<int>)
	_ZN2cv9vBinOp64fINS_5OpMaxIdEENS_8_VMax64fEEEvPKdyS5_yPdyNS_5Size_IiEE @ 1570
;	void cv::vBinOp64f<cv::OpMin<double>, cv::_VMin64f>(double const*, unsigned long long, double const*, unsigned long long, double*, unsigned long long, cv::Size_<int>)
	_ZN2cv9vBinOp64fINS_5OpMinIdEENS_8_VMin64fEEEvPKdyS5_yPdyNS_5Size_IiEE @ 1571
;	void cv::vBinOp64f<cv::OpSub<double, double, double>, cv::_VSub64f>(double const*, unsigned long long, double const*, unsigned long long, double*, unsigned long long, cv::Size_<int>)
	_ZN2cv9vBinOp64fINS_5OpSubIdddEENS_8_VSub64fEEEvPKdyS5_yPdyNS_5Size_IiEE @ 1572
;	void cv::vBinOp64f<cv::OpAbsDiff<double>, cv::_VAbsDiff64f>(double const*, unsigned long long, double const*, unsigned long long, double*, unsigned long long, cv::Size_<int>)
	_ZN2cv9vBinOp64fINS_9OpAbsDiffIdEENS_12_VAbsDiff64fEEEvPKdyS5_yPdyNS_5Size_IiEE @ 1573
;	cv::operator&(cv::Mat const&, cv::Scalar_<double> const&)
	_ZN2cvanERKNS_3MatERKNS_7Scalar_IdEE @ 1574
;	cv::operator&(cv::Mat const&, cv::Mat const&)
	_ZN2cvanERKNS_3MatES2_ @ 1575
;	cv::operator&(cv::Scalar_<double> const&, cv::Mat const&)
	_ZN2cvanERKNS_7Scalar_IdEERKNS_3MatE @ 1576
;	cv::operator~(cv::Mat const&)
	_ZN2cvcoERKNS_3MatE @ 1577
;	cv::operator/(cv::Mat const&, cv::MatExpr const&)
	_ZN2cvdvERKNS_3MatERKNS_7MatExprE @ 1578
;	cv::operator/(cv::Mat const&, cv::Mat const&)
	_ZN2cvdvERKNS_3MatES2_ @ 1579
;	cv::operator/(cv::Mat const&, double)
	_ZN2cvdvERKNS_3MatEd @ 1580
;	cv::operator/(cv::MatExpr const&, cv::Mat const&)
	_ZN2cvdvERKNS_7MatExprERKNS_3MatE @ 1581
;	cv::operator/(cv::MatExpr const&, cv::MatExpr const&)
	_ZN2cvdvERKNS_7MatExprES2_ @ 1582
;	cv::operator/(cv::MatExpr const&, double)
	_ZN2cvdvERKNS_7MatExprEd @ 1583
;	cv::operator/(double, cv::Mat const&)
	_ZN2cvdvEdRKNS_3MatE @ 1584
;	cv::operator/(double, cv::MatExpr const&)
	_ZN2cvdvEdRKNS_7MatExprE @ 1585
;	cv::operator^(cv::Mat const&, cv::Scalar_<double> const&)
	_ZN2cveoERKNS_3MatERKNS_7Scalar_IdEE @ 1586
;	cv::operator^(cv::Mat const&, cv::Mat const&)
	_ZN2cveoERKNS_3MatES2_ @ 1587
;	cv::operator^(cv::Scalar_<double> const&, cv::Mat const&)
	_ZN2cveoERKNS_7Scalar_IdEERKNS_3MatE @ 1588
;	cv::operator==(cv::Mat const&, cv::Mat const&)
	_ZN2cveqERKNS_3MatES2_ @ 1589
;	cv::operator==(cv::Mat const&, double)
	_ZN2cveqERKNS_3MatEd @ 1590
;	cv::operator==(double, cv::Mat const&)
	_ZN2cveqEdRKNS_3MatE @ 1591
;	cv::operator>=(cv::Mat const&, cv::Mat const&)
	_ZN2cvgeERKNS_3MatES2_ @ 1592
;	cv::operator>=(cv::Mat const&, double)
	_ZN2cvgeERKNS_3MatEd @ 1593
;	cv::operator>=(double, cv::Mat const&)
	_ZN2cvgeEdRKNS_3MatE @ 1594
;	cv::operator>(cv::Mat const&, cv::Mat const&)
	_ZN2cvgtERKNS_3MatES2_ @ 1595
;	cv::operator>(cv::Mat const&, double)
	_ZN2cvgtERKNS_3MatEd @ 1596
;	cv::operator>(double, cv::Mat const&)
	_ZN2cvgtEdRKNS_3MatE @ 1597
;	cv::operator<=(cv::Mat const&, cv::Mat const&)
	_ZN2cvleERKNS_3MatES2_ @ 1598
;	cv::operator<=(cv::Mat const&, double)
	_ZN2cvleERKNS_3MatEd @ 1599
;	cv::operator<=(double, cv::Mat const&)
	_ZN2cvleEdRKNS_3MatE @ 1600
;	cv::operator<<(cv::FileStorage&, std::string const&)
	_ZN2cvlsERNS_11FileStorageERKSs @ 1601
;	cv::operator<(cv::Mat const&, cv::Mat const&)
	_ZN2cvltERKNS_3MatES2_ @ 1602
;	cv::operator<(cv::Mat const&, double)
	_ZN2cvltERKNS_3MatEd @ 1603
;	cv::operator<(double, cv::Mat const&)
	_ZN2cvltEdRKNS_3MatE @ 1604
;	cv::operator-(cv::MatConstIterator const&, cv::MatConstIterator const&)
	_ZN2cvmiERKNS_16MatConstIteratorES2_ @ 1605
;	cv::operator-(cv::Mat const&, cv::MatExpr const&)
	_ZN2cvmiERKNS_3MatERKNS_7MatExprE @ 1606
;	cv::operator-(cv::Mat const&, cv::Scalar_<double> const&)
	_ZN2cvmiERKNS_3MatERKNS_7Scalar_IdEE @ 1607
;	cv::operator-(cv::Mat const&, cv::Mat const&)
	_ZN2cvmiERKNS_3MatES2_ @ 1608
;	cv::operator-(cv::MatExpr const&, cv::Mat const&)
	_ZN2cvmiERKNS_7MatExprERKNS_3MatE @ 1609
;	cv::operator-(cv::MatExpr const&, cv::Scalar_<double> const&)
	_ZN2cvmiERKNS_7MatExprERKNS_7Scalar_IdEE @ 1610
;	cv::operator-(cv::MatExpr const&, cv::MatExpr const&)
	_ZN2cvmiERKNS_7MatExprES2_ @ 1611
;	cv::operator-(cv::Scalar_<double> const&, cv::Mat const&)
	_ZN2cvmiERKNS_7Scalar_IdEERKNS_3MatE @ 1612
;	cv::operator-(cv::Scalar_<double> const&, cv::MatExpr const&)
	_ZN2cvmiERKNS_7Scalar_IdEERKNS_7MatExprE @ 1613
;	cv::operator*(cv::Mat const&, cv::MatExpr const&)
	_ZN2cvmlERKNS_3MatERKNS_7MatExprE @ 1614
;	cv::operator*(cv::Mat const&, cv::Mat const&)
	_ZN2cvmlERKNS_3MatES2_ @ 1615
;	cv::operator*(cv::Mat const&, double)
	_ZN2cvmlERKNS_3MatEd @ 1616
;	cv::operator*(cv::MatExpr const&, cv::Mat const&)
	_ZN2cvmlERKNS_7MatExprERKNS_3MatE @ 1617
;	cv::operator*(cv::MatExpr const&, cv::MatExpr const&)
	_ZN2cvmlERKNS_7MatExprES2_ @ 1618
;	cv::operator*(cv::MatExpr const&, double)
	_ZN2cvmlERKNS_7MatExprEd @ 1619
;	cv::operator*(double, cv::Mat const&)
	_ZN2cvmlEdRKNS_3MatE @ 1620
;	cv::operator*(double, cv::MatExpr const&)
	_ZN2cvmlEdRKNS_7MatExprE @ 1621
;	cv::operator!=(cv::Mat const&, cv::Mat const&)
	_ZN2cvneERKNS_3MatES2_ @ 1622
;	cv::operator!=(cv::Mat const&, double)
	_ZN2cvneERKNS_3MatEd @ 1623
;	cv::operator!=(double, cv::Mat const&)
	_ZN2cvneEdRKNS_3MatE @ 1624
;	cv::operator-(cv::Mat const&)
	_ZN2cvngERKNS_3MatE @ 1625
;	cv::operator-(cv::MatExpr const&)
	_ZN2cvngERKNS_7MatExprE @ 1626
;	cv::operator|(cv::Mat const&, cv::Scalar_<double> const&)
	_ZN2cvorERKNS_3MatERKNS_7Scalar_IdEE @ 1627
;	cv::operator|(cv::Mat const&, cv::Mat const&)
	_ZN2cvorERKNS_3MatES2_ @ 1628
;	cv::operator|(cv::Scalar_<double> const&, cv::Mat const&)
	_ZN2cvorERKNS_7Scalar_IdEERKNS_3MatE @ 1629
;	cv::operator+(cv::Mat const&, cv::MatExpr const&)
	_ZN2cvplERKNS_3MatERKNS_7MatExprE @ 1630
;	cv::operator+(cv::Mat const&, cv::Scalar_<double> const&)
	_ZN2cvplERKNS_3MatERKNS_7Scalar_IdEE @ 1631
;	cv::operator+(cv::Mat const&, cv::Mat const&)
	_ZN2cvplERKNS_3MatES2_ @ 1632
;	cv::operator+(cv::MatExpr const&, cv::Mat const&)
	_ZN2cvplERKNS_7MatExprERKNS_3MatE @ 1633
;	cv::operator+(cv::MatExpr const&, cv::Scalar_<double> const&)
	_ZN2cvplERKNS_7MatExprERKNS_7Scalar_IdEE @ 1634
;	cv::operator+(cv::MatExpr const&, cv::MatExpr const&)
	_ZN2cvplERKNS_7MatExprES2_ @ 1635
;	cv::operator+(cv::Scalar_<double> const&, cv::Mat const&)
	_ZN2cvplERKNS_7Scalar_IdEERKNS_3MatE @ 1636
;	cv::operator+(cv::Scalar_<double> const&, cv::MatExpr const&)
	_ZN2cvplERKNS_7Scalar_IdEERKNS_7MatExprE @ 1637
;	gl::BeginQuery
	_ZN2gl10BeginQueryE @ 1638 DATA
;	gl::BindBuffer
	_ZN2gl10BindBufferE @ 1639 DATA
;	gl::BlendColor
	_ZN2gl10BlendColorE @ 1640 DATA
;	gl::BufferData
	_ZN2gl10BufferDataE @ 1641 DATA
;	gl::ClampColor
	_ZN2gl10ClampColorE @ 1642 DATA
;	gl::ClearColor
	_ZN2gl10ClearColorE @ 1643 DATA
;	gl::ClearDepth
	_ZN2gl10ClearDepthE @ 1644 DATA
;	gl::ColorMaski
	_ZN2gl10ColorMaskiE @ 1645 DATA
;	gl::DepthRange
	_ZN2gl10DepthRangeE @ 1646 DATA
;	gl::DrawArrays
	_ZN2gl10DrawArraysE @ 1647 DATA
;	gl::DrawBuffer
	_ZN2gl10DrawBufferE @ 1648 DATA
;	gl::GenBuffers
	_ZN2gl10GenBuffersE @ 1649 DATA
;	gl::GenQueries
	_ZN2gl10GenQueriesE @ 1650 DATA
;	gl::GetDoublev
	_ZN2gl10GetDoublevE @ 1651 DATA
;	gl::GetQueryiv
	_ZN2gl10GetQueryivE @ 1652 DATA
;	gl::GetStringi
	_ZN2gl10GetStringiE @ 1653 DATA
;	gl::IsEnabledi
	_ZN2gl10IsEnablediE @ 1654 DATA
;	gl::MatrixMode
	_ZN2gl10MatrixModeE @ 1655 DATA
;	gl::ReadBuffer
	_ZN2gl10ReadBufferE @ 1656 DATA
;	gl::ReadPixels
	_ZN2gl10ReadPixelsE @ 1657 DATA
;	gl::TexImage1D
	_ZN2gl10TexImage1DE @ 1658 DATA
;	gl::TexImage2D
	_ZN2gl10TexImage2DE @ 1659 DATA
;	gl::Uniform1fv
	_ZN2gl10Uniform1fvE @ 1660 DATA
;	gl::Uniform1iv
	_ZN2gl10Uniform1ivE @ 1661 DATA
;	gl::Uniform1ui
	_ZN2gl10Uniform1uiE @ 1662 DATA
;	gl::Uniform2fv
	_ZN2gl10Uniform2fvE @ 1663 DATA
;	gl::Uniform2iv
	_ZN2gl10Uniform2ivE @ 1664 DATA
;	gl::Uniform2ui
	_ZN2gl10Uniform2uiE @ 1665 DATA
;	gl::Uniform3fv
	_ZN2gl10Uniform3fvE @ 1666 DATA
;	gl::Uniform3iv
	_ZN2gl10Uniform3ivE @ 1667 DATA
;	gl::Uniform3ui
	_ZN2gl10Uniform3uiE @ 1668 DATA
;	gl::Uniform4fv
	_ZN2gl10Uniform4fvE @ 1669 DATA
;	gl::Uniform4iv
	_ZN2gl10Uniform4ivE @ 1670 DATA
;	gl::Uniform4ui
	_ZN2gl10Uniform4uiE @ 1671 DATA
;	gl::UseProgram
	_ZN2gl10UseProgramE @ 1672 DATA
;	gl::BindTexture
	_ZN2gl11BindTextureE @ 1673 DATA
;	gl::DrawBuffers
	_ZN2gl11DrawBuffersE @ 1674 DATA
;	gl::GenTextures
	_ZN2gl11GenTexturesE @ 1675 DATA
;	gl::GetBooleanv
	_ZN2gl11GetBooleanvE @ 1676 DATA
;	gl::GetIntegerv
	_ZN2gl11GetIntegervE @ 1677 DATA
;	gl::GetPointerv
	_ZN2gl11GetPointervE @ 1678 DATA
;	gl::GetShaderiv
	_ZN2gl11GetShaderivE @ 1679 DATA
;	gl::GetTexImage
	_ZN2gl11GetTexImageE @ 1680 DATA
;	gl::LinkProgram
	_ZN2gl11LinkProgramE @ 1681 DATA
;	gl::PixelStoref
	_ZN2gl11PixelStorefE @ 1682 DATA
;	gl::PixelStorei
	_ZN2gl11PixelStoreiE @ 1683 DATA
;	gl::PolygonMode
	_ZN2gl11PolygonModeE @ 1684 DATA
;	gl::StencilFunc
	_ZN2gl11StencilFuncE @ 1685 DATA
;	gl::StencilMask
	_ZN2gl11StencilMaskE @ 1686 DATA
;	gl::Uniform1uiv
	_ZN2gl11Uniform1uivE @ 1687 DATA
;	gl::Uniform2uiv
	_ZN2gl11Uniform2uivE @ 1688 DATA
;	gl::Uniform3uiv
	_ZN2gl11Uniform3uivE @ 1689 DATA
;	gl::Uniform4uiv
	_ZN2gl11Uniform4uivE @ 1690 DATA
;	gl::UnmapBuffer
	_ZN2gl11UnmapBufferE @ 1691 DATA
;	gl::AttachShader
	_ZN2gl12AttachShaderE @ 1692 DATA
;	gl::ClearStencil
	_ZN2gl12ClearStencilE @ 1693 DATA
;	gl::ColorPointer
	_ZN2gl12ColorPointerE @ 1694 DATA
;	gl::CreateShader
	_ZN2gl12CreateShaderE @ 1695 DATA
;	gl::DeleteShader
	_ZN2gl12DeleteShaderE @ 1696 DATA
;	gl::DetachShader
	_ZN2gl12DetachShaderE @ 1697 DATA
;	gl::DrawElements
	_ZN2gl12DrawElementsE @ 1698 DATA
;	gl::GetProgramiv
	_ZN2gl12GetProgramivE @ 1699 DATA
;	gl::GetUniformfv
	_ZN2gl12GetUniformfvE @ 1700 DATA
;	gl::GetUniformiv
	_ZN2gl12GetUniformivE @ 1701 DATA
;	gl::LoadIdentity
	_ZN2gl12LoadIdentityE @ 1702 DATA
;	gl::ShaderSource
	_ZN2gl12ShaderSourceE @ 1703 DATA
;	gl::ActiveTexture
	_ZN2gl13ActiveTextureE @ 1704 DATA
;	gl::BlendEquation
	_ZN2gl13BlendEquationE @ 1705 DATA
;	gl::BufferSubData
	_ZN2gl13BufferSubDataE @ 1706 DATA
;	gl::ClearBufferfi
	_ZN2gl13ClearBufferfiE @ 1707 DATA
;	gl::ClearBufferfv
	_ZN2gl13ClearBufferfvE @ 1708 DATA
;	gl::ClearBufferiv
	_ZN2gl13ClearBufferivE @ 1709 DATA
;	gl::CompileShader
	_ZN2gl13CompileShaderE @ 1710 DATA
;	gl::CreateProgram
	_ZN2gl13CreateProgramE @ 1711 DATA
;	gl::DeleteBuffers
	_ZN2gl13DeleteBuffersE @ 1712 DATA
;	gl::DeleteProgram
	_ZN2gl13DeleteProgramE @ 1713 DATA
;	gl::DeleteQueries
	_ZN2gl13DeleteQueriesE @ 1714 DATA
;	gl::GetBooleani_v
	_ZN2gl13GetBooleani_vE @ 1715 DATA
;	gl::GetIntegeri_v
	_ZN2gl13GetIntegeri_vE @ 1716 DATA
;	gl::GetUniformuiv
	_ZN2gl13GetUniformuivE @ 1717 DATA
;	gl::IsFramebuffer
	_ZN2gl13IsFramebufferE @ 1718 DATA
;	gl::IsVertexArray
	_ZN2gl13IsVertexArrayE @ 1719 DATA
;	gl::NormalPointer
	_ZN2gl13NormalPointerE @ 1720 DATA
;	gl::PolygonOffset
	_ZN2gl13PolygonOffsetE @ 1721 DATA
;	gl::TexParameterf
	_ZN2gl13TexParameterfE @ 1722 DATA
;	gl::TexParameteri
	_ZN2gl13TexParameteriE @ 1723 DATA
;	gl::TexSubImage1D
	_ZN2gl13TexSubImage1DE @ 1724 DATA
;	gl::TexSubImage2D
	_ZN2gl13TexSubImage2DE @ 1725 DATA
;	gl::TexSubImage3D
	_ZN2gl13TexSubImage3DE @ 1726 DATA
;	gl::VertexPointer
	_ZN2gl13VertexPointerE @ 1727 DATA
;	gl::BindBufferBase
	_ZN2gl14BindBufferBaseE @ 1728 DATA
;	gl::ClearBufferuiv
	_ZN2gl14ClearBufferuivE @ 1729 DATA
;	gl::CopyTexImage1D
	_ZN2gl14CopyTexImage1DE @ 1730 DATA
;	gl::CopyTexImage2D
	_ZN2gl14CopyTexImage2DE @ 1731 DATA
;	gl::DeleteTextures
	_ZN2gl14DeleteTexturesE @ 1732 DATA
;	gl::GenerateMipmap
	_ZN2gl14GenerateMipmapE @ 1733 DATA
;	gl::IsRenderbuffer
	_ZN2gl14IsRenderbufferE @ 1734 DATA
;	gl::MapBufferRange
	_ZN2gl14MapBufferRangeE @ 1735 DATA
;	gl::SampleCoverage
	_ZN2gl14SampleCoverageE @ 1736 DATA
;	gl::TexParameterfv
	_ZN2gl14TexParameterfvE @ 1737 DATA
;	gl::TexParameteriv
	_ZN2gl14TexParameterivE @ 1738 DATA
;	gl::BindBufferRange
	_ZN2gl15BindBufferRangeE @ 1739 DATA
;	gl::BindFramebuffer
	_ZN2gl15BindFramebufferE @ 1740 DATA
;	gl::BindVertexArray
	_ZN2gl15BindVertexArrayE @ 1741 DATA
;	gl::BlitFramebuffer
	_ZN2gl15BlitFramebufferE @ 1742 DATA
;	gl::GenFramebuffers
	_ZN2gl15GenFramebuffersE @ 1743 DATA
;	gl::GenVertexArrays
	_ZN2gl15GenVertexArraysE @ 1744 DATA
;	gl::GetActiveAttrib
	_ZN2gl15GetActiveAttribE @ 1745 DATA
;	gl::GetShaderSource
	_ZN2gl15GetShaderSourceE @ 1746 DATA
;	gl::MultiDrawArrays
	_ZN2gl15MultiDrawArraysE @ 1747 DATA
;	gl::PointParameterf
	_ZN2gl15PointParameterfE @ 1748 DATA
;	gl::PointParameteri
	_ZN2gl15PointParameteriE @ 1749 DATA
;	gl::TexCoordPointer
	_ZN2gl15TexCoordPointerE @ 1750 DATA
;	gl::TexParameterIiv
	_ZN2gl15TexParameterIivE @ 1751 DATA
;	gl::ValidateProgram
	_ZN2gl15ValidateProgramE @ 1752 DATA
;	gl::VertexAttribI1i
	_ZN2gl15VertexAttribI1iE @ 1753 DATA
;	gl::VertexAttribI2i
	_ZN2gl15VertexAttribI2iE @ 1754 DATA
;	gl::VertexAttribI3i
	_ZN2gl15VertexAttribI3iE @ 1755 DATA
;	gl::VertexAttribI4i
	_ZN2gl15VertexAttribI4iE @ 1756 DATA
;	gl::g_initVariables
	_ZN2gl15g_initVariablesE @ 1757 DATA
;	gl::BindRenderbuffer
	_ZN2gl16BindRenderbufferE @ 1758 DATA
;	gl::GenRenderbuffers
	_ZN2gl16GenRenderbuffersE @ 1759 DATA
;	gl::GetActiveUniform
	_ZN2gl16GetActiveUniformE @ 1760 DATA
;	gl::GetBufferSubData
	_ZN2gl16GetBufferSubDataE @ 1761 DATA
;	gl::GetQueryObjectiv
	_ZN2gl16GetQueryObjectivE @ 1762 DATA
;	gl::GetShaderInfoLog
	_ZN2gl16GetShaderInfoLogE @ 1763 DATA
;	gl::PointParameterfv
	_ZN2gl16PointParameterfvE @ 1764 DATA
;	gl::PointParameteriv
	_ZN2gl16PointParameterivE @ 1765 DATA
;	gl::TexParameterIuiv
	_ZN2gl16TexParameterIuivE @ 1766 DATA
;	gl::UniformMatrix2fv
	_ZN2gl16UniformMatrix2fvE @ 1767 DATA
;	gl::UniformMatrix3fv
	_ZN2gl16UniformMatrix3fvE @ 1768 DATA
;	gl::UniformMatrix4fv
	_ZN2gl16UniformMatrix4fvE @ 1769 DATA
;	gl::VertexAttribI1iv
	_ZN2gl16VertexAttribI1ivE @ 1770 DATA
;	gl::VertexAttribI1ui
	_ZN2gl16VertexAttribI1uiE @ 1771 DATA
;	gl::VertexAttribI2iv
	_ZN2gl16VertexAttribI2ivE @ 1772 DATA
;	gl::VertexAttribI2ui
	_ZN2gl16VertexAttribI2uiE @ 1773 DATA
;	gl::VertexAttribI3iv
	_ZN2gl16VertexAttribI3ivE @ 1774 DATA
;	gl::VertexAttribI3ui
	_ZN2gl16VertexAttribI3uiE @ 1775 DATA
;	gl::VertexAttribI4bv
	_ZN2gl16VertexAttribI4bvE @ 1776 DATA
;	gl::VertexAttribI4iv
	_ZN2gl16VertexAttribI4ivE @ 1777 DATA
;	gl::VertexAttribI4sv
	_ZN2gl16VertexAttribI4svE @ 1778 DATA
;	gl::VertexAttribI4ui
	_ZN2gl16VertexAttribI4uiE @ 1779 DATA
;	gl::BlendFuncSeparate
	_ZN2gl17BlendFuncSeparateE @ 1780 DATA
;	gl::CopyBufferSubData
	_ZN2gl17CopyBufferSubDataE @ 1781 DATA
;	gl::CopyTexSubImage1D
	_ZN2gl17CopyTexSubImage1DE @ 1782 DATA
;	gl::CopyTexSubImage2D
	_ZN2gl17CopyTexSubImage2DE @ 1783 DATA
;	gl::CopyTexSubImage3D
	_ZN2gl17CopyTexSubImage3DE @ 1784 DATA
;	gl::DrawRangeElements
	_ZN2gl17DrawRangeElementsE @ 1785 DATA
;	gl::EnableClientState
	_ZN2gl17EnableClientStateE @ 1786 DATA
;	gl::GetAttribLocation
	_ZN2gl17GetAttribLocationE @ 1787 DATA
;	gl::GetBufferPointerv
	_ZN2gl17GetBufferPointervE @ 1788 DATA
;	gl::GetProgramInfoLog
	_ZN2gl17GetProgramInfoLogE @ 1789 DATA
;	gl::GetQueryObjectuiv
	_ZN2gl17GetQueryObjectuivE @ 1790 DATA
;	gl::GetTexParameterfv
	_ZN2gl17GetTexParameterfvE @ 1791 DATA
;	gl::GetTexParameteriv
	_ZN2gl17GetTexParameterivE @ 1792 DATA
;	gl::GetUniformIndices
	_ZN2gl17GetUniformIndicesE @ 1793 DATA
;	gl::GetVertexAttribdv
	_ZN2gl17GetVertexAttribdvE @ 1794 DATA
;	gl::GetVertexAttribfv
	_ZN2gl17GetVertexAttribfvE @ 1795 DATA
;	gl::GetVertexAttribiv
	_ZN2gl17GetVertexAttribivE @ 1796 DATA
;	gl::MultiDrawElements
	_ZN2gl17MultiDrawElementsE @ 1797 DATA
;	gl::StencilOpSeparate
	_ZN2gl17StencilOpSeparateE @ 1798 DATA
;	gl::VertexAttribI1uiv
	_ZN2gl17VertexAttribI1uivE @ 1799 DATA
;	gl::VertexAttribI2uiv
	_ZN2gl17VertexAttribI2uivE @ 1800 DATA
;	gl::VertexAttribI3uiv
	_ZN2gl17VertexAttribI3uivE @ 1801 DATA
;	gl::VertexAttribI4ubv
	_ZN2gl17VertexAttribI4ubvE @ 1802 DATA
;	gl::VertexAttribI4uiv
	_ZN2gl17VertexAttribI4uivE @ 1803 DATA
;	gl::VertexAttribI4usv
	_ZN2gl17VertexAttribI4usvE @ 1804 DATA
;	gl::BindAttribLocation
	_ZN2gl18BindAttribLocationE @ 1805 DATA
;	gl::DeleteFramebuffers
	_ZN2gl18DeleteFramebuffersE @ 1806 DATA
;	gl::DeleteVertexArrays
	_ZN2gl18DeleteVertexArraysE @ 1807 DATA
;	gl::DisableClientState
	_ZN2gl18DisableClientStateE @ 1808 DATA
;	gl::GetAttachedShaders
	_ZN2gl18GetAttachedShadersE @ 1809 DATA
;	gl::GetTexParameterIiv
	_ZN2gl18GetTexParameterIivE @ 1810 DATA
;	gl::GetUniformLocation
	_ZN2gl18GetUniformLocationE @ 1811 DATA
;	gl::GetVertexAttribIiv
	_ZN2gl18GetVertexAttribIivE @ 1812 DATA
;	gl::UniformMatrix2x3fv
	_ZN2gl18UniformMatrix2x3fvE @ 1813 DATA
;	gl::UniformMatrix2x4fv
	_ZN2gl18UniformMatrix2x4fvE @ 1814 DATA
;	gl::UniformMatrix3x2fv
	_ZN2gl18UniformMatrix3x2fvE @ 1815 DATA
;	gl::UniformMatrix3x4fv
	_ZN2gl18UniformMatrix3x4fvE @ 1816 DATA
;	gl::UniformMatrix4x2fv
	_ZN2gl18UniformMatrix4x2fvE @ 1817 DATA
;	gl::UniformMatrix4x3fv
	_ZN2gl18UniformMatrix4x3fvE @ 1818 DATA
;	gl::DeleteRenderbuffers
	_ZN2gl19DeleteRenderbuffersE @ 1819 DATA
;	gl::DrawArraysInstanced
	_ZN2gl19DrawArraysInstancedE @ 1820 DATA
;	gl::GetActiveUniformsiv
	_ZN2gl19GetActiveUniformsivE @ 1821 DATA
;	gl::GetFragDataLocation
	_ZN2gl19GetFragDataLocationE @ 1822 DATA
;	gl::GetTexParameterIuiv
	_ZN2gl19GetTexParameterIuivE @ 1823 DATA
;	gl::GetVertexAttribIuiv
	_ZN2gl19GetVertexAttribIuivE @ 1824 DATA
;	gl::InitializeVariables::InitializeVariables()
	_ZN2gl19InitializeVariablesC1Ev @ 1825
;	gl::RenderbufferStorage
	_ZN2gl19RenderbufferStorageE @ 1826 DATA
;	gl::StencilFuncSeparate
	_ZN2gl19StencilFuncSeparateE @ 1827 DATA
;	gl::StencilMaskSeparate
	_ZN2gl19StencilMaskSeparateE @ 1828 DATA
;	gl::UniformBlockBinding
	_ZN2gl19UniformBlockBindingE @ 1829 DATA
;	gl::VertexAttribPointer
	_ZN2gl19VertexAttribPointerE @ 1830 DATA
;	gl::BindFragDataLocation
	_ZN2gl20BindFragDataLocationE @ 1831 DATA
;	gl::CompressedTexImage1D
	_ZN2gl20CompressedTexImage1DE @ 1832 DATA
;	gl::CompressedTexImage2D
	_ZN2gl20CompressedTexImage2DE @ 1833 DATA
;	gl::CompressedTexImage3D
	_ZN2gl20CompressedTexImage3DE @ 1834 DATA
;	gl::EndConditionalRender
	_ZN2gl20EndConditionalRenderE @ 1835 DATA
;	gl::EndTransformFeedback
	_ZN2gl20EndTransformFeedbackE @ 1836 DATA
;	gl::FramebufferTexture1D
	_ZN2gl20FramebufferTexture1DE @ 1837 DATA
;	gl::FramebufferTexture2D
	_ZN2gl20FramebufferTexture2DE @ 1838 DATA
;	gl::FramebufferTexture3D
	_ZN2gl20FramebufferTexture3DE @ 1839 DATA
;	gl::GetActiveUniformName
	_ZN2gl20GetActiveUniformNameE @ 1840 DATA
;	gl::GetBufferParameteriv
	_ZN2gl20GetBufferParameterivE @ 1841 DATA
;	gl::GetUniformBlockIndex
	_ZN2gl20GetUniformBlockIndexE @ 1842 DATA
;	gl::VertexAttribIPointer
	_ZN2gl20VertexAttribIPointerE @ 1843 DATA
;	gl::BlendEquationSeparate
	_ZN2gl21BlendEquationSeparateE @ 1844 DATA
;	gl::DrawElementsInstanced
	_ZN2gl21DrawElementsInstancedE @ 1845 DATA
;	gl::GetCompressedTexImage
	_ZN2gl21GetCompressedTexImageE @ 1846 DATA
;	gl::PrimitiveRestartIndex
	_ZN2gl21PrimitiveRestartIndexE @ 1847 DATA
;	gl::BeginConditionalRender
	_ZN2gl22BeginConditionalRenderE @ 1848 DATA
;	gl::BeginTransformFeedback
	_ZN2gl22BeginTransformFeedbackE @ 1849 DATA
;	gl::CheckFramebufferStatus
	_ZN2gl22CheckFramebufferStatusE @ 1850 DATA
;	gl::FlushMappedBufferRange
	_ZN2gl22FlushMappedBufferRangeE @ 1851 DATA
;	gl::GetTexLevelParameterfv
	_ZN2gl22GetTexLevelParameterfvE @ 1852 DATA
;	gl::GetTexLevelParameteriv
	_ZN2gl22GetTexLevelParameterivE @ 1853 DATA
;	gl::CompressedTexSubImage1D
	_ZN2gl23CompressedTexSubImage1DE @ 1854 DATA
;	gl::CompressedTexSubImage2D
	_ZN2gl23CompressedTexSubImage2DE @ 1855 DATA
;	gl::CompressedTexSubImage3D
	_ZN2gl23CompressedTexSubImage3DE @ 1856 DATA
;	gl::EnableVertexAttribArray
	_ZN2gl23EnableVertexAttribArrayE @ 1857 DATA
;	gl::FramebufferRenderbuffer
	_ZN2gl23FramebufferRenderbufferE @ 1858 DATA
;	gl::FramebufferTextureLayer
	_ZN2gl23FramebufferTextureLayerE @ 1859 DATA
;	gl::GetActiveUniformBlockiv
	_ZN2gl23GetActiveUniformBlockivE @ 1860 DATA
;	gl::GetVertexAttribPointerv
	_ZN2gl23GetVertexAttribPointervE @ 1861 DATA
;	gl::DisableVertexAttribArray
	_ZN2gl24DisableVertexAttribArrayE @ 1862 DATA
;	gl::GetActiveUniformBlockName
	_ZN2gl25GetActiveUniformBlockNameE @ 1863 DATA
;	gl::TransformFeedbackVaryings
	_ZN2gl25TransformFeedbackVaryingsE @ 1864 DATA
;	gl::GetRenderbufferParameteriv
	_ZN2gl26GetRenderbufferParameterivE @ 1865 DATA
;	gl::GetTransformFeedbackVarying
	_ZN2gl27GetTransformFeedbackVaryingE @ 1866 DATA
;	gl::RenderbufferStorageMultisample
	_ZN2gl30RenderbufferStorageMultisampleE @ 1867 DATA
;	gl::GetFramebufferAttachmentParameteriv
	_ZN2gl35GetFramebufferAttachmentParameterivE @ 1868 DATA
;	gl::Hint
	_ZN2gl4HintE @ 1869 DATA
;	gl::Clear
	_ZN2gl5ClearE @ 1870 DATA
;	gl::Flush
	_ZN2gl5FlushE @ 1871 DATA
;	gl::Ortho
	_ZN2gl5OrthoE @ 1872 DATA
;	gl::Enable
	_ZN2gl6EnableE @ 1873 DATA
;	gl::Finish
	_ZN2gl6FinishE @ 1874 DATA
;	gl::Color3d
	_ZN2gl7Color3dE @ 1875 DATA
;	gl::Disable
	_ZN2gl7DisableE @ 1876 DATA
;	gl::Enablei
	_ZN2gl7EnableiE @ 1877 DATA
;	gl::Indexub
	_ZN2gl7IndexubE @ 1878 DATA
;	gl::IsQuery
	_ZN2gl7IsQueryE @ 1879 DATA
;	gl::LogicOp
	_ZN2gl7LogicOpE @ 1880 DATA
;	gl::Scissor
	_ZN2gl7ScissorE @ 1881 DATA
;	gl::TexEnvi
	_ZN2gl7TexEnviE @ 1882 DATA
;	gl::CullFace
	_ZN2gl8CullFaceE @ 1883 DATA
;	gl::Disablei
	_ZN2gl8DisableiE @ 1884 DATA
;	gl::EndQuery
	_ZN2gl8EndQueryE @ 1885 DATA
;	gl::GetError
	_ZN2gl8GetErrorE @ 1886 DATA
;	gl::Indexubv
	_ZN2gl8IndexubvE @ 1887 DATA
;	gl::IsBuffer
	_ZN2gl8IsBufferE @ 1888 DATA
;	gl::IsShader
	_ZN2gl8IsShaderE @ 1889 DATA
;	gl::Viewport
	_ZN2gl8ViewportE @ 1890 DATA
;	gl::BlendFunc
	_ZN2gl9BlendFuncE @ 1891 DATA
;	gl::ColorMask
	_ZN2gl9ColorMaskE @ 1892 DATA
;	gl::DepthFunc
	_ZN2gl9DepthFuncE @ 1893 DATA
;	gl::DepthMask
	_ZN2gl9DepthMaskE @ 1894 DATA
;	gl::FrontFace
	_ZN2gl9FrontFaceE @ 1895 DATA
;	gl::GetFloatv
	_ZN2gl9GetFloatvE @ 1896 DATA
;	gl::GetString
	_ZN2gl9GetStringE @ 1897 DATA
;	gl::IsEnabled
	_ZN2gl9IsEnabledE @ 1898 DATA
;	gl::IsProgram
	_ZN2gl9IsProgramE @ 1899 DATA
;	gl::IsTexture
	_ZN2gl9IsTextureE @ 1900 DATA
;	gl::LineWidth
	_ZN2gl9LineWidthE @ 1901 DATA
;	gl::MapBuffer
	_ZN2gl9MapBufferE @ 1902 DATA
;	gl::PointSize
	_ZN2gl9PointSizeE @ 1903 DATA
;	gl::StencilOp
	_ZN2gl9StencilOpE @ 1904 DATA
;	gl::TexBuffer
	_ZN2gl9TexBufferE @ 1905 DATA
;	gl::Uniform1f
	_ZN2gl9Uniform1fE @ 1906 DATA
;	gl::Uniform1i
	_ZN2gl9Uniform1iE @ 1907 DATA
;	gl::Uniform2f
	_ZN2gl9Uniform2fE @ 1908 DATA
;	gl::Uniform2i
	_ZN2gl9Uniform2iE @ 1909 DATA
;	gl::Uniform3f
	_ZN2gl9Uniform3fE @ 1910 DATA
;	gl::Uniform3i
	_ZN2gl9Uniform3iE @ 1911 DATA
;	gl::Uniform4f
	_ZN2gl9Uniform4fE @ 1912 DATA
;	gl::Uniform4i
	_ZN2gl9Uniform4iE @ 1913 DATA
;	CvType::last
	_ZN6CvType4lastE @ 1914 DATA
;	CvType::first
	_ZN6CvType5firstE @ 1915 DATA
;	CvType::CvType(char const*, int (*)(void const*), void (*)(void**), void* (*)(CvFileStorage*, CvFileNode*), void (*)(CvFileStorage*, char const*, void const*, CvAttrList), void* (*)(void const*))
	_ZN6CvTypeC1EPKcPFiPKvEPFvPPvEPFS6_P13CvFileStorageP10CvFileNodeEPFvSB_S1_S3_10CvAttrListEPFS6_S3_E @ 1916
;	CvType::CvType(char const*, int (*)(void const*), void (*)(void**), void* (*)(CvFileStorage*, CvFileNode*), void (*)(CvFileStorage*, char const*, void const*, CvAttrList), void* (*)(void const*))
	_ZN6CvTypeC2EPKcPFiPKvEPFvPPvEPFS6_P13CvFileStorageP10CvFileNodeEPFvSB_S1_S3_10CvAttrListEPFS6_S3_E @ 1917
;	CvType::~CvType()
	_ZN6CvTypeD1Ev @ 1918
;	CvType::~CvType()
	_ZN6CvTypeD2Ev @ 1919
;	CvModule::last
	_ZN8CvModule4lastE @ 1920 DATA
;	CvModule::first
	_ZN8CvModule5firstE @ 1921 DATA
;	CvModule::CvModule(CvModuleInfo*)
	_ZN8CvModuleC1EP12CvModuleInfo @ 1922
;	CvModule::CvModule(CvModuleInfo*)
	_ZN8CvModuleC2EP12CvModuleInfo @ 1923
;	CvModule::~CvModule()
	_ZN8CvModuleD1Ev @ 1924
;	CvModule::~CvModule()
	_ZN8CvModuleD2Ev @ 1925
;	cv::CFormatter::write(std::ostream&, void const*, int, int, int const*, int) const
	_ZNK2cv10CFormatter5writeERSoPKviiPKii @ 1926
;	cv::CFormatter::write(std::ostream&, cv::Mat const&, int const*, int) const
	_ZNK2cv10CFormatter5writeERSoRKNS_3MatEPKii @ 1927
;	cv::MatOp_GEMM::elementWise(cv::MatExpr const&) const
	_ZNK2cv10MatOp_GEMM11elementWiseERKNS_7MatExprE @ 1928
;	cv::MatOp_GEMM::add(cv::MatExpr const&, cv::MatExpr const&, cv::MatExpr&) const
	_ZNK2cv10MatOp_GEMM3addERKNS_7MatExprES3_RS1_ @ 1929
;	cv::MatOp_GEMM::assign(cv::MatExpr const&, cv::Mat&, int) const
	_ZNK2cv10MatOp_GEMM6assignERKNS_7MatExprERNS_3MatEi @ 1930
;	cv::MatOp_GEMM::multiply(cv::MatExpr const&, double, cv::MatExpr&) const
	_ZNK2cv10MatOp_GEMM8multiplyERKNS_7MatExprEdRS1_ @ 1931
;	cv::MatOp_GEMM::subtract(cv::MatExpr const&, cv::MatExpr const&, cv::MatExpr&) const
	_ZNK2cv10MatOp_GEMM8subtractERKNS_7MatExprES3_RS1_ @ 1932
;	cv::MatOp_GEMM::transpose(cv::MatExpr const&, cv::MatExpr&) const
	_ZNK2cv10MatOp_GEMM9transposeERKNS_7MatExprERS1_ @ 1933
;	cv::FileStorage::getFirstTopLevelNode() const
	_ZNK2cv11FileStorage20getFirstTopLevelNodeEv @ 1934
;	cv::FileStorage::root(int) const
	_ZNK2cv11FileStorage4rootEi @ 1935
;	cv::FileStorage::isOpened() const
	_ZNK2cv11FileStorage8isOpenedEv @ 1936
;	cv::FileStorage::operator*() const
	_ZNK2cv11FileStoragedeEv @ 1937
;	cv::FileStorage::operator[](char const*) const
	_ZNK2cv11FileStorageixEPKc @ 1938
;	cv::FileStorage::operator[](std::string const&) const
	_ZNK2cv11FileStorageixERKSs @ 1939
;	cv::LessThanIdx<signed char>::operator()(int, int) const
	_ZNK2cv11LessThanIdxIaEclEii @ 1940
;	cv::LessThanIdx<double>::operator()(int, int) const
	_ZNK2cv11LessThanIdxIdEclEii @ 1941
;	cv::LessThanIdx<float>::operator()(int, int) const
	_ZNK2cv11LessThanIdxIfEclEii @ 1942
;	cv::LessThanIdx<unsigned char>::operator()(int, int) const
	_ZNK2cv11LessThanIdxIhEclEii @ 1943
;	cv::LessThanIdx<int>::operator()(int, int) const
	_ZNK2cv11LessThanIdxIiEclEii @ 1944
;	cv::LessThanIdx<short>::operator()(int, int) const
	_ZNK2cv11LessThanIdxIsEclEii @ 1945
;	cv::LessThanIdx<unsigned short>::operator()(int, int) const
	_ZNK2cv11LessThanIdxItEclEii @ 1946
;	cv::MatOp_AddEx::elementWise(cv::MatExpr const&) const
	_ZNK2cv11MatOp_AddEx11elementWiseERKNS_7MatExprE @ 1947
;	cv::MatOp_AddEx::abs(cv::MatExpr const&, cv::MatExpr&) const
	_ZNK2cv11MatOp_AddEx3absERKNS_7MatExprERS1_ @ 1948
;	cv::MatOp_AddEx::add(cv::MatExpr const&, cv::Scalar_<double> const&, cv::MatExpr&) const
	_ZNK2cv11MatOp_AddEx3addERKNS_7MatExprERKNS_7Scalar_IdEERS1_ @ 1949
;	cv::MatOp_AddEx::assign(cv::MatExpr const&, cv::Mat&, int) const
	_ZNK2cv11MatOp_AddEx6assignERKNS_7MatExprERNS_3MatEi @ 1950
;	cv::MatOp_AddEx::divide(double, cv::MatExpr const&, cv::MatExpr&) const
	_ZNK2cv11MatOp_AddEx6divideEdRKNS_7MatExprERS1_ @ 1951
;	cv::MatOp_AddEx::multiply(cv::MatExpr const&, double, cv::MatExpr&) const
	_ZNK2cv11MatOp_AddEx8multiplyERKNS_7MatExprEdRS1_ @ 1952
;	cv::MatOp_AddEx::subtract(cv::Scalar_<double> const&, cv::MatExpr const&, cv::MatExpr&) const
	_ZNK2cv11MatOp_AddEx8subtractERKNS_7Scalar_IdEERKNS_7MatExprERS5_ @ 1953
;	cv::MatOp_AddEx::transpose(cv::MatExpr const&, cv::MatExpr&) const
	_ZNK2cv11MatOp_AddEx9transposeERKNS_7MatExprERS1_ @ 1954
;	cv::MatOp_Solve::elementWise(cv::MatExpr const&) const
	_ZNK2cv11MatOp_Solve11elementWiseERKNS_7MatExprE @ 1955
;	cv::MatOp_Solve::assign(cv::MatExpr const&, cv::Mat&, int) const
	_ZNK2cv11MatOp_Solve6assignERKNS_7MatExprERNS_3MatEi @ 1956
;	cv::RotatedRect::boundingRect() const
	_ZNK2cv11RotatedRect12boundingRectEv @ 1957
;	cv::RotatedRect::points(cv::Point_<float>*) const
	_ZNK2cv11RotatedRect6pointsEPNS_6Point_IfEE @ 1958
;	cv::RotatedRect::operator CvBox2D() const
	_ZNK2cv11RotatedRectcv7CvBox2DEv @ 1959
;	cv::_InputArray::getGlBuffer() const
	_ZNK2cv11_InputArray11getGlBufferEv @ 1960
;	cv::_InputArray::getGlTexture() const
	_ZNK2cv11_InputArray12getGlTextureEv @ 1961
;	cv::_InputArray::getMatVector(std::vector<cv::Mat, std::allocator<cv::Mat> >&) const
	_ZNK2cv11_InputArray12getMatVectorERSt6vectorINS_3MatESaIS2_EE @ 1962
;	cv::_InputArray::getOGlBuffer() const
	_ZNK2cv11_InputArray12getOGlBufferEv @ 1963
;	cv::_InputArray::getOGlTexture2D() const
	_ZNK2cv11_InputArray15getOGlTexture2DEv @ 1964
;	cv::_InputArray::kind() const
	_ZNK2cv11_InputArray4kindEv @ 1965
;	cv::_InputArray::size(int) const
	_ZNK2cv11_InputArray4sizeEi @ 1966
;	cv::_InputArray::type(int) const
	_ZNK2cv11_InputArray4typeEi @ 1967
;	cv::_InputArray::depth(int) const
	_ZNK2cv11_InputArray5depthEi @ 1968
;	cv::_InputArray::empty() const
	_ZNK2cv11_InputArray5emptyEv @ 1969
;	cv::_InputArray::total(int) const
	_ZNK2cv11_InputArray5totalEi @ 1970
;	cv::_InputArray::getMat(int) const
	_ZNK2cv11_InputArray6getMatEi @ 1971
;	cv::_InputArray::channels(int) const
	_ZNK2cv11_InputArray8channelsEi @ 1972
;	cv::_InputArray::getGpuMat() const
	_ZNK2cv11_InputArray9getGpuMatEv @ 1973
;	cv::CSVFormatter::write(std::ostream&, void const*, int, int, int const*, int) const
	_ZNK2cv12CSVFormatter5writeERSoPKviiPKii @ 1974
;	cv::CSVFormatter::write(std::ostream&, cv::Mat const&, int const*, int) const
	_ZNK2cv12CSVFormatter5writeERSoRKNS_3MatEPKii @ 1975
;	cv::LineIterator::pos() const
	_ZNK2cv12LineIterator3posEv @ 1976
;	cv::MatOp_Invert::elementWise(cv::MatExpr const&) const
	_ZNK2cv12MatOp_Invert11elementWiseERKNS_7MatExprE @ 1977
;	cv::MatOp_Invert::assign(cv::MatExpr const&, cv::Mat&, int) const
	_ZNK2cv12MatOp_Invert6assignERKNS_7MatExprERNS_3MatEi @ 1978
;	cv::MatOp_Invert::matmul(cv::MatExpr const&, cv::MatExpr const&, cv::MatExpr&) const
	_ZNK2cv12MatOp_Invert6matmulERKNS_7MatExprES3_RS1_ @ 1979
;	cv::TermCriteria::operator CvTermCriteria() const
	_ZNK2cv12TermCriteriacv14CvTermCriteriaEv @ 1980
;	cv::_OutputArray::getGpuMatRef() const
	_ZNK2cv12_OutputArray12getGpuMatRefEv @ 1981
;	cv::_OutputArray::getOGlBufferRef() const
	_ZNK2cv12_OutputArray15getOGlBufferRefEv @ 1982
;	cv::_OutputArray::getOGlTexture2DRef() const
	_ZNK2cv12_OutputArray18getOGlTexture2DRefEv @ 1983
;	cv::_OutputArray::clear() const
	_ZNK2cv12_OutputArray5clearEv @ 1984
;	cv::_OutputArray::create(cv::Size_<int>, int, int, bool, int) const
	_ZNK2cv12_OutputArray6createENS_5Size_IiEEiibi @ 1985
;	cv::_OutputArray::create(int, int const*, int, int, bool, int) const
	_ZNK2cv12_OutputArray6createEiPKiiibi @ 1986
;	cv::_OutputArray::create(int, int, int, int, bool, int) const
	_ZNK2cv12_OutputArray6createEiiiibi @ 1987
;	cv::_OutputArray::needed() const
	_ZNK2cv12_OutputArray6neededEv @ 1988
;	cv::_OutputArray::release() const
	_ZNK2cv12_OutputArray7releaseEv @ 1989
;	cv::_OutputArray::fixedSize() const
	_ZNK2cv12_OutputArray9fixedSizeEv @ 1990
;	cv::_OutputArray::fixedType() const
	_ZNK2cv12_OutputArray9fixedTypeEv @ 1991
;	cv::_OutputArray::getMatRef(int) const
	_ZNK2cv12_OutputArray9getMatRefEi @ 1992
;	cv::AlgorithmInfo::get(cv::Algorithm const*, char const*, int, void*) const
	_ZNK2cv13AlgorithmInfo3getEPKNS_9AlgorithmEPKciPv @ 1993
;	cv::AlgorithmInfo::set(cv::Algorithm*, char const*, int, void const*, bool) const
	_ZNK2cv13AlgorithmInfo3setEPNS_9AlgorithmEPKciPKvb @ 1994
;	cv::AlgorithmInfo::name() const
	_ZNK2cv13AlgorithmInfo4nameEv @ 1995
;	cv::AlgorithmInfo::read(cv::Algorithm*, cv::FileNode const&) const
	_ZNK2cv13AlgorithmInfo4readEPNS_9AlgorithmERKNS_8FileNodeE @ 1996
;	cv::AlgorithmInfo::write(cv::Algorithm const*, cv::FileStorage&) const
	_ZNK2cv13AlgorithmInfo5writeEPKNS_9AlgorithmERNS_11FileStorageE @ 1997
;	cv::AlgorithmInfo::getParams(std::vector<std::string, std::allocator<std::string> >&) const
	_ZNK2cv13AlgorithmInfo9getParamsERSt6vectorISsSaISsEE @ 1998
;	cv::AlgorithmInfo::paramHelp(char const*) const
	_ZNK2cv13AlgorithmInfo9paramHelpEPKc @ 1999
;	cv::AlgorithmInfo::paramType(char const*) const
	_ZNK2cv13AlgorithmInfo9paramTypeEPKc @ 2000
;	cv::MatOp_Identity::elementWise(cv::MatExpr const&) const
	_ZNK2cv14MatOp_Identity11elementWiseERKNS_7MatExprE @ 2001
;	cv::MatOp_Identity::assign(cv::MatExpr const&, cv::Mat&, int) const
	_ZNK2cv14MatOp_Identity6assignERKNS_7MatExprERNS_3MatEi @ 2002
;	cv::NumpyFormatter::write(std::ostream&, void const*, int, int, int const*, int) const
	_ZNK2cv14NumpyFormatter5writeERSoPKviiPKii @ 2003
;	cv::NumpyFormatter::write(std::ostream&, cv::Mat const&, int const*, int) const
	_ZNK2cv14NumpyFormatter5writeERSoRKNS_3MatEPKii @ 2004
;	cv::VecReaderProxy<cv::Mat, 0>::operator()(std::vector<cv::Mat, std::allocator<cv::Mat> >&, unsigned long long) const
	_ZNK2cv14VecReaderProxyINS_3MatELi0EEclERSt6vectorIS1_SaIS1_EEy @ 2005
;	cv::VecWriterProxy<cv::Mat, 0>::operator()(std::vector<cv::Mat, std::allocator<cv::Mat> > const&) const
	_ZNK2cv14VecWriterProxyINS_3MatELi0EEclERKSt6vectorIS1_SaIS1_EE @ 2006
;	cv::MatlabFormatter::write(std::ostream&, void const*, int, int, int const*, int) const
	_ZNK2cv15MatlabFormatter5writeERSoPKviiPKii @ 2007
;	cv::MatlabFormatter::write(std::ostream&, cv::Mat const&, int const*, int) const
	_ZNK2cv15MatlabFormatter5writeERSoRKNS_3MatEPKii @ 2008
;	cv::PythonFormatter::write(std::ostream&, void const*, int, int, int const*, int) const
	_ZNK2cv15PythonFormatter5writeERSoPKviiPKii @ 2009
;	cv::PythonFormatter::write(std::ostream&, cv::Mat const&, int const*, int) const
	_ZNK2cv15PythonFormatter5writeERSoRKNS_3MatEPKii @ 2010
;	cv::BatchDistInvoker::operator()(cv::Range const&) const
	_ZNK2cv16BatchDistInvokerclERKNS_5RangeE @ 2011
;	cv::FileNodeIterator::operator*() const
	_ZNK2cv16FileNodeIteratordeEv @ 2012
;	cv::FileNodeIterator::operator->() const
	_ZNK2cv16FileNodeIteratorptEv @ 2013
;	cv::MatConstIterator::pos(int*) const
	_ZNK2cv16MatConstIterator3posEPi @ 2014
;	cv::MatConstIterator::pos() const
	_ZNK2cv16MatConstIterator3posEv @ 2015
;	cv::MatConstIterator::lpos() const
	_ZNK2cv16MatConstIterator4lposEv @ 2016
;	cv::MatConstIterator::operator*() const
	_ZNK2cv16MatConstIteratordeEv @ 2017
;	cv::MatConstIterator::operator[](long long) const
	_ZNK2cv16MatConstIteratorixEx @ 2018
;	cv::MatOp_Initializer::elementWise(cv::MatExpr const&) const
	_ZNK2cv17MatOp_Initializer11elementWiseERKNS_7MatExprE @ 2019
;	cv::MatOp_Initializer::assign(cv::MatExpr const&, cv::Mat&, int) const
	_ZNK2cv17MatOp_Initializer6assignERKNS_7MatExprERNS_3MatEi @ 2020
;	cv::MatOp_Initializer::multiply(cv::MatExpr const&, double, cv::MatExpr&) const
	_ZNK2cv17MatOp_Initializer8multiplyERKNS_7MatExprEdRS1_ @ 2021
;	cv::SparseMatIterator::node() const
	_ZNK2cv17SparseMatIterator4nodeEv @ 2022
;	cv::KMeansDistanceComputer::operator()(cv::Range const&) const
	_ZNK2cv22KMeansDistanceComputerclERKNS_5RangeE @ 2023
;	cv::SparseMatConstIterator::node() const
	_ZNK2cv22SparseMatConstIterator4nodeEv @ 2024
;	cv::KMeansPPDistanceComputer::operator()(cv::Range const&) const
	_ZNK2cv24KMeansPPDistanceComputerclERKNS_5RangeE @ 2025
;	cv::Mat::checkVector(int, int, bool) const
	_ZNK2cv3Mat11checkVectorEiib @ 2026
;	cv::Mat::isSubmatrix() const
	_ZNK2cv3Mat11isSubmatrixEv @ 2027
;	cv::Mat::isContinuous() const
	_ZNK2cv3Mat12isContinuousEv @ 2028
;	cv::Mat::t() const
	_ZNK2cv3Mat1tEv @ 2029
;	cv::Mat::col(int) const
	_ZNK2cv3Mat3colEi @ 2030
;	cv::Mat::dot(cv::_InputArray const&) const
	_ZNK2cv3Mat3dotERKNS_11_InputArrayE @ 2031
;	cv::Mat::inv(int) const
	_ZNK2cv3Mat3invEi @ 2032
;	cv::Mat::mul(cv::_InputArray const&, double) const
	_ZNK2cv3Mat3mulERKNS_11_InputArrayEd @ 2033
;	cv::Mat::ptr(int const*) const
	_ZNK2cv3Mat3ptrEPKi @ 2034
;	cv::Mat::ptr(int) const
	_ZNK2cv3Mat3ptrEi @ 2035
;	cv::Mat::ptr(int, int) const
	_ZNK2cv3Mat3ptrEii @ 2036
;	cv::Mat::ptr(int, int, int) const
	_ZNK2cv3Mat3ptrEiii @ 2037
;	cv::Mat::row(int) const
	_ZNK2cv3Mat3rowEi @ 2038
;	cv::Mat::diag(int) const
	_ZNK2cv3Mat4diagEi @ 2039
;	cv::Mat::type() const
	_ZNK2cv3Mat4typeEv @ 2040
;	cv::Mat::MSize::operator()() const
	_ZNK2cv3Mat5MSizeclEv @ 2041
;	cv::Mat::MSize::operator int const*() const
	_ZNK2cv3Mat5MSizecvPKiEv @ 2042
;	cv::Mat::MSize::operator==(cv::Mat::MSize const&) const
	_ZNK2cv3Mat5MSizeeqERKS1_ @ 2043
;	cv::Mat::MSize::operator[](int) const
	_ZNK2cv3Mat5MSizeixEi @ 2044
;	cv::Mat::MSize::operator!=(cv::Mat::MSize const&) const
	_ZNK2cv3Mat5MSizeneERKS1_ @ 2045
;	cv::Mat::MStep::operator unsigned long long() const
	_ZNK2cv3Mat5MStepcvyEv @ 2046
;	cv::Mat::MStep::operator[](int) const
	_ZNK2cv3Mat5MStepixEi @ 2047
;	cv::Mat::clone() const
	_ZNK2cv3Mat5cloneEv @ 2048
;	cv::Mat::cross(cv::_InputArray const&) const
	_ZNK2cv3Mat5crossERKNS_11_InputArrayE @ 2049
;	cv::Mat::depth() const
	_ZNK2cv3Mat5depthEv @ 2050
;	cv::Mat::empty() const
	_ZNK2cv3Mat5emptyEv @ 2051
;	cv::Mat::step1(int) const
	_ZNK2cv3Mat5step1Ei @ 2052
;	cv::Mat::total() const
	_ZNK2cv3Mat5totalEv @ 2053
;	cv::Mat::copyTo(cv::_OutputArray const&) const
	_ZNK2cv3Mat6copyToERKNS_12_OutputArrayE @ 2054
;	cv::Mat::copyTo(cv::_OutputArray const&, cv::_InputArray const&) const
	_ZNK2cv3Mat6copyToERKNS_12_OutputArrayERKNS_11_InputArrayE @ 2055
;	cv::Mat::reshape(int, int) const
	_ZNK2cv3Mat7reshapeEii @ 2056
;	cv::Mat::reshape(int, int, int const*) const
	_ZNK2cv3Mat7reshapeEiiPKi @ 2057
;	cv::Mat::assignTo(cv::Mat&, int) const
	_ZNK2cv3Mat8assignToERS0_i @ 2058
;	cv::Mat::channels() const
	_ZNK2cv3Mat8channelsEv @ 2059
;	cv::Mat::colRange(cv::Range const&) const
	_ZNK2cv3Mat8colRangeERKNS_5RangeE @ 2060
;	cv::Mat::colRange(int, int) const
	_ZNK2cv3Mat8colRangeEii @ 2061
;	cv::Mat::elemSize() const
	_ZNK2cv3Mat8elemSizeEv @ 2062
;	cv::Mat::rowRange(cv::Range const&) const
	_ZNK2cv3Mat8rowRangeERKNS_5RangeE @ 2063
;	cv::Mat::rowRange(int, int) const
	_ZNK2cv3Mat8rowRangeEii @ 2064
;	cv::Mat::convertTo(cv::_OutputArray const&, int, double, double) const
	_ZNK2cv3Mat9convertToERKNS_12_OutputArrayEidd @ 2065
;	cv::Mat::elemSize1() const
	_ZNK2cv3Mat9elemSize1Ev @ 2066
;	cv::Mat::locateROI(cv::Size_<int>&, cv::Point_<int>&) const
	_ZNK2cv3Mat9locateROIERNS_5Size_IiEERNS_6Point_IiEE @ 2067
;	cv::Mat::operator()(cv::Range, cv::Range) const
	_ZNK2cv3MatclENS_5RangeES1_ @ 2068
;	cv::Mat::operator()(cv::Range const*) const
	_ZNK2cv3MatclEPKNS_5RangeE @ 2069
;	cv::Mat::operator()(cv::Rect_<int> const&) const
	_ZNK2cv3MatclERKNS_5Rect_IiEE @ 2070
;	cv::Mat::operator CvMat() const
	_ZNK2cv3Matcv5CvMatEv @ 2071
;	cv::Mat::operator CvMatND() const
	_ZNK2cv3Matcv7CvMatNDEv @ 2072
;	cv::Mat::operator _IplImage() const
	_ZNK2cv3Matcv9_IplImageEv @ 2073
;	cv::PCA::backProject(cv::_InputArray const&) const
	_ZNK2cv3PCA11backProjectERKNS_11_InputArrayE @ 2074
;	cv::PCA::backProject(cv::_InputArray const&, cv::_OutputArray const&) const
	_ZNK2cv3PCA11backProjectERKNS_11_InputArrayERKNS_12_OutputArrayE @ 2075
;	cv::PCA::project(cv::_InputArray const&) const
	_ZNK2cv3PCA7projectERKNS_11_InputArrayE @ 2076
;	cv::PCA::project(cv::_InputArray const&, cv::_OutputArray const&) const
	_ZNK2cv3PCA7projectERKNS_11_InputArrayERKNS_12_OutputArrayE @ 2077
;	cv::Ptr<CvFileStorage>::empty() const
	_ZNK2cv3PtrI13CvFileStorageE5emptyEv @ 2078
;	cv::Ptr<CvFileStorage>::operator CvFileStorage const*() const
	_ZNK2cv3PtrI13CvFileStorageEcvPKS1_Ev @ 2079
;	cv::Ptr<cv::Algorithm>::empty() const
	_ZNK2cv3PtrINS_9AlgorithmEE5emptyEv @ 2080
;	cv::SVD::backSubst(cv::_InputArray const&, cv::_OutputArray const&) const
	_ZNK2cv3SVD9backSubstERKNS_11_InputArrayERKNS_12_OutputArrayE @ 2081
;	cv::Vec<double, 2>::conj() const
	_ZNK2cv3VecIdLi2EE4conjEv @ 2082
;	cv::Vec<double, 2>::operator[](int) const
	_ZNK2cv3VecIdLi2EEixEi @ 2083
;	cv::Vec<double, 3>::cross(cv::Vec<double, 3> const&) const
	_ZNK2cv3VecIdLi3EE5crossERKS1_ @ 2084
;	cv::Vec<double, 4>::conj() const
	_ZNK2cv3VecIdLi4EE4conjEv @ 2085
;	cv::Vec<double, 4>::operator[](int) const
	_ZNK2cv3VecIdLi4EEixEi @ 2086
;	cv::Vec<float, 2>::conj() const
	_ZNK2cv3VecIfLi2EE4conjEv @ 2087
;	cv::Vec<float, 2>::operator[](int) const
	_ZNK2cv3VecIfLi2EEixEi @ 2088
;	cv::Vec<float, 3>::cross(cv::Vec<float, 3> const&) const
	_ZNK2cv3VecIfLi3EE5crossERKS1_ @ 2089
;	cv::Vec<float, 4>::conj() const
	_ZNK2cv3VecIfLi4EE4conjEv @ 2090
;	cv::Vec<float, 4>::operator[](int) const
	_ZNK2cv3VecIfLi4EEixEi @ 2091
;	cv::Vec<int, 2>::operator[](int) const
	_ZNK2cv3VecIiLi2EEixEi @ 2092
;	cv::gpu::DeviceInfo::freeMemory() const
	_ZNK2cv3gpu10DeviceInfo10freeMemoryEv @ 2093
;	cv::gpu::DeviceInfo::queryMemory(unsigned long long&, unsigned long long&) const
	_ZNK2cv3gpu10DeviceInfo11queryMemoryERyS2_ @ 2094
;	cv::gpu::DeviceInfo::totalMemory() const
	_ZNK2cv3gpu10DeviceInfo11totalMemoryEv @ 2095
;	cv::gpu::DeviceInfo::isCompatible() const
	_ZNK2cv3gpu10DeviceInfo12isCompatibleEv @ 2096
;	cv::gpu::DeviceInfo::majorVersion() const
	_ZNK2cv3gpu10DeviceInfo12majorVersionEv @ 2097
;	cv::gpu::DeviceInfo::minorVersion() const
	_ZNK2cv3gpu10DeviceInfo12minorVersionEv @ 2098
;	cv::gpu::DeviceInfo::sharedMemPerBlock() const
	_ZNK2cv3gpu10DeviceInfo17sharedMemPerBlockEv @ 2099
;	cv::gpu::DeviceInfo::multiProcessorCount() const
	_ZNK2cv3gpu10DeviceInfo19multiProcessorCountEv @ 2100
;	cv::gpu::DeviceInfo::name() const
	_ZNK2cv3gpu10DeviceInfo4nameEv @ 2101
;	cv::gpu::DeviceInfo::deviceID() const
	_ZNK2cv3gpu10DeviceInfo8deviceIDEv @ 2102
;	cv::gpu::DeviceInfo::supports(cv::gpu::FeatureSet) const
	_ZNK2cv3gpu10DeviceInfo8supportsENS0_10FeatureSetE @ 2103
;	cv::gpu::GpuMat::isContinuous() const
	_ZNK2cv3gpu6GpuMat12isContinuousEv @ 2104
;	cv::gpu::GpuMat::col(int) const
	_ZNK2cv3gpu6GpuMat3colEi @ 2105
;	cv::gpu::GpuMat::ptr(int) const
	_ZNK2cv3gpu6GpuMat3ptrEi @ 2106
;	cv::gpu::GpuMat::row(int) const
	_ZNK2cv3gpu6GpuMat3rowEi @ 2107
;	cv::gpu::GpuMat::size() const
	_ZNK2cv3gpu6GpuMat4sizeEv @ 2108
;	cv::gpu::GpuMat::type() const
	_ZNK2cv3gpu6GpuMat4typeEv @ 2109
;	cv::gpu::GpuMat::clone() const
	_ZNK2cv3gpu6GpuMat5cloneEv @ 2110
;	cv::gpu::GpuMat::depth() const
	_ZNK2cv3gpu6GpuMat5depthEv @ 2111
;	cv::gpu::GpuMat::empty() const
	_ZNK2cv3gpu6GpuMat5emptyEv @ 2112
;	cv::gpu::GpuMat::step1() const
	_ZNK2cv3gpu6GpuMat5step1Ev @ 2113
;	cv::gpu::GpuMat::copyTo(cv::gpu::GpuMat&) const
	_ZNK2cv3gpu6GpuMat6copyToERS1_ @ 2114
;	cv::gpu::GpuMat::copyTo(cv::gpu::GpuMat&, cv::gpu::GpuMat const&) const
	_ZNK2cv3gpu6GpuMat6copyToERS1_RKS1_ @ 2115
;	cv::gpu::GpuMat::reshape(int, int) const
	_ZNK2cv3gpu6GpuMat7reshapeEii @ 2116
;	cv::gpu::GpuMat::assignTo(cv::gpu::GpuMat&, int) const
	_ZNK2cv3gpu6GpuMat8assignToERS1_i @ 2117
;	cv::gpu::GpuMat::channels() const
	_ZNK2cv3gpu6GpuMat8channelsEv @ 2118
;	cv::gpu::GpuMat::colRange(cv::Range) const
	_ZNK2cv3gpu6GpuMat8colRangeENS_5RangeE @ 2119
;	cv::gpu::GpuMat::colRange(int, int) const
	_ZNK2cv3gpu6GpuMat8colRangeEii @ 2120
;	cv::gpu::GpuMat::download(cv::Mat&) const
	_ZNK2cv3gpu6GpuMat8downloadERNS_3MatE @ 2121
;	cv::gpu::GpuMat::elemSize() const
	_ZNK2cv3gpu6GpuMat8elemSizeEv @ 2122
;	cv::gpu::GpuMat::rowRange(cv::Range) const
	_ZNK2cv3gpu6GpuMat8rowRangeENS_5RangeE @ 2123
;	cv::gpu::GpuMat::rowRange(int, int) const
	_ZNK2cv3gpu6GpuMat8rowRangeEii @ 2124
;	cv::gpu::GpuMat::convertTo(cv::gpu::GpuMat&, int, double, double) const
	_ZNK2cv3gpu6GpuMat9convertToERS1_idd @ 2125
;	cv::gpu::GpuMat::elemSize1() const
	_ZNK2cv3gpu6GpuMat9elemSize1Ev @ 2126
;	cv::gpu::GpuMat::locateROI(cv::Size_<int>&, cv::Point_<int>&) const
	_ZNK2cv3gpu6GpuMat9locateROIERNS_5Size_IiEERNS_6Point_IiEE @ 2127
;	cv::gpu::GpuMat::operator()(cv::Range, cv::Range) const
	_ZNK2cv3gpu6GpuMatclENS_5RangeES2_ @ 2128
;	cv::gpu::GpuMat::operator()(cv::Rect_<int>) const
	_ZNK2cv3gpu6GpuMatclENS_5Rect_IiEE @ 2129
;	cv::ogl::Arrays::bind() const
	_ZNK2cv3ogl6Arrays4bindEv @ 2130
;	cv::ogl::Arrays::size() const
	_ZNK2cv3ogl6Arrays4sizeEv @ 2131
;	cv::ogl::Arrays::empty() const
	_ZNK2cv3ogl6Arrays5emptyEv @ 2132
;	cv::ogl::Buffer::bind(cv::ogl::Buffer::Target) const
	_ZNK2cv3ogl6Buffer4bindENS1_6TargetE @ 2133
;	cv::ogl::Buffer::cols() const
	_ZNK2cv3ogl6Buffer4colsEv @ 2134
;	cv::ogl::Buffer::rows() const
	_ZNK2cv3ogl6Buffer4rowsEv @ 2135
;	cv::ogl::Buffer::size() const
	_ZNK2cv3ogl6Buffer4sizeEv @ 2136
;	cv::ogl::Buffer::type() const
	_ZNK2cv3ogl6Buffer4typeEv @ 2137
;	cv::ogl::Buffer::bufId() const
	_ZNK2cv3ogl6Buffer5bufIdEv @ 2138
;	cv::ogl::Buffer::clone(cv::ogl::Buffer::Target, bool) const
	_ZNK2cv3ogl6Buffer5cloneENS1_6TargetEb @ 2139
;	cv::ogl::Buffer::depth() const
	_ZNK2cv3ogl6Buffer5depthEv @ 2140
;	cv::ogl::Buffer::empty() const
	_ZNK2cv3ogl6Buffer5emptyEv @ 2141
;	cv::ogl::Buffer::copyTo(cv::_OutputArray const&, cv::ogl::Buffer::Target, bool) const
	_ZNK2cv3ogl6Buffer6copyToERKNS_12_OutputArrayENS1_6TargetEb @ 2142
;	cv::ogl::Buffer::channels() const
	_ZNK2cv3ogl6Buffer8channelsEv @ 2143
;	cv::ogl::Buffer::elemSize() const
	_ZNK2cv3ogl6Buffer8elemSizeEv @ 2144
;	cv::ogl::Buffer::elemSize1() const
	_ZNK2cv3ogl6Buffer9elemSize1Ev @ 2145
;	cv::ogl::Texture2D::bind() const
	_ZNK2cv3ogl9Texture2D4bindEv @ 2146
;	cv::ogl::Texture2D::cols() const
	_ZNK2cv3ogl9Texture2D4colsEv @ 2147
;	cv::ogl::Texture2D::rows() const
	_ZNK2cv3ogl9Texture2D4rowsEv @ 2148
;	cv::ogl::Texture2D::size() const
	_ZNK2cv3ogl9Texture2D4sizeEv @ 2149
;	cv::ogl::Texture2D::empty() const
	_ZNK2cv3ogl9Texture2D5emptyEv @ 2150
;	cv::ogl::Texture2D::texId() const
	_ZNK2cv3ogl9Texture2D5texIdEv @ 2151
;	cv::ogl::Texture2D::copyTo(cv::_OutputArray const&, int, bool) const
	_ZNK2cv3ogl9Texture2D6copyToERKNS_12_OutputArrayEib @ 2152
;	cv::ogl::Texture2D::format() const
	_ZNK2cv3ogl9Texture2D6formatEv @ 2153
;	cv::Matx<double, 4, 1>::operator()(int, int) const
	_ZNK2cv4MatxIdLi4ELi1EEclEii @ 2154
;	cv::Matx<double, 4, 4>::operator()(int, int) const
	_ZNK2cv4MatxIdLi4ELi4EEclEii @ 2155
;	cv::MatOp::augAssignOr(cv::MatExpr const&, cv::Mat&) const
	_ZNK2cv5MatOp11augAssignOrERKNS_7MatExprERNS_3MatE @ 2156
;	cv::MatOp::elementWise(cv::MatExpr const&) const
	_ZNK2cv5MatOp11elementWiseERKNS_7MatExprE @ 2157
;	cv::MatOp::augAssignAdd(cv::MatExpr const&, cv::Mat&) const
	_ZNK2cv5MatOp12augAssignAddERKNS_7MatExprERNS_3MatE @ 2158
;	cv::MatOp::augAssignAnd(cv::MatExpr const&, cv::Mat&) const
	_ZNK2cv5MatOp12augAssignAndERKNS_7MatExprERNS_3MatE @ 2159
;	cv::MatOp::augAssignXor(cv::MatExpr const&, cv::Mat&) const
	_ZNK2cv5MatOp12augAssignXorERKNS_7MatExprERNS_3MatE @ 2160
;	cv::MatOp::augAssignDivide(cv::MatExpr const&, cv::Mat&) const
	_ZNK2cv5MatOp15augAssignDivideERKNS_7MatExprERNS_3MatE @ 2161
;	cv::MatOp::augAssignMultiply(cv::MatExpr const&, cv::Mat&) const
	_ZNK2cv5MatOp17augAssignMultiplyERKNS_7MatExprERNS_3MatE @ 2162
;	cv::MatOp::augAssignSubtract(cv::MatExpr const&, cv::Mat&) const
	_ZNK2cv5MatOp17augAssignSubtractERKNS_7MatExprERNS_3MatE @ 2163
;	cv::MatOp::abs(cv::MatExpr const&, cv::MatExpr&) const
	_ZNK2cv5MatOp3absERKNS_7MatExprERS1_ @ 2164
;	cv::MatOp::add(cv::MatExpr const&, cv::Scalar_<double> const&, cv::MatExpr&) const
	_ZNK2cv5MatOp3addERKNS_7MatExprERKNS_7Scalar_IdEERS1_ @ 2165
;	cv::MatOp::add(cv::MatExpr const&, cv::MatExpr const&, cv::MatExpr&) const
	_ZNK2cv5MatOp3addERKNS_7MatExprES3_RS1_ @ 2166
;	cv::MatOp::roi(cv::MatExpr const&, cv::Range const&, cv::Range const&, cv::MatExpr&) const
	_ZNK2cv5MatOp3roiERKNS_7MatExprERKNS_5RangeES6_RS1_ @ 2167
;	cv::MatOp::diag(cv::MatExpr const&, int, cv::MatExpr&) const
	_ZNK2cv5MatOp4diagERKNS_7MatExprEiRS1_ @ 2168
;	cv::MatOp::size(cv::MatExpr const&) const
	_ZNK2cv5MatOp4sizeERKNS_7MatExprE @ 2169
;	cv::MatOp::type(cv::MatExpr const&) const
	_ZNK2cv5MatOp4typeERKNS_7MatExprE @ 2170
;	cv::MatOp::divide(cv::MatExpr const&, cv::MatExpr const&, cv::MatExpr&, double) const
	_ZNK2cv5MatOp6divideERKNS_7MatExprES3_RS1_d @ 2171
;	cv::MatOp::divide(double, cv::MatExpr const&, cv::MatExpr&) const
	_ZNK2cv5MatOp6divideEdRKNS_7MatExprERS1_ @ 2172
;	cv::MatOp::invert(cv::MatExpr const&, int, cv::MatExpr&) const
	_ZNK2cv5MatOp6invertERKNS_7MatExprEiRS1_ @ 2173
;	cv::MatOp::matmul(cv::MatExpr const&, cv::MatExpr const&, cv::MatExpr&) const
	_ZNK2cv5MatOp6matmulERKNS_7MatExprES3_RS1_ @ 2174
;	cv::MatOp::multiply(cv::MatExpr const&, cv::MatExpr const&, cv::MatExpr&, double) const
	_ZNK2cv5MatOp8multiplyERKNS_7MatExprES3_RS1_d @ 2175
;	cv::MatOp::multiply(cv::MatExpr const&, double, cv::MatExpr&) const
	_ZNK2cv5MatOp8multiplyERKNS_7MatExprEdRS1_ @ 2176
;	cv::MatOp::subtract(cv::MatExpr const&, cv::MatExpr const&, cv::MatExpr&) const
	_ZNK2cv5MatOp8subtractERKNS_7MatExprES3_RS1_ @ 2177
;	cv::MatOp::subtract(cv::Scalar_<double> const&, cv::MatExpr const&, cv::MatExpr&) const
	_ZNK2cv5MatOp8subtractERKNS_7Scalar_IdEERKNS_7MatExprERS5_ @ 2178
;	cv::MatOp::transpose(cv::MatExpr const&, cv::MatExpr&) const
	_ZNK2cv5MatOp9transposeERKNS_7MatExprERS1_ @ 2179
;	cv::Range::size() const
	_ZNK2cv5Range4sizeEv @ 2180
;	cv::Range::empty() const
	_ZNK2cv5Range5emptyEv @ 2181
;	cv::Range::operator CvSlice() const
	_ZNK2cv5Rangecv7CvSliceEv @ 2182
;	cv::Rect_<int>::br() const
	_ZNK2cv5Rect_IiE2brEv @ 2183
;	cv::Rect_<int>::tl() const
	_ZNK2cv5Rect_IiE2tlEv @ 2184
;	cv::Rect_<int>::area() const
	_ZNK2cv5Rect_IiE4areaEv @ 2185
;	cv::Rect_<int>::size() const
	_ZNK2cv5Rect_IiE4sizeEv @ 2186
;	cv::Size_<float>::operator CvSize2D32f() const
	_ZNK2cv5Size_IfEcv11CvSize2D32fEv @ 2187
;	cv::Size_<int>::area() const
	_ZNK2cv5Size_IiE4areaEv @ 2188
;	cv::Size_<int>::operator CvSize() const
	_ZNK2cv5Size_IiEcv6CvSizeEv @ 2189
;	cv::GlFont::draw(char const*, int) const
	_ZNK2cv6GlFont4drawEPKci @ 2190
;	cv::GlFont::style() const
	_ZNK2cv6GlFont5styleEv @ 2191
;	cv::GlFont::family() const
	_ZNK2cv6GlFont6familyEv @ 2192
;	cv::GlFont::height() const
	_ZNK2cv6GlFont6heightEv @ 2193
;	cv::GlFont::weight() const
	_ZNK2cv6GlFont6weightEv @ 2194
;	cv::KDTree::findNearest(cv::_InputArray const&, int, int, cv::_OutputArray const&, cv::_OutputArray const&, cv::_OutputArray const&, cv::_OutputArray const&) const
	_ZNK2cv6KDTree11findNearestERKNS_11_InputArrayEiiRKNS_12_OutputArrayES6_S6_S6_ @ 2195
;	cv::KDTree::findOrthoRange(cv::_InputArray const&, cv::_InputArray const&, cv::_OutputArray const&, cv::_OutputArray const&, cv::_OutputArray const&) const
	_ZNK2cv6KDTree14findOrthoRangeERKNS_11_InputArrayES3_RKNS_12_OutputArrayES6_S6_ @ 2196
;	cv::KDTree::dims() const
	_ZNK2cv6KDTree4dimsEv @ 2197
;	cv::KDTree::getPoint(int, int*) const
	_ZNK2cv6KDTree8getPointEiPi @ 2198
;	cv::KDTree::getPoints(cv::_InputArray const&, cv::_OutputArray const&, cv::_OutputArray const&) const
	_ZNK2cv6KDTree9getPointsERKNS_11_InputArrayERKNS_12_OutputArrayES6_ @ 2199
;	cv::Point_<float>::operator CvPoint2D32f() const
	_ZNK2cv6Point_IfEcv12CvPoint2D32fEv @ 2200
;	cv::MatExpr::t() const
	_ZNK2cv7MatExpr1tEv @ 2201
;	cv::MatExpr::col(int) const
	_ZNK2cv7MatExpr3colEi @ 2202
;	cv::MatExpr::dot(cv::Mat const&) const
	_ZNK2cv7MatExpr3dotERKNS_3MatE @ 2203
;	cv::MatExpr::inv(int) const
	_ZNK2cv7MatExpr3invEi @ 2204
;	cv::MatExpr::mul(cv::Mat const&, double) const
	_ZNK2cv7MatExpr3mulERKNS_3MatEd @ 2205
;	cv::MatExpr::mul(cv::MatExpr const&, double) const
	_ZNK2cv7MatExpr3mulERKS0_d @ 2206
;	cv::MatExpr::row(int) const
	_ZNK2cv7MatExpr3rowEi @ 2207
;	cv::MatExpr::diag(int) const
	_ZNK2cv7MatExpr4diagEi @ 2208
;	cv::MatExpr::size() const
	_ZNK2cv7MatExpr4sizeEv @ 2209
;	cv::MatExpr::type() const
	_ZNK2cv7MatExpr4typeEv @ 2210
;	cv::MatExpr::cross(cv::Mat const&) const
	_ZNK2cv7MatExpr5crossERKNS_3MatE @ 2211
;	cv::MatExpr::operator()(cv::Range const&, cv::Range const&) const
	_ZNK2cv7MatExprclERKNS_5RangeES3_ @ 2212
;	cv::MatExpr::operator()(cv::Rect_<int> const&) const
	_ZNK2cv7MatExprclERKNS_5Rect_IiEE @ 2213
;	cv::MatExpr::operator cv::Mat() const
	_ZNK2cv7MatExprcvNS_3MatEEv @ 2214
;	cv::MatOp_T::elementWise(cv::MatExpr const&) const
	_ZNK2cv7MatOp_T11elementWiseERKNS_7MatExprE @ 2215
;	cv::MatOp_T::assign(cv::MatExpr const&, cv::Mat&, int) const
	_ZNK2cv7MatOp_T6assignERKNS_7MatExprERNS_3MatEi @ 2216
;	cv::MatOp_T::multiply(cv::MatExpr const&, double, cv::MatExpr&) const
	_ZNK2cv7MatOp_T8multiplyERKNS_7MatExprEdRS1_ @ 2217
;	cv::MatOp_T::transpose(cv::MatExpr const&, cv::MatExpr&) const
	_ZNK2cv7MatOp_T9transposeERKNS_7MatExprERS1_ @ 2218
;	cv::Scalar_<double>::isReal() const
	_ZNK2cv7Scalar_IdE6isRealEv @ 2219
;	cv::Scalar_<double>::operator CvScalar() const
	_ZNK2cv7Scalar_IdEcv8CvScalarEv @ 2220
;	cv::FileNode::end() const
	_ZNK2cv8FileNode3endEv @ 2221
;	cv::FileNode::name() const
	_ZNK2cv8FileNode4nameEv @ 2222
;	cv::FileNode::size() const
	_ZNK2cv8FileNode4sizeEv @ 2223
;	cv::FileNode::type() const
	_ZNK2cv8FileNode4typeEv @ 2224
;	cv::FileNode::begin() const
	_ZNK2cv8FileNode5beginEv @ 2225
;	cv::FileNode::empty() const
	_ZNK2cv8FileNode5emptyEv @ 2226
;	cv::FileNode::isInt() const
	_ZNK2cv8FileNode5isIntEv @ 2227
;	cv::FileNode::isMap() const
	_ZNK2cv8FileNode5isMapEv @ 2228
;	cv::FileNode::isSeq() const
	_ZNK2cv8FileNode5isSeqEv @ 2229
;	cv::FileNode::isNone() const
	_ZNK2cv8FileNode6isNoneEv @ 2230
;	cv::FileNode::isReal() const
	_ZNK2cv8FileNode6isRealEv @ 2231
;	cv::FileNode::isNamed() const
	_ZNK2cv8FileNode7isNamedEv @ 2232
;	cv::FileNode::readObj() const
	_ZNK2cv8FileNode7readObjEv @ 2233
;	cv::FileNode::readRaw(std::string const&, unsigned char*, unsigned long long) const
	_ZNK2cv8FileNode7readRawERKSsPhy @ 2234
;	cv::FileNode::isString() const
	_ZNK2cv8FileNode8isStringEv @ 2235
;	cv::FileNode::operator std::string() const
	_ZNK2cv8FileNodecvSsEv @ 2236
;	cv::FileNode::operator double() const
	_ZNK2cv8FileNodecvdEv @ 2237
;	cv::FileNode::operator float() const
	_ZNK2cv8FileNodecvfEv @ 2238
;	cv::FileNode::operator int() const
	_ZNK2cv8FileNodecviEv @ 2239
;	cv::FileNode::operator*() const
	_ZNK2cv8FileNodedeEv @ 2240
;	cv::FileNode::operator[](char const*) const
	_ZNK2cv8FileNodeixEPKc @ 2241
;	cv::FileNode::operator[](std::string const&) const
	_ZNK2cv8FileNodeixERKSs @ 2242
;	cv::FileNode::operator[](int) const
	_ZNK2cv8FileNodeixEi @ 2243
;	cv::GlArrays::bind() const
	_ZNK2cv8GlArrays4bindEv @ 2244
;	cv::GlArrays::cols() const
	_ZNK2cv8GlArrays4colsEv @ 2245
;	cv::GlArrays::rows() const
	_ZNK2cv8GlArrays4rowsEv @ 2246
;	cv::GlArrays::size() const
	_ZNK2cv8GlArrays4sizeEv @ 2247
;	cv::GlArrays::empty() const
	_ZNK2cv8GlArrays5emptyEv @ 2248
;	cv::GlArrays::unbind() const
	_ZNK2cv8GlArrays6unbindEv @ 2249
;	cv::GlBuffer::bind() const
	_ZNK2cv8GlBuffer4bindEv @ 2250
;	cv::GlBuffer::cols() const
	_ZNK2cv8GlBuffer4colsEv @ 2251
;	cv::GlBuffer::rows() const
	_ZNK2cv8GlBuffer4rowsEv @ 2252
;	cv::GlBuffer::size() const
	_ZNK2cv8GlBuffer4sizeEv @ 2253
;	cv::GlBuffer::type() const
	_ZNK2cv8GlBuffer4typeEv @ 2254
;	cv::GlBuffer::depth() const
	_ZNK2cv8GlBuffer5depthEv @ 2255
;	cv::GlBuffer::empty() const
	_ZNK2cv8GlBuffer5emptyEv @ 2256
;	cv::GlBuffer::usage() const
	_ZNK2cv8GlBuffer5usageEv @ 2257
;	cv::GlBuffer::unbind() const
	_ZNK2cv8GlBuffer6unbindEv @ 2258
;	cv::GlBuffer::channels() const
	_ZNK2cv8GlBuffer8channelsEv @ 2259
;	cv::GlBuffer::elemSize() const
	_ZNK2cv8GlBuffer8elemSizeEv @ 2260
;	cv::GlBuffer::elemSize1() const
	_ZNK2cv8GlBuffer9elemSize1Ev @ 2261
;	cv::GlCamera::setupModelViewMatrix() const
	_ZNK2cv8GlCamera20setupModelViewMatrixEv @ 2262
;	cv::GlCamera::setupProjectionMatrix() const
	_ZNK2cv8GlCamera21setupProjectionMatrixEv @ 2263
;	cv::LessThan<signed char>::operator()(signed char const&, signed char const&) const
	_ZNK2cv8LessThanIaEclERKaS3_ @ 2264
;	cv::LessThan<double>::operator()(double const&, double const&) const
	_ZNK2cv8LessThanIdEclERKdS3_ @ 2265
;	cv::LessThan<float>::operator()(float const&, float const&) const
	_ZNK2cv8LessThanIfEclERKfS3_ @ 2266
;	cv::LessThan<unsigned char>::operator()(unsigned char const&, unsigned char const&) const
	_ZNK2cv8LessThanIhEclERKhS3_ @ 2267
;	cv::LessThan<int>::operator()(int const&, int const&) const
	_ZNK2cv8LessThanIiEclERKiS3_ @ 2268
;	cv::LessThan<short>::operator()(short const&, short const&) const
	_ZNK2cv8LessThanIsEclERKsS3_ @ 2269
;	cv::LessThan<unsigned short>::operator()(unsigned short const&, unsigned short const&) const
	_ZNK2cv8LessThanItEclERKtS3_ @ 2270
;	cv::Algorithm::getAlgorithm(std::string const&) const
	_ZNK2cv9Algorithm12getAlgorithmERKSs @ 2271
;	cv::Algorithm::getMatVector(std::string const&) const
	_ZNK2cv9Algorithm12getMatVectorERKSs @ 2272
;	cv::Algorithm::info() const
	_ZNK2cv9Algorithm4infoEv @ 2273
;	cv::Algorithm::name() const
	_ZNK2cv9Algorithm4nameEv @ 2274
;	cv::Algorithm::write(cv::FileStorage&) const
	_ZNK2cv9Algorithm5writeERNS_11FileStorageE @ 2275
;	cv::Algorithm::getInt(std::string const&) const
	_ZNK2cv9Algorithm6getIntERKSs @ 2276
;	cv::Algorithm::getMat(std::string const&) const
	_ZNK2cv9Algorithm6getMatERKSs @ 2277
;	cv::Algorithm::getBool(std::string const&) const
	_ZNK2cv9Algorithm7getBoolERKSs @ 2278
;	cv::Algorithm::getDouble(std::string const&) const
	_ZNK2cv9Algorithm9getDoubleERKSs @ 2279
;	cv::Algorithm::getParams(std::vector<std::string, std::allocator<std::string> >&) const
	_ZNK2cv9Algorithm9getParamsERSt6vectorISsSaISsEE @ 2280
;	cv::Algorithm::getString(std::string const&) const
	_ZNK2cv9Algorithm9getStringERKSs @ 2281
;	cv::Algorithm::paramHelp(std::string const&) const
	_ZNK2cv9Algorithm9paramHelpERKSs @ 2282
;	cv::Algorithm::paramType(char const*) const
	_ZNK2cv9Algorithm9paramTypeEPKc @ 2283
;	cv::Algorithm::paramType(std::string const&) const
	_ZNK2cv9Algorithm9paramTypeERKSs @ 2284
;	cv::Exception::what() const
	_ZNK2cv9Exception4whatEv @ 2285
;	cv::GlTexture::bind() const
	_ZNK2cv9GlTexture4bindEv @ 2286
;	cv::GlTexture::cols() const
	_ZNK2cv9GlTexture4colsEv @ 2287
;	cv::GlTexture::rows() const
	_ZNK2cv9GlTexture4rowsEv @ 2288
;	cv::GlTexture::size() const
	_ZNK2cv9GlTexture4sizeEv @ 2289
;	cv::GlTexture::type() const
	_ZNK2cv9GlTexture4typeEv @ 2290
;	cv::GlTexture::depth() const
	_ZNK2cv9GlTexture5depthEv @ 2291
;	cv::GlTexture::empty() const
	_ZNK2cv9GlTexture5emptyEv @ 2292
;	cv::GlTexture::unbind() const
	_ZNK2cv9GlTexture6unbindEv @ 2293
;	cv::GlTexture::channels() const
	_ZNK2cv9GlTexture8channelsEv @ 2294
;	cv::GlTexture::elemSize() const
	_ZNK2cv9GlTexture8elemSizeEv @ 2295
;	cv::GlTexture::elemSize1() const
	_ZNK2cv9GlTexture9elemSize1Ev @ 2296
;	cv::MatOp_Bin::elementWise(cv::MatExpr const&) const
	_ZNK2cv9MatOp_Bin11elementWiseERKNS_7MatExprE @ 2297
;	cv::MatOp_Bin::assign(cv::MatExpr const&, cv::Mat&, int) const
	_ZNK2cv9MatOp_Bin6assignERKNS_7MatExprERNS_3MatEi @ 2298
;	cv::MatOp_Bin::divide(double, cv::MatExpr const&, cv::MatExpr&) const
	_ZNK2cv9MatOp_Bin6divideEdRKNS_7MatExprERS1_ @ 2299
;	cv::MatOp_Bin::multiply(cv::MatExpr const&, double, cv::MatExpr&) const
	_ZNK2cv9MatOp_Bin8multiplyERKNS_7MatExprEdRS1_ @ 2300
;	cv::MatOp_Cmp::elementWise(cv::MatExpr const&) const
	_ZNK2cv9MatOp_Cmp11elementWiseERKNS_7MatExprE @ 2301
;	cv::MatOp_Cmp::assign(cv::MatExpr const&, cv::Mat&, int) const
	_ZNK2cv9MatOp_Cmp6assignERKNS_7MatExprERNS_3MatEi @ 2302
;	cv::SparseMat::end() const
	_ZNK2cv9SparseMat3endEv @ 2303
;	cv::SparseMat::dims() const
	_ZNK2cv9SparseMat4dimsEv @ 2304
;	cv::SparseMat::hash(int const*) const
	_ZNK2cv9SparseMat4hashEPKi @ 2305
;	cv::SparseMat::hash(int) const
	_ZNK2cv9SparseMat4hashEi @ 2306
;	cv::SparseMat::hash(int, int) const
	_ZNK2cv9SparseMat4hashEii @ 2307
;	cv::SparseMat::hash(int, int, int) const
	_ZNK2cv9SparseMat4hashEiii @ 2308
;	cv::SparseMat::node(unsigned long long) const
	_ZNK2cv9SparseMat4nodeEy @ 2309
;	cv::SparseMat::size(int) const
	_ZNK2cv9SparseMat4sizeEi @ 2310
;	cv::SparseMat::size() const
	_ZNK2cv9SparseMat4sizeEv @ 2311
;	cv::SparseMat::type() const
	_ZNK2cv9SparseMat4typeEv @ 2312
;	cv::SparseMat::begin() const
	_ZNK2cv9SparseMat5beginEv @ 2313
;	cv::SparseMat::clone() const
	_ZNK2cv9SparseMat5cloneEv @ 2314
;	cv::SparseMat::depth() const
	_ZNK2cv9SparseMat5depthEv @ 2315
;	cv::SparseMat::copyTo(cv::Mat&) const
	_ZNK2cv9SparseMat6copyToERNS_3MatE @ 2316
;	cv::SparseMat::copyTo(cv::SparseMat&) const
	_ZNK2cv9SparseMat6copyToERS0_ @ 2317
;	cv::SparseMat::nzcount() const
	_ZNK2cv9SparseMat7nzcountEv @ 2318
;	cv::SparseMat::assignTo(cv::SparseMat&, int) const
	_ZNK2cv9SparseMat8assignToERS0_i @ 2319
;	cv::SparseMat::channels() const
	_ZNK2cv9SparseMat8channelsEv @ 2320
;	cv::SparseMat::elemSize() const
	_ZNK2cv9SparseMat8elemSizeEv @ 2321
;	cv::SparseMat::convertTo(cv::Mat&, int, double, double) const
	_ZNK2cv9SparseMat9convertToERNS_3MatEidd @ 2322
;	cv::SparseMat::convertTo(cv::SparseMat&, int, double) const
	_ZNK2cv9SparseMat9convertToERS0_id @ 2323
;	cv::SparseMat::elemSize1() const
	_ZNK2cv9SparseMat9elemSize1Ev @ 2324
;	cv::SparseMat::operator CvSparseMat*() const
	_ZNK2cv9SparseMatcvP11CvSparseMatEv @ 2325
;	std::string::find(char const*, unsigned long long, unsigned long long) const
	_ZNKSs4findEPKcyy @ 2326
;	std::string::find(char, unsigned long long) const
	_ZNKSs4findEcy @ 2327
;	std::string::rfind(char, unsigned long long) const
	_ZNKSs5rfindEcy @ 2328
;	std::string::compare(char const*) const
	_ZNKSs7compareEPKc @ 2329
;	std::ctype<char>::_M_widen_init() const
	_ZNKSt5ctypeIcE13_M_widen_initEv @ 2330
;	std::basic_string<wchar_t, std::char_traits<wchar_t>, std::allocator<wchar_t> >::basic_string(wchar_t const*, std::allocator<wchar_t> const&)
	_ZNSbIwSt11char_traitsIwESaIwEEC1EPKwRKS1_ @ 2331
;	std::basic_iostream<char, std::char_traits<char> >::~basic_iostream()
	_ZNSdD2Ev @ 2332
;	std::istream& std::istream::_M_extract<double>(double&)
	_ZNSi10_M_extractIdEERSiRT_ @ 2333
;	std::istream& std::istream::_M_extract<float>(float&)
	_ZNSi10_M_extractIfEERSiRT_ @ 2334
;	std::istream& std::istream::_M_extract<unsigned int>(unsigned int&)
	_ZNSi10_M_extractIjEERSiRT_ @ 2335
;	std::istream& std::istream::_M_extract<unsigned long long>(unsigned long long&)
	_ZNSi10_M_extractIyEERSiRT_ @ 2336
;	std::istream::operator>>(int&)
	_ZNSirsERi @ 2337
;	std::ostream::put(char)
	_ZNSo3putEc @ 2338
;	std::ostream::flush()
	_ZNSo5flushEv @ 2339
;	std::ostream& std::ostream::_M_insert<double>(double)
	_ZNSo9_M_insertIdEERSoT_ @ 2340
;	std::ostream::operator<<(int)
	_ZNSolsEi @ 2341
;	std::string::_M_leak_hard()
	_ZNSs12_M_leak_hardEv @ 2342
;	std::string::_Rep::_M_destroy(std::allocator<char> const&)
	_ZNSs4_Rep10_M_destroyERKSaIcE @ 2343
;	std::string::erase(__gnu_cxx::__normal_iterator<char*, std::string>, __gnu_cxx::__normal_iterator<char*, std::string>)
	_ZNSs5eraseEN9__gnu_cxx17__normal_iteratorIPcSsEES2_ @ 2344
;	std::string::append(char const*, unsigned long long)
	_ZNSs6appendEPKcy @ 2345
;	std::string::append(std::string const&)
	_ZNSs6appendERKSs @ 2346
;	std::string::append(unsigned long long, char)
	_ZNSs6appendEyc @ 2347
;	std::string::assign(char const*, unsigned long long)
	_ZNSs6assignEPKcy @ 2348
;	std::string::assign(std::string const&)
	_ZNSs6assignERKSs @ 2349
;	std::string::resize(unsigned long long, char)
	_ZNSs6resizeEyc @ 2350
;	std::string::reserve(unsigned long long)
	_ZNSs7reserveEy @ 2351
;	std::string::_M_mutate(unsigned long long, unsigned long long, unsigned long long)
	_ZNSs9_M_mutateEyyy @ 2352
;	std::basic_string<char, std::char_traits<char>, std::allocator<char> >::basic_string(char const*, std::allocator<char> const&)
	_ZNSsC1EPKcRKSaIcE @ 2353
;	std::basic_string<char, std::char_traits<char>, std::allocator<char> >::basic_string(char const*, unsigned long long, std::allocator<char> const&)
	_ZNSsC1EPKcyRKSaIcE @ 2354
;	std::basic_string<char, std::char_traits<char>, std::allocator<char> >::basic_string(std::string const&)
	_ZNSsC1ERKSs @ 2355
;	std::basic_string<char, std::char_traits<char>, std::allocator<char> >::basic_string(std::string const&, unsigned long long, unsigned long long)
	_ZNSsC1ERKSsyy @ 2356
;	std::basic_string<char, std::char_traits<char>, std::allocator<char> >::~basic_string()
	_ZNSsD1Ev @ 2357
;	std::_Deque_base<char, std::allocator<char> >::_M_initialize_map(unsigned long long)
	_ZNSt11_Deque_baseIcSaIcEE17_M_initialize_mapEy @ 2358
;	std::basic_streambuf<char, std::char_traits<char> >::~basic_streambuf()
	_ZNSt15basic_streambufIcSt11char_traitsIcEED2Ev @ 2359
;	std::basic_stringbuf<char, std::char_traits<char>, std::allocator<char> >::_M_sync(char*, unsigned long long, unsigned long long)
	_ZNSt15basic_stringbufIcSt11char_traitsIcESaIcEE7_M_syncEPcyy @ 2360
;	std::basic_stringstream<char, std::char_traits<char>, std::allocator<char> >::~basic_stringstream()
	_ZNSt18basic_stringstreamIcSt11char_traitsIcESaIcEED1Ev @ 2361
;	std::pair<std::string const, std::vector<std::string, std::allocator<std::string> > >::~pair()
	_ZNSt4pairIKSsSt6vectorISsSaISsEEED1Ev @ 2362
;	std::pair<std::string, cv::Param>::~pair()
	_ZNSt4pairISsN2cv5ParamEED1Ev @ 2363
;	std::deque<char, std::allocator<char> >::_M_reallocate_map(unsigned long long, bool)
	_ZNSt5dequeIcSaIcEE17_M_reallocate_mapEyb @ 2364
;	std::locale::locale()
	_ZNSt6localeC1Ev @ 2365
;	std::locale::~locale()
	_ZNSt6localeD1Ev @ 2366
;	std::vector<cv::Mat, std::allocator<cv::Mat> >::_M_fill_insert(__gnu_cxx::__normal_iterator<cv::Mat*, std::vector<cv::Mat, std::allocator<cv::Mat> > >, unsigned long long, cv::Mat const&)
	_ZNSt6vectorIN2cv3MatESaIS1_EE14_M_fill_insertEN9__gnu_cxx17__normal_iteratorIPS1_S3_EEyRKS1_ @ 2367
;	std::vector<cv::Mat, std::allocator<cv::Mat> >::~vector()
	_ZNSt6vectorIN2cv3MatESaIS1_EED1Ev @ 2368
;	std::vector<cv::Mat, std::allocator<cv::Mat> >::operator=(std::vector<cv::Mat, std::allocator<cv::Mat> > const&)
	_ZNSt6vectorIN2cv3MatESaIS1_EEaSERKS3_ @ 2369
;	std::vector<cv::Vec<unsigned char, 2>, std::allocator<cv::Vec<unsigned char, 2> > >::_M_fill_insert(__gnu_cxx::__normal_iterator<cv::Vec<unsigned char, 2>*, std::vector<cv::Vec<unsigned char, 2>, std::allocator<cv::Vec<unsigned char, 2> > > >, unsigned long long, cv::Vec<unsigned char, 2> const&)
	_ZNSt6vectorIN2cv3VecIhLi2EEESaIS2_EE14_M_fill_insertEN9__gnu_cxx17__normal_iteratorIPS2_S4_EEyRKS2_ @ 2370
;	std::vector<cv::Vec<unsigned char, 3>, std::allocator<cv::Vec<unsigned char, 3> > >::_M_fill_insert(__gnu_cxx::__normal_iterator<cv::Vec<unsigned char, 3>*, std::vector<cv::Vec<unsigned char, 3>, std::allocator<cv::Vec<unsigned char, 3> > > >, unsigned long long, cv::Vec<unsigned char, 3> const&)
	_ZNSt6vectorIN2cv3VecIhLi3EEESaIS2_EE14_M_fill_insertEN9__gnu_cxx17__normal_iteratorIPS2_S4_EEyRKS2_ @ 2371
;	std::vector<cv::Vec<int, 128>, std::allocator<cv::Vec<int, 128> > >::_M_fill_insert(__gnu_cxx::__normal_iterator<cv::Vec<int, 128>*, std::vector<cv::Vec<int, 128>, std::allocator<cv::Vec<int, 128> > > >, unsigned long long, cv::Vec<int, 128> const&)
	_ZNSt6vectorIN2cv3VecIiLi128EEESaIS2_EE14_M_fill_insertEN9__gnu_cxx17__normal_iteratorIPS2_S4_EEyRKS2_ @ 2372
;	std::vector<cv::Vec<int, 12>, std::allocator<cv::Vec<int, 12> > >::_M_fill_insert(__gnu_cxx::__normal_iterator<cv::Vec<int, 12>*, std::vector<cv::Vec<int, 12>, std::allocator<cv::Vec<int, 12> > > >, unsigned long long, cv::Vec<int, 12> const&)
	_ZNSt6vectorIN2cv3VecIiLi12EEESaIS2_EE14_M_fill_insertEN9__gnu_cxx17__normal_iteratorIPS2_S4_EEyRKS2_ @ 2373
;	std::vector<cv::Vec<int, 16>, std::allocator<cv::Vec<int, 16> > >::_M_fill_insert(__gnu_cxx::__normal_iterator<cv::Vec<int, 16>*, std::vector<cv::Vec<int, 16>, std::allocator<cv::Vec<int, 16> > > >, unsigned long long, cv::Vec<int, 16> const&)
	_ZNSt6vectorIN2cv3VecIiLi16EEESaIS2_EE14_M_fill_insertEN9__gnu_cxx17__normal_iteratorIPS2_S4_EEyRKS2_ @ 2374
;	std::vector<cv::Vec<int, 2>, std::allocator<cv::Vec<int, 2> > >::_M_fill_insert(__gnu_cxx::__normal_iterator<cv::Vec<int, 2>*, std::vector<cv::Vec<int, 2>, std::allocator<cv::Vec<int, 2> > > >, unsigned long long, cv::Vec<int, 2> const&)
	_ZNSt6vectorIN2cv3VecIiLi2EEESaIS2_EE14_M_fill_insertEN9__gnu_cxx17__normal_iteratorIPS2_S4_EEyRKS2_ @ 2375
;	std::vector<cv::Vec<int, 32>, std::allocator<cv::Vec<int, 32> > >::_M_fill_insert(__gnu_cxx::__normal_iterator<cv::Vec<int, 32>*, std::vector<cv::Vec<int, 32>, std::allocator<cv::Vec<int, 32> > > >, unsigned long long, cv::Vec<int, 32> const&)
	_ZNSt6vectorIN2cv3VecIiLi32EEESaIS2_EE14_M_fill_insertEN9__gnu_cxx17__normal_iteratorIPS2_S4_EEyRKS2_ @ 2376
;	std::vector<cv::Vec<int, 3>, std::allocator<cv::Vec<int, 3> > >::_M_fill_insert(__gnu_cxx::__normal_iterator<cv::Vec<int, 3>*, std::vector<cv::Vec<int, 3>, std::allocator<cv::Vec<int, 3> > > >, unsigned long long, cv::Vec<int, 3> const&)
	_ZNSt6vectorIN2cv3VecIiLi3EEESaIS2_EE14_M_fill_insertEN9__gnu_cxx17__normal_iteratorIPS2_S4_EEyRKS2_ @ 2377
;	std::vector<cv::Vec<int, 4>, std::allocator<cv::Vec<int, 4> > >::_M_fill_insert(__gnu_cxx::__normal_iterator<cv::Vec<int, 4>*, std::vector<cv::Vec<int, 4>, std::allocator<cv::Vec<int, 4> > > >, unsigned long long, cv::Vec<int, 4> const&)
	_ZNSt6vectorIN2cv3VecIiLi4EEESaIS2_EE14_M_fill_insertEN9__gnu_cxx17__normal_iteratorIPS2_S4_EEyRKS2_ @ 2378
;	std::vector<cv::Vec<int, 64>, std::allocator<cv::Vec<int, 64> > >::_M_fill_insert(__gnu_cxx::__normal_iterator<cv::Vec<int, 64>*, std::vector<cv::Vec<int, 64>, std::allocator<cv::Vec<int, 64> > > >, unsigned long long, cv::Vec<int, 64> const&)
	_ZNSt6vectorIN2cv3VecIiLi64EEESaIS2_EE14_M_fill_insertEN9__gnu_cxx17__normal_iteratorIPS2_S4_EEyRKS2_ @ 2379
;	std::vector<cv::Vec<int, 6>, std::allocator<cv::Vec<int, 6> > >::_M_fill_insert(__gnu_cxx::__normal_iterator<cv::Vec<int, 6>*, std::vector<cv::Vec<int, 6>, std::allocator<cv::Vec<int, 6> > > >, unsigned long long, cv::Vec<int, 6> const&)
	_ZNSt6vectorIN2cv3VecIiLi6EEESaIS2_EE14_M_fill_insertEN9__gnu_cxx17__normal_iteratorIPS2_S4_EEyRKS2_ @ 2380
;	std::vector<cv::Vec<int, 8>, std::allocator<cv::Vec<int, 8> > >::_M_fill_insert(__gnu_cxx::__normal_iterator<cv::Vec<int, 8>*, std::vector<cv::Vec<int, 8>, std::allocator<cv::Vec<int, 8> > > >, unsigned long long, cv::Vec<int, 8> const&)
	_ZNSt6vectorIN2cv3VecIiLi8EEESaIS2_EE14_M_fill_insertEN9__gnu_cxx17__normal_iteratorIPS2_S4_EEyRKS2_ @ 2381
;	std::vector<cv::Vec<int, 9>, std::allocator<cv::Vec<int, 9> > >::_M_fill_insert(__gnu_cxx::__normal_iterator<cv::Vec<int, 9>*, std::vector<cv::Vec<int, 9>, std::allocator<cv::Vec<int, 9> > > >, unsigned long long, cv::Vec<int, 9> const&)
	_ZNSt6vectorIN2cv3VecIiLi9EEESaIS2_EE14_M_fill_insertEN9__gnu_cxx17__normal_iteratorIPS2_S4_EEyRKS2_ @ 2382
;	std::vector<cv::Vec<short, 3>, std::allocator<cv::Vec<short, 3> > >::_M_fill_insert(__gnu_cxx::__normal_iterator<cv::Vec<short, 3>*, std::vector<cv::Vec<short, 3>, std::allocator<cv::Vec<short, 3> > > >, unsigned long long, cv::Vec<short, 3> const&)
	_ZNSt6vectorIN2cv3VecIsLi3EEESaIS2_EE14_M_fill_insertEN9__gnu_cxx17__normal_iteratorIPS2_S4_EEyRKS2_ @ 2383
;	std::vector<cv::KDTree::Node, std::allocator<cv::KDTree::Node> >::_M_insert_aux(__gnu_cxx::__normal_iterator<cv::KDTree::Node*, std::vector<cv::KDTree::Node, std::allocator<cv::KDTree::Node> > >, cv::KDTree::Node const&)
	_ZNSt6vectorIN2cv6KDTree4NodeESaIS2_EE13_M_insert_auxEN9__gnu_cxx17__normal_iteratorIPS2_S4_EERKS2_ @ 2384
;	std::vector<cv::Point_<int>, std::allocator<cv::Point_<int> > >::_M_insert_aux(__gnu_cxx::__normal_iterator<cv::Point_<int>*, std::vector<cv::Point_<int>, std::allocator<cv::Point_<int> > > >, cv::Point_<int> const&)
	_ZNSt6vectorIN2cv6Point_IiEESaIS2_EE13_M_insert_auxEN9__gnu_cxx17__normal_iteratorIPS2_S4_EERKS2_ @ 2385
;	std::vector<cv::Point_<int>, std::allocator<cv::Point_<int> > >::_M_fill_insert(__gnu_cxx::__normal_iterator<cv::Point_<int>*, std::vector<cv::Point_<int>, std::allocator<cv::Point_<int> > > >, unsigned long long, cv::Point_<int> const&)
	_ZNSt6vectorIN2cv6Point_IiEESaIS2_EE14_M_fill_insertEN9__gnu_cxx17__normal_iteratorIPS2_S4_EEyRKS2_ @ 2386
;	std::vector<cv::Point_<int>, std::allocator<cv::Point_<int> > >::reserve(unsigned long long)
	_ZNSt6vectorIN2cv6Point_IiEESaIS2_EE7reserveEy @ 2387
;	std::vector<cv::PolyEdge, std::allocator<cv::PolyEdge> >::_M_insert_aux(__gnu_cxx::__normal_iterator<cv::PolyEdge*, std::vector<cv::PolyEdge, std::allocator<cv::PolyEdge> > >, cv::PolyEdge const&)
	_ZNSt6vectorIN2cv8PolyEdgeESaIS1_EE13_M_insert_auxEN9__gnu_cxx17__normal_iteratorIPS1_S3_EERKS1_ @ 2388
;	std::vector<cv::PolyEdge, std::allocator<cv::PolyEdge> >::reserve(unsigned long long)
	_ZNSt6vectorIN2cv8PolyEdgeESaIS1_EE7reserveEy @ 2389
;	std::vector<std::vector<unsigned char, std::allocator<unsigned char> >, std::allocator<std::vector<unsigned char, std::allocator<unsigned char> > > >::_M_fill_insert(__gnu_cxx::__normal_iterator<std::vector<unsigned char, std::allocator<unsigned char> >*, std::vector<std::vector<unsigned char, std::allocator<unsigned char> >, std::allocator<std::vector<unsigned char, std::allocator<unsigned char> > > > >, unsigned long long, std::vector<unsigned char, std::allocator<unsigned char> > const&)
	_ZNSt6vectorIS_IhSaIhEESaIS1_EE14_M_fill_insertEN9__gnu_cxx17__normal_iteratorIPS1_S3_EEyRKS1_ @ 2390
;	std::vector<std::string, std::allocator<std::string> >::_M_insert_aux(__gnu_cxx::__normal_iterator<std::string*, std::vector<std::string, std::allocator<std::string> > >, std::string const&)
	_ZNSt6vectorISsSaISsEE13_M_insert_auxEN9__gnu_cxx17__normal_iteratorIPSsS1_EERKSs @ 2391
;	std::vector<std::string, std::allocator<std::string> >::_M_fill_insert(__gnu_cxx::__normal_iterator<std::string*, std::vector<std::string, std::allocator<std::string> > >, unsigned long long, std::string const&)
	_ZNSt6vectorISsSaISsEE14_M_fill_insertEN9__gnu_cxx17__normal_iteratorIPSsS1_EEyRKSs @ 2392
;	std::vector<std::string, std::allocator<std::string> >::~vector()
	_ZNSt6vectorISsSaISsEED1Ev @ 2393
;	std::vector<std::string, std::allocator<std::string> >::operator=(std::vector<std::string, std::allocator<std::string> > const&)
	_ZNSt6vectorISsSaISsEEaSERKS1_ @ 2394
;	std::vector<std::pair<std::string, cv::Param>, std::allocator<std::pair<std::string, cv::Param> > >::_M_insert_aux(__gnu_cxx::__normal_iterator<std::pair<std::string, cv::Param>*, std::vector<std::pair<std::string, cv::Param>, std::allocator<std::pair<std::string, cv::Param> > > >, std::pair<std::string, cv::Param> const&)
	_ZNSt6vectorISt4pairISsN2cv5ParamEESaIS3_EE13_M_insert_auxEN9__gnu_cxx17__normal_iteratorIPS3_S5_EERKS3_ @ 2395
;	std::vector<std::pair<std::string, cv::Algorithm* (*)()>, std::allocator<std::pair<std::string, cv::Algorithm* (*)()> > >::_M_insert_aux(__gnu_cxx::__normal_iterator<std::pair<std::string, cv::Algorithm* (*)()>*, std::vector<std::pair<std::string, cv::Algorithm* (*)()>, std::allocator<std::pair<std::string, cv::Algorithm* (*)()> > > >, std::pair<std::string, cv::Algorithm* (*)()> const&)
	_ZNSt6vectorISt4pairISsPFPN2cv9AlgorithmEvEESaIS6_EE13_M_insert_auxEN9__gnu_cxx17__normal_iteratorIPS6_S8_EERKS6_ @ 2396
;	std::vector<char, std::allocator<char> >::_M_insert_aux(__gnu_cxx::__normal_iterator<char*, std::vector<char, std::allocator<char> > >, char const&)
	_ZNSt6vectorIcSaIcEE13_M_insert_auxEN9__gnu_cxx17__normal_iteratorIPcS1_EERKc @ 2397
;	std::vector<unsigned char, std::allocator<unsigned char> >::_M_fill_insert(__gnu_cxx::__normal_iterator<unsigned char*, std::vector<unsigned char, std::allocator<unsigned char> > >, unsigned long long, unsigned char const&)
	_ZNSt6vectorIhSaIhEE14_M_fill_insertEN9__gnu_cxx17__normal_iteratorIPhS1_EEyRKh @ 2398
;	std::vector<unsigned char, std::allocator<unsigned char> >::operator=(std::vector<unsigned char, std::allocator<unsigned char> > const&)
	_ZNSt6vectorIhSaIhEEaSERKS1_ @ 2399
;	std::vector<int, std::allocator<int> >::_M_insert_aux(__gnu_cxx::__normal_iterator<int*, std::vector<int, std::allocator<int> > >, int const&)
	_ZNSt6vectorIiSaIiEE13_M_insert_auxEN9__gnu_cxx17__normal_iteratorIPiS1_EERKi @ 2400
;	std::vector<int, std::allocator<int> >::_M_fill_insert(__gnu_cxx::__normal_iterator<int*, std::vector<int, std::allocator<int> > >, unsigned long long, int const&)
	_ZNSt6vectorIiSaIiEE14_M_fill_insertEN9__gnu_cxx17__normal_iteratorIPiS1_EEyRKi @ 2401
;	std::vector<unsigned long long, std::allocator<unsigned long long> >::_M_fill_insert(__gnu_cxx::__normal_iterator<unsigned long long*, std::vector<unsigned long long, std::allocator<unsigned long long> > >, unsigned long long, unsigned long long const&)
	_ZNSt6vectorIySaIyEE14_M_fill_insertEN9__gnu_cxx17__normal_iteratorIPyS1_EEyRKy @ 2402
;	std::vector<unsigned long long, std::allocator<unsigned long long> >::operator=(std::vector<unsigned long long, std::allocator<unsigned long long> > const&)
	_ZNSt6vectorIySaIyEEaSERKS1_ @ 2403
;	std::_Rb_tree<std::string, std::pair<std::string const, std::vector<std::string, std::allocator<std::string> > >, std::_Select1st<std::pair<std::string const, std::vector<std::string, std::allocator<std::string> > > >, std::less<std::string>, std::allocator<std::pair<std::string const, std::vector<std::string, std::allocator<std::string> > > > >::_M_insert_(std::_Rb_tree_node_base const*, std::_Rb_tree_node_base const*, std::pair<std::string const, std::vector<std::string, std::allocator<std::string> > > const&)
	_ZNSt8_Rb_treeISsSt4pairIKSsSt6vectorISsSaISsEEESt10_Select1stIS5_ESt4lessISsESaIS5_EE10_M_insert_EPKSt18_Rb_tree_node_baseSE_RKS5_ @ 2404
;	std::_Rb_tree<std::string, std::pair<std::string const, std::vector<std::string, std::allocator<std::string> > >, std::_Select1st<std::pair<std::string const, std::vector<std::string, std::allocator<std::string> > > >, std::less<std::string>, std::allocator<std::pair<std::string const, std::vector<std::string, std::allocator<std::string> > > > >::_M_insert_unique(std::pair<std::string const, std::vector<std::string, std::allocator<std::string> > > const&)
	_ZNSt8_Rb_treeISsSt4pairIKSsSt6vectorISsSaISsEEESt10_Select1stIS5_ESt4lessISsESaIS5_EE16_M_insert_uniqueERKS5_ @ 2405
;	std::_Rb_tree<std::string, std::pair<std::string const, std::vector<std::string, std::allocator<std::string> > >, std::_Select1st<std::pair<std::string const, std::vector<std::string, std::allocator<std::string> > > >, std::less<std::string>, std::allocator<std::pair<std::string const, std::vector<std::string, std::allocator<std::string> > > > >::_M_insert_unique_(std::_Rb_tree_const_iterator<std::pair<std::string const, std::vector<std::string, std::allocator<std::string> > > >, std::pair<std::string const, std::vector<std::string, std::allocator<std::string> > > const&)
	_ZNSt8_Rb_treeISsSt4pairIKSsSt6vectorISsSaISsEEESt10_Select1stIS5_ESt4lessISsESaIS5_EE17_M_insert_unique_ESt23_Rb_tree_const_iteratorIS5_ERKS5_ @ 2406
;	std::_Rb_tree<std::string, std::pair<std::string const, std::vector<std::string, std::allocator<std::string> > >, std::_Select1st<std::pair<std::string const, std::vector<std::string, std::allocator<std::string> > > >, std::less<std::string>, std::allocator<std::pair<std::string const, std::vector<std::string, std::allocator<std::string> > > > >::_M_erase(std::_Rb_tree_node<std::pair<std::string const, std::vector<std::string, std::allocator<std::string> > > >*)
	_ZNSt8_Rb_treeISsSt4pairIKSsSt6vectorISsSaISsEEESt10_Select1stIS5_ESt4lessISsESaIS5_EE8_M_eraseEPSt13_Rb_tree_nodeIS5_E @ 2407
;	std::ios_base::Init::Init()
	_ZNSt8ios_base4InitC1Ev @ 2408
;	std::ios_base::Init::~Init()
	_ZNSt8ios_base4InitD1Ev @ 2409
;	std::ios_base::ios_base()
	_ZNSt8ios_baseC2Ev @ 2410
;	std::ios_base::~ios_base()
	_ZNSt8ios_baseD2Ev @ 2411
;	std::basic_ios<char, std::char_traits<char> >::init(std::basic_streambuf<char, std::char_traits<char> >*)
	_ZNSt9basic_iosIcSt11char_traitsIcEE4initEPSt15basic_streambufIcS1_E @ 2412
;	std::basic_ios<char, std::char_traits<char> >::clear(std::_Ios_Iostate)
	_ZNSt9basic_iosIcSt11char_traitsIcEE5clearESt12_Ios_Iostate @ 2413
;	std::basic_ios<char, std::char_traits<char> >::~basic_ios()
	_ZNSt9basic_iosIcSt11char_traitsIcEED2Ev @ 2414
;	std::exception::~exception()
	_ZNSt9exceptionD2Ev @ 2415
;	void std::__adjust_heap<__gnu_cxx::__normal_iterator<cv::PolyEdge*, std::vector<cv::PolyEdge, std::allocator<cv::PolyEdge> > >, long long, cv::PolyEdge, cv::CmpEdges>(__gnu_cxx::__normal_iterator<cv::PolyEdge*, std::vector<cv::PolyEdge, std::allocator<cv::PolyEdge> > >, long long, long long, cv::PolyEdge, cv::CmpEdges)
	_ZSt13__adjust_heapIN9__gnu_cxx17__normal_iteratorIPN2cv8PolyEdgeESt6vectorIS3_SaIS3_EEEExS3_NS2_8CmpEdgesEEvT_T0_SB_T1_T2_ @ 2416
;	void std::__adjust_heap<signed char*, long long, signed char, cv::LessThan<signed char> >(signed char*, long long, long long, signed char, cv::LessThan<signed char>)
	_ZSt13__adjust_heapIPaxaN2cv8LessThanIaEEEvT_T0_S5_T1_T2_ @ 2417
;	void std::__adjust_heap<double*, long long, double, cv::LessThan<double> >(double*, long long, long long, double, cv::LessThan<double>)
	_ZSt13__adjust_heapIPdxdN2cv8LessThanIdEEEvT_T0_S5_T1_T2_ @ 2418
;	void std::__adjust_heap<float*, long long, float, cv::LessThan<float> >(float*, long long, long long, float, cv::LessThan<float>)
	_ZSt13__adjust_heapIPfxfN2cv8LessThanIfEEEvT_T0_S5_T1_T2_ @ 2419
;	void std::__adjust_heap<unsigned char*, long long, unsigned char, cv::LessThan<unsigned char> >(unsigned char*, long long, long long, unsigned char, cv::LessThan<unsigned char>)
	_ZSt13__adjust_heapIPhxhN2cv8LessThanIhEEEvT_T0_S5_T1_T2_ @ 2420
;	void std::__adjust_heap<int*, long long, int, cv::LessThanIdx<signed char> >(int*, long long, long long, int, cv::LessThanIdx<signed char>)
	_ZSt13__adjust_heapIPixiN2cv11LessThanIdxIaEEEvT_T0_S5_T1_T2_ @ 2421
;	void std::__adjust_heap<int*, long long, int, cv::LessThanIdx<double> >(int*, long long, long long, int, cv::LessThanIdx<double>)
	_ZSt13__adjust_heapIPixiN2cv11LessThanIdxIdEEEvT_T0_S5_T1_T2_ @ 2422
;	void std::__adjust_heap<int*, long long, int, cv::LessThanIdx<float> >(int*, long long, long long, int, cv::LessThanIdx<float>)
	_ZSt13__adjust_heapIPixiN2cv11LessThanIdxIfEEEvT_T0_S5_T1_T2_ @ 2423
;	void std::__adjust_heap<int*, long long, int, cv::LessThanIdx<unsigned char> >(int*, long long, long long, int, cv::LessThanIdx<unsigned char>)
	_ZSt13__adjust_heapIPixiN2cv11LessThanIdxIhEEEvT_T0_S5_T1_T2_ @ 2424
;	void std::__adjust_heap<int*, long long, int, cv::LessThanIdx<int> >(int*, long long, long long, int, cv::LessThanIdx<int>)
	_ZSt13__adjust_heapIPixiN2cv11LessThanIdxIiEEEvT_T0_S5_T1_T2_ @ 2425
;	void std::__adjust_heap<int*, long long, int, cv::LessThanIdx<short> >(int*, long long, long long, int, cv::LessThanIdx<short>)
	_ZSt13__adjust_heapIPixiN2cv11LessThanIdxIsEEEvT_T0_S5_T1_T2_ @ 2426
;	void std::__adjust_heap<int*, long long, int, cv::LessThanIdx<unsigned short> >(int*, long long, long long, int, cv::LessThanIdx<unsigned short>)
	_ZSt13__adjust_heapIPixiN2cv11LessThanIdxItEEEvT_T0_S5_T1_T2_ @ 2427
;	void std::__adjust_heap<int*, long long, int, cv::LessThan<int> >(int*, long long, long long, int, cv::LessThan<int>)
	_ZSt13__adjust_heapIPixiN2cv8LessThanIiEEEvT_T0_S5_T1_T2_ @ 2428
;	void std::__adjust_heap<short*, long long, short, cv::LessThan<short> >(short*, long long, long long, short, cv::LessThan<short>)
	_ZSt13__adjust_heapIPsxsN2cv8LessThanIsEEEvT_T0_S5_T1_T2_ @ 2429
;	void std::__adjust_heap<unsigned short*, long long, unsigned short, cv::LessThan<unsigned short> >(unsigned short*, long long, long long, unsigned short, cv::LessThan<unsigned short>)
	_ZSt13__adjust_heapIPtxtN2cv8LessThanItEEEvT_T0_S5_T1_T2_ @ 2430
;	void std::__heap_select<__gnu_cxx::__normal_iterator<cv::PolyEdge*, std::vector<cv::PolyEdge, std::allocator<cv::PolyEdge> > >, cv::CmpEdges>(__gnu_cxx::__normal_iterator<cv::PolyEdge*, std::vector<cv::PolyEdge, std::allocator<cv::PolyEdge> > >, __gnu_cxx::__normal_iterator<cv::PolyEdge*, std::vector<cv::PolyEdge, std::allocator<cv::PolyEdge> > >, __gnu_cxx::__normal_iterator<cv::PolyEdge*, std::vector<cv::PolyEdge, std::allocator<cv::PolyEdge> > >, cv::CmpEdges)
	_ZSt13__heap_selectIN9__gnu_cxx17__normal_iteratorIPN2cv8PolyEdgeESt6vectorIS3_SaIS3_EEEENS2_8CmpEdgesEEvT_SA_SA_T0_ @ 2431
;	void std::__heap_select<signed char*, cv::LessThan<signed char> >(signed char*, signed char*, signed char*, cv::LessThan<signed char>)
	_ZSt13__heap_selectIPaN2cv8LessThanIaEEEvT_S4_S4_T0_ @ 2432
;	void std::__heap_select<double*, cv::LessThan<double> >(double*, double*, double*, cv::LessThan<double>)
	_ZSt13__heap_selectIPdN2cv8LessThanIdEEEvT_S4_S4_T0_ @ 2433
;	void std::__heap_select<float*, cv::LessThan<float> >(float*, float*, float*, cv::LessThan<float>)
	_ZSt13__heap_selectIPfN2cv8LessThanIfEEEvT_S4_S4_T0_ @ 2434
;	void std::__heap_select<unsigned char*, cv::LessThan<unsigned char> >(unsigned char*, unsigned char*, unsigned char*, cv::LessThan<unsigned char>)
	_ZSt13__heap_selectIPhN2cv8LessThanIhEEEvT_S4_S4_T0_ @ 2435
;	void std::__heap_select<int*, cv::LessThanIdx<signed char> >(int*, int*, int*, cv::LessThanIdx<signed char>)
	_ZSt13__heap_selectIPiN2cv11LessThanIdxIaEEEvT_S4_S4_T0_ @ 2436
;	void std::__heap_select<int*, cv::LessThanIdx<double> >(int*, int*, int*, cv::LessThanIdx<double>)
	_ZSt13__heap_selectIPiN2cv11LessThanIdxIdEEEvT_S4_S4_T0_ @ 2437
;	void std::__heap_select<int*, cv::LessThanIdx<float> >(int*, int*, int*, cv::LessThanIdx<float>)
	_ZSt13__heap_selectIPiN2cv11LessThanIdxIfEEEvT_S4_S4_T0_ @ 2438
;	void std::__heap_select<int*, cv::LessThanIdx<unsigned char> >(int*, int*, int*, cv::LessThanIdx<unsigned char>)
	_ZSt13__heap_selectIPiN2cv11LessThanIdxIhEEEvT_S4_S4_T0_ @ 2439
;	void std::__heap_select<int*, cv::LessThanIdx<int> >(int*, int*, int*, cv::LessThanIdx<int>)
	_ZSt13__heap_selectIPiN2cv11LessThanIdxIiEEEvT_S4_S4_T0_ @ 2440
;	void std::__heap_select<int*, cv::LessThanIdx<short> >(int*, int*, int*, cv::LessThanIdx<short>)
	_ZSt13__heap_selectIPiN2cv11LessThanIdxIsEEEvT_S4_S4_T0_ @ 2441
;	void std::__heap_select<int*, cv::LessThanIdx<unsigned short> >(int*, int*, int*, cv::LessThanIdx<unsigned short>)
	_ZSt13__heap_selectIPiN2cv11LessThanIdxItEEEvT_S4_S4_T0_ @ 2442
;	void std::__heap_select<int*, cv::LessThan<int> >(int*, int*, int*, cv::LessThan<int>)
	_ZSt13__heap_selectIPiN2cv8LessThanIiEEEvT_S4_S4_T0_ @ 2443
;	void std::__heap_select<short*, cv::LessThan<short> >(short*, short*, short*, cv::LessThan<short>)
	_ZSt13__heap_selectIPsN2cv8LessThanIsEEEvT_S4_S4_T0_ @ 2444
;	void std::__heap_select<unsigned short*, cv::LessThan<unsigned short> >(unsigned short*, unsigned short*, unsigned short*, cv::LessThan<unsigned short>)
	_ZSt13__heap_selectIPtN2cv8LessThanItEEEvT_S4_S4_T0_ @ 2445
;	void std::__insertion_sort<__gnu_cxx::__normal_iterator<cv::PolyEdge*, std::vector<cv::PolyEdge, std::allocator<cv::PolyEdge> > >, cv::CmpEdges>(__gnu_cxx::__normal_iterator<cv::PolyEdge*, std::vector<cv::PolyEdge, std::allocator<cv::PolyEdge> > >, __gnu_cxx::__normal_iterator<cv::PolyEdge*, std::vector<cv::PolyEdge, std::allocator<cv::PolyEdge> > >, cv::CmpEdges)
	_ZSt16__insertion_sortIN9__gnu_cxx17__normal_iteratorIPN2cv8PolyEdgeESt6vectorIS3_SaIS3_EEEENS2_8CmpEdgesEEvT_SA_T0_ @ 2446
;	void std::__insertion_sort<signed char*, cv::LessThan<signed char> >(signed char*, signed char*, cv::LessThan<signed char>)
	_ZSt16__insertion_sortIPaN2cv8LessThanIaEEEvT_S4_T0_ @ 2447
;	void std::__insertion_sort<double*, cv::LessThan<double> >(double*, double*, cv::LessThan<double>)
	_ZSt16__insertion_sortIPdN2cv8LessThanIdEEEvT_S4_T0_ @ 2448
;	void std::__insertion_sort<float*, cv::LessThan<float> >(float*, float*, cv::LessThan<float>)
	_ZSt16__insertion_sortIPfN2cv8LessThanIfEEEvT_S4_T0_ @ 2449
;	void std::__insertion_sort<unsigned char*, cv::LessThan<unsigned char> >(unsigned char*, unsigned char*, cv::LessThan<unsigned char>)
	_ZSt16__insertion_sortIPhN2cv8LessThanIhEEEvT_S4_T0_ @ 2450
;	void std::__insertion_sort<int*, cv::LessThanIdx<signed char> >(int*, int*, cv::LessThanIdx<signed char>)
	_ZSt16__insertion_sortIPiN2cv11LessThanIdxIaEEEvT_S4_T0_ @ 2451
;	void std::__insertion_sort<int*, cv::LessThanIdx<double> >(int*, int*, cv::LessThanIdx<double>)
	_ZSt16__insertion_sortIPiN2cv11LessThanIdxIdEEEvT_S4_T0_ @ 2452
;	void std::__insertion_sort<int*, cv::LessThanIdx<float> >(int*, int*, cv::LessThanIdx<float>)
	_ZSt16__insertion_sortIPiN2cv11LessThanIdxIfEEEvT_S4_T0_ @ 2453
;	void std::__insertion_sort<int*, cv::LessThanIdx<unsigned char> >(int*, int*, cv::LessThanIdx<unsigned char>)
	_ZSt16__insertion_sortIPiN2cv11LessThanIdxIhEEEvT_S4_T0_ @ 2454
;	void std::__insertion_sort<int*, cv::LessThanIdx<int> >(int*, int*, cv::LessThanIdx<int>)
	_ZSt16__insertion_sortIPiN2cv11LessThanIdxIiEEEvT_S4_T0_ @ 2455
;	void std::__insertion_sort<int*, cv::LessThanIdx<short> >(int*, int*, cv::LessThanIdx<short>)
	_ZSt16__insertion_sortIPiN2cv11LessThanIdxIsEEEvT_S4_T0_ @ 2456
;	void std::__insertion_sort<int*, cv::LessThanIdx<unsigned short> >(int*, int*, cv::LessThanIdx<unsigned short>)
	_ZSt16__insertion_sortIPiN2cv11LessThanIdxItEEEvT_S4_T0_ @ 2457
;	void std::__insertion_sort<int*, cv::LessThan<int> >(int*, int*, cv::LessThan<int>)
	_ZSt16__insertion_sortIPiN2cv8LessThanIiEEEvT_S4_T0_ @ 2458
;	void std::__insertion_sort<short*, cv::LessThan<short> >(short*, short*, cv::LessThan<short>)
	_ZSt16__insertion_sortIPsN2cv8LessThanIsEEEvT_S4_T0_ @ 2459
;	void std::__insertion_sort<unsigned short*, cv::LessThan<unsigned short> >(unsigned short*, unsigned short*, cv::LessThan<unsigned short>)
	_ZSt16__insertion_sortIPtN2cv8LessThanItEEEvT_S4_T0_ @ 2460
;	void std::__introsort_loop<__gnu_cxx::__normal_iterator<cv::PolyEdge*, std::vector<cv::PolyEdge, std::allocator<cv::PolyEdge> > >, long long, cv::CmpEdges>(__gnu_cxx::__normal_iterator<cv::PolyEdge*, std::vector<cv::PolyEdge, std::allocator<cv::PolyEdge> > >, __gnu_cxx::__normal_iterator<cv::PolyEdge*, std::vector<cv::PolyEdge, std::allocator<cv::PolyEdge> > >, long long, cv::CmpEdges)
	_ZSt16__introsort_loopIN9__gnu_cxx17__normal_iteratorIPN2cv8PolyEdgeESt6vectorIS3_SaIS3_EEEExNS2_8CmpEdgesEEvT_SA_T0_T1_ @ 2461
;	void std::__introsort_loop<signed char*, long long, cv::LessThan<signed char> >(signed char*, signed char*, long long, cv::LessThan<signed char>)
	_ZSt16__introsort_loopIPaxN2cv8LessThanIaEEEvT_S4_T0_T1_ @ 2462
;	void std::__introsort_loop<double*, long long, cv::LessThan<double> >(double*, double*, long long, cv::LessThan<double>)
	_ZSt16__introsort_loopIPdxN2cv8LessThanIdEEEvT_S4_T0_T1_ @ 2463
;	void std::__introsort_loop<float*, long long, cv::LessThan<float> >(float*, float*, long long, cv::LessThan<float>)
	_ZSt16__introsort_loopIPfxN2cv8LessThanIfEEEvT_S4_T0_T1_ @ 2464
;	void std::__introsort_loop<unsigned char*, long long, cv::LessThan<unsigned char> >(unsigned char*, unsigned char*, long long, cv::LessThan<unsigned char>)
	_ZSt16__introsort_loopIPhxN2cv8LessThanIhEEEvT_S4_T0_T1_ @ 2465
;	void std::__introsort_loop<int*, long long, cv::LessThanIdx<signed char> >(int*, int*, long long, cv::LessThanIdx<signed char>)
	_ZSt16__introsort_loopIPixN2cv11LessThanIdxIaEEEvT_S4_T0_T1_ @ 2466
;	void std::__introsort_loop<int*, long long, cv::LessThanIdx<double> >(int*, int*, long long, cv::LessThanIdx<double>)
	_ZSt16__introsort_loopIPixN2cv11LessThanIdxIdEEEvT_S4_T0_T1_ @ 2467
;	void std::__introsort_loop<int*, long long, cv::LessThanIdx<float> >(int*, int*, long long, cv::LessThanIdx<float>)
	_ZSt16__introsort_loopIPixN2cv11LessThanIdxIfEEEvT_S4_T0_T1_ @ 2468
;	void std::__introsort_loop<int*, long long, cv::LessThanIdx<unsigned char> >(int*, int*, long long, cv::LessThanIdx<unsigned char>)
	_ZSt16__introsort_loopIPixN2cv11LessThanIdxIhEEEvT_S4_T0_T1_ @ 2469
;	void std::__introsort_loop<int*, long long, cv::LessThanIdx<int> >(int*, int*, long long, cv::LessThanIdx<int>)
	_ZSt16__introsort_loopIPixN2cv11LessThanIdxIiEEEvT_S4_T0_T1_ @ 2470
;	void std::__introsort_loop<int*, long long, cv::LessThanIdx<short> >(int*, int*, long long, cv::LessThanIdx<short>)
	_ZSt16__introsort_loopIPixN2cv11LessThanIdxIsEEEvT_S4_T0_T1_ @ 2471
;	void std::__introsort_loop<int*, long long, cv::LessThanIdx<unsigned short> >(int*, int*, long long, cv::LessThanIdx<unsigned short>)
	_ZSt16__introsort_loopIPixN2cv11LessThanIdxItEEEvT_S4_T0_T1_ @ 2472
;	void std::__introsort_loop<int*, long long, cv::LessThan<int> >(int*, int*, long long, cv::LessThan<int>)
	_ZSt16__introsort_loopIPixN2cv8LessThanIiEEEvT_S4_T0_T1_ @ 2473
;	void std::__introsort_loop<short*, long long, cv::LessThan<short> >(short*, short*, long long, cv::LessThan<short>)
	_ZSt16__introsort_loopIPsxN2cv8LessThanIsEEEvT_S4_T0_T1_ @ 2474
;	void std::__introsort_loop<unsigned short*, long long, cv::LessThan<unsigned short> >(unsigned short*, unsigned short*, long long, cv::LessThan<unsigned short>)
	_ZSt16__introsort_loopIPtxN2cv8LessThanItEEEvT_S4_T0_T1_ @ 2475
;	std::basic_ostream<char, std::char_traits<char> >& std::__ostream_insert<char, std::char_traits<char> >(std::basic_ostream<char, std::char_traits<char> >&, char const*, long long)
	_ZSt16__ostream_insertIcSt11char_traitsIcEERSt13basic_ostreamIT_T0_ES6_PKS3_x @ 2476
;	std::__throw_bad_cast()
	_ZSt16__throw_bad_castv @ 2477
;	std::__throw_bad_alloc()
	_ZSt17__throw_bad_allocv @ 2478
;	std::_Rb_tree_decrement(std::_Rb_tree_node_base const*)
	_ZSt18_Rb_tree_decrementPKSt18_Rb_tree_node_base @ 2479
;	std::_Rb_tree_decrement(std::_Rb_tree_node_base*)
	_ZSt18_Rb_tree_decrementPSt18_Rb_tree_node_base @ 2480
;	std::_Rb_tree_increment(std::_Rb_tree_node_base const*)
	_ZSt18_Rb_tree_incrementPKSt18_Rb_tree_node_base @ 2481
;	std::_Rb_tree_increment(std::_Rb_tree_node_base*)
	_ZSt18_Rb_tree_incrementPSt18_Rb_tree_node_base @ 2482
;	std::uncaught_exception()
	_ZSt18uncaught_exceptionv @ 2483
;	void std::__move_median_first<__gnu_cxx::__normal_iterator<cv::PolyEdge*, std::vector<cv::PolyEdge, std::allocator<cv::PolyEdge> > >, cv::CmpEdges>(__gnu_cxx::__normal_iterator<cv::PolyEdge*, std::vector<cv::PolyEdge, std::allocator<cv::PolyEdge> > >, __gnu_cxx::__normal_iterator<cv::PolyEdge*, std::vector<cv::PolyEdge, std::allocator<cv::PolyEdge> > >, __gnu_cxx::__normal_iterator<cv::PolyEdge*, std::vector<cv::PolyEdge, std::allocator<cv::PolyEdge> > >, cv::CmpEdges)
	_ZSt19__move_median_firstIN9__gnu_cxx17__normal_iteratorIPN2cv8PolyEdgeESt6vectorIS3_SaIS3_EEEENS2_8CmpEdgesEEvT_SA_SA_T0_ @ 2484
;	void std::__move_median_first<signed char*, cv::LessThan<signed char> >(signed char*, signed char*, signed char*, cv::LessThan<signed char>)
	_ZSt19__move_median_firstIPaN2cv8LessThanIaEEEvT_S4_S4_T0_ @ 2485
;	void std::__move_median_first<double*, cv::LessThan<double> >(double*, double*, double*, cv::LessThan<double>)
	_ZSt19__move_median_firstIPdN2cv8LessThanIdEEEvT_S4_S4_T0_ @ 2486
;	void std::__move_median_first<float*, cv::LessThan<float> >(float*, float*, float*, cv::LessThan<float>)
	_ZSt19__move_median_firstIPfN2cv8LessThanIfEEEvT_S4_S4_T0_ @ 2487
;	void std::__move_median_first<unsigned char*, cv::LessThan<unsigned char> >(unsigned char*, unsigned char*, unsigned char*, cv::LessThan<unsigned char>)
	_ZSt19__move_median_firstIPhN2cv8LessThanIhEEEvT_S4_S4_T0_ @ 2488
;	void std::__move_median_first<int*, cv::LessThanIdx<signed char> >(int*, int*, int*, cv::LessThanIdx<signed char>)
	_ZSt19__move_median_firstIPiN2cv11LessThanIdxIaEEEvT_S4_S4_T0_ @ 2489
;	void std::__move_median_first<int*, cv::LessThanIdx<double> >(int*, int*, int*, cv::LessThanIdx<double>)
	_ZSt19__move_median_firstIPiN2cv11LessThanIdxIdEEEvT_S4_S4_T0_ @ 2490
;	void std::__move_median_first<int*, cv::LessThanIdx<float> >(int*, int*, int*, cv::LessThanIdx<float>)
	_ZSt19__move_median_firstIPiN2cv11LessThanIdxIfEEEvT_S4_S4_T0_ @ 2491
;	void std::__move_median_first<int*, cv::LessThanIdx<unsigned char> >(int*, int*, int*, cv::LessThanIdx<unsigned char>)
	_ZSt19__move_median_firstIPiN2cv11LessThanIdxIhEEEvT_S4_S4_T0_ @ 2492
;	void std::__move_median_first<int*, cv::LessThanIdx<int> >(int*, int*, int*, cv::LessThanIdx<int>)
	_ZSt19__move_median_firstIPiN2cv11LessThanIdxIiEEEvT_S4_S4_T0_ @ 2493
;	void std::__move_median_first<int*, cv::LessThanIdx<short> >(int*, int*, int*, cv::LessThanIdx<short>)
	_ZSt19__move_median_firstIPiN2cv11LessThanIdxIsEEEvT_S4_S4_T0_ @ 2494
;	void std::__move_median_first<int*, cv::LessThanIdx<unsigned short> >(int*, int*, int*, cv::LessThanIdx<unsigned short>)
	_ZSt19__move_median_firstIPiN2cv11LessThanIdxItEEEvT_S4_S4_T0_ @ 2495
;	void std::__move_median_first<int*, cv::LessThan<int> >(int*, int*, int*, cv::LessThan<int>)
	_ZSt19__move_median_firstIPiN2cv8LessThanIiEEEvT_S4_S4_T0_ @ 2496
;	void std::__move_median_first<short*, cv::LessThan<short> >(short*, short*, short*, cv::LessThan<short>)
	_ZSt19__move_median_firstIPsN2cv8LessThanIsEEEvT_S4_S4_T0_ @ 2497
;	void std::__move_median_first<unsigned short*, cv::LessThan<unsigned short> >(unsigned short*, unsigned short*, unsigned short*, cv::LessThan<unsigned short>)
	_ZSt19__move_median_firstIPtN2cv8LessThanItEEEvT_S4_S4_T0_ @ 2498
;	std::__throw_length_error(char const*)
	_ZSt20__throw_length_errorPKc @ 2499
;	std::__throw_out_of_range(char const*)
	_ZSt20__throw_out_of_rangePKc @ 2500
;	void std::__unguarded_linear_insert<__gnu_cxx::__normal_iterator<cv::PolyEdge*, std::vector<cv::PolyEdge, std::allocator<cv::PolyEdge> > >, cv::CmpEdges>(__gnu_cxx::__normal_iterator<cv::PolyEdge*, std::vector<cv::PolyEdge, std::allocator<cv::PolyEdge> > >, cv::CmpEdges)
	_ZSt25__unguarded_linear_insertIN9__gnu_cxx17__normal_iteratorIPN2cv8PolyEdgeESt6vectorIS3_SaIS3_EEEENS2_8CmpEdgesEEvT_T0_ @ 2501
;	void std::__unguarded_linear_insert<signed char*, cv::LessThan<signed char> >(signed char*, cv::LessThan<signed char>)
	_ZSt25__unguarded_linear_insertIPaN2cv8LessThanIaEEEvT_T0_ @ 2502
;	void std::__unguarded_linear_insert<double*, cv::LessThan<double> >(double*, cv::LessThan<double>)
	_ZSt25__unguarded_linear_insertIPdN2cv8LessThanIdEEEvT_T0_ @ 2503
;	void std::__unguarded_linear_insert<float*, cv::LessThan<float> >(float*, cv::LessThan<float>)
	_ZSt25__unguarded_linear_insertIPfN2cv8LessThanIfEEEvT_T0_ @ 2504
;	void std::__unguarded_linear_insert<unsigned char*, cv::LessThan<unsigned char> >(unsigned char*, cv::LessThan<unsigned char>)
	_ZSt25__unguarded_linear_insertIPhN2cv8LessThanIhEEEvT_T0_ @ 2505
;	void std::__unguarded_linear_insert<int*, cv::LessThanIdx<signed char> >(int*, cv::LessThanIdx<signed char>)
	_ZSt25__unguarded_linear_insertIPiN2cv11LessThanIdxIaEEEvT_T0_ @ 2506
;	void std::__unguarded_linear_insert<int*, cv::LessThanIdx<double> >(int*, cv::LessThanIdx<double>)
	_ZSt25__unguarded_linear_insertIPiN2cv11LessThanIdxIdEEEvT_T0_ @ 2507
;	void std::__unguarded_linear_insert<int*, cv::LessThanIdx<float> >(int*, cv::LessThanIdx<float>)
	_ZSt25__unguarded_linear_insertIPiN2cv11LessThanIdxIfEEEvT_T0_ @ 2508
;	void std::__unguarded_linear_insert<int*, cv::LessThanIdx<unsigned char> >(int*, cv::LessThanIdx<unsigned char>)
	_ZSt25__unguarded_linear_insertIPiN2cv11LessThanIdxIhEEEvT_T0_ @ 2509
;	void std::__unguarded_linear_insert<int*, cv::LessThanIdx<int> >(int*, cv::LessThanIdx<int>)
	_ZSt25__unguarded_linear_insertIPiN2cv11LessThanIdxIiEEEvT_T0_ @ 2510
;	void std::__unguarded_linear_insert<int*, cv::LessThanIdx<short> >(int*, cv::LessThanIdx<short>)
	_ZSt25__unguarded_linear_insertIPiN2cv11LessThanIdxIsEEEvT_T0_ @ 2511
;	void std::__unguarded_linear_insert<int*, cv::LessThanIdx<unsigned short> >(int*, cv::LessThanIdx<unsigned short>)
	_ZSt25__unguarded_linear_insertIPiN2cv11LessThanIdxItEEEvT_T0_ @ 2512
;	void std::__unguarded_linear_insert<int*, cv::LessThan<int> >(int*, cv::LessThan<int>)
	_ZSt25__unguarded_linear_insertIPiN2cv8LessThanIiEEEvT_T0_ @ 2513
;	void std::__unguarded_linear_insert<short*, cv::LessThan<short> >(short*, cv::LessThan<short>)
	_ZSt25__unguarded_linear_insertIPsN2cv8LessThanIsEEEvT_T0_ @ 2514
;	void std::__unguarded_linear_insert<unsigned short*, cv::LessThan<unsigned short> >(unsigned short*, cv::LessThan<unsigned short>)
	_ZSt25__unguarded_linear_insertIPtN2cv8LessThanItEEEvT_T0_ @ 2515
;	std::_Rb_tree_insert_and_rebalance(bool, std::_Rb_tree_node_base*, std::_Rb_tree_node_base*, std::_Rb_tree_node_base&)
	_ZSt29_Rb_tree_insert_and_rebalancebPSt18_Rb_tree_node_baseS0_RS_ @ 2516
;	void std::_Destroy<cv::Mat*>(cv::Mat*, cv::Mat*)
	_ZSt8_DestroyIPN2cv3MatEEvT_S3_ @ 2517
;	void std::_Destroy<std::vector<unsigned char, std::allocator<unsigned char> >*>(std::vector<unsigned char, std::allocator<unsigned char> >*, std::vector<unsigned char, std::allocator<unsigned char> >*)
	_ZSt8_DestroyIPSt6vectorIhSaIhEEEvT_S4_ @ 2518
;	std::terminate()
	_ZSt9terminatev @ 2519
;	std::basic_string<char, std::char_traits<char>, std::allocator<char> > std::operator+<char, std::char_traits<char>, std::allocator<char> >(char const*, std::basic_string<char, std::char_traits<char>, std::allocator<char> > const&)
	_ZStplIcSt11char_traitsIcESaIcEESbIT_T0_T1_EPKS3_RKS6_ @ 2520
;	std::basic_string<char, std::char_traits<char>, std::allocator<char> > std::operator+<char, std::char_traits<char>, std::allocator<char> >(std::basic_string<char, std::char_traits<char>, std::allocator<char> > const&, std::basic_string<char, std::char_traits<char>, std::allocator<char> > const&)
	_ZStplIcSt11char_traitsIcESaIcEESbIT_T0_T1_ERKS6_S8_ @ 2521
;	typeinfo for CvOpenGlFuncTab
	_ZTI15CvOpenGlFuncTab @ 2522 DATA
;	typeinfo for cv::CFormatter
	_ZTIN2cv10CFormatterE @ 2523 DATA
;	typeinfo for cv::MatOp_GEMM
	_ZTIN2cv10MatOp_GEMME @ 2524 DATA
;	typeinfo for cv::FileStorage
	_ZTIN2cv11FileStorageE @ 2525 DATA
;	typeinfo for cv::MatOp_AddEx
	_ZTIN2cv11MatOp_AddExE @ 2526 DATA
;	typeinfo for cv::MatOp_Solve
	_ZTIN2cv11MatOp_SolveE @ 2527 DATA
;	typeinfo for cv::_InputArray
	_ZTIN2cv11_InputArrayE @ 2528 DATA
;	typeinfo for cv::CSVFormatter
	_ZTIN2cv12CSVFormatterE @ 2529 DATA
;	typeinfo for cv::MatAllocator
	_ZTIN2cv12MatAllocatorE @ 2530 DATA
;	typeinfo for cv::MatOp_Invert
	_ZTIN2cv12MatOp_InvertE @ 2531 DATA
;	typeinfo for cv::_OutputArray
	_ZTIN2cv12_OutputArrayE @ 2532 DATA
;	typeinfo for cv::MatOp_Identity
	_ZTIN2cv14MatOp_IdentityE @ 2533 DATA
;	typeinfo for cv::NumpyFormatter
	_ZTIN2cv14NumpyFormatterE @ 2534 DATA
;	typeinfo for cv::MatlabFormatter
	_ZTIN2cv15MatlabFormatterE @ 2535 DATA
;	typeinfo for cv::PythonFormatter
	_ZTIN2cv15PythonFormatterE @ 2536 DATA
;	typeinfo for cv::BatchDistInvoker
	_ZTIN2cv16BatchDistInvokerE @ 2537 DATA
;	typeinfo for cv::ParallelLoopBody
	_ZTIN2cv16ParallelLoopBodyE @ 2538 DATA
;	typeinfo for cv::MatOp_Initializer
	_ZTIN2cv17MatOp_InitializerE @ 2539 DATA
;	typeinfo for cv::KMeansDistanceComputer
	_ZTIN2cv22KMeansDistanceComputerE @ 2540 DATA
;	typeinfo for cv::KMeansPPDistanceComputer
	_ZTIN2cv24KMeansPPDistanceComputerE @ 2541 DATA
;	typeinfo for cv::MatOp
	_ZTIN2cv5MatOpE @ 2542 DATA
;	typeinfo for cv::MatOp_T
	_ZTIN2cv7MatOp_TE @ 2543 DATA
;	typeinfo for cv::Algorithm
	_ZTIN2cv9AlgorithmE @ 2544 DATA
;	typeinfo for cv::Exception
	_ZTIN2cv9ExceptionE @ 2545 DATA
;	typeinfo for cv::Formatter
	_ZTIN2cv9FormatterE @ 2546 DATA
;	typeinfo for cv::MatOp_Bin
	_ZTIN2cv9MatOp_BinE @ 2547 DATA
;	typeinfo for cv::MatOp_Cmp
	_ZTIN2cv9MatOp_CmpE @ 2548 DATA
;	typeinfo for std::exception
	_ZTISt9exception @ 2549 DATA
;	typeinfo name for CvOpenGlFuncTab
	_ZTS15CvOpenGlFuncTab @ 2550 DATA
;	typeinfo name for cv::CFormatter
	_ZTSN2cv10CFormatterE @ 2551 DATA
;	typeinfo name for cv::MatOp_GEMM
	_ZTSN2cv10MatOp_GEMME @ 2552 DATA
;	typeinfo name for cv::FileStorage
	_ZTSN2cv11FileStorageE @ 2553 DATA
;	typeinfo name for cv::MatOp_AddEx
	_ZTSN2cv11MatOp_AddExE @ 2554 DATA
;	typeinfo name for cv::MatOp_Solve
	_ZTSN2cv11MatOp_SolveE @ 2555 DATA
;	typeinfo name for cv::_InputArray
	_ZTSN2cv11_InputArrayE @ 2556 DATA
;	typeinfo name for cv::CSVFormatter
	_ZTSN2cv12CSVFormatterE @ 2557 DATA
;	typeinfo name for cv::MatAllocator
	_ZTSN2cv12MatAllocatorE @ 2558 DATA
;	typeinfo name for cv::MatOp_Invert
	_ZTSN2cv12MatOp_InvertE @ 2559 DATA
;	typeinfo name for cv::_OutputArray
	_ZTSN2cv12_OutputArrayE @ 2560 DATA
;	typeinfo name for cv::MatOp_Identity
	_ZTSN2cv14MatOp_IdentityE @ 2561 DATA
;	typeinfo name for cv::NumpyFormatter
	_ZTSN2cv14NumpyFormatterE @ 2562 DATA
;	typeinfo name for cv::MatlabFormatter
	_ZTSN2cv15MatlabFormatterE @ 2563 DATA
;	typeinfo name for cv::PythonFormatter
	_ZTSN2cv15PythonFormatterE @ 2564 DATA
;	typeinfo name for cv::BatchDistInvoker
	_ZTSN2cv16BatchDistInvokerE @ 2565 DATA
;	typeinfo name for cv::ParallelLoopBody
	_ZTSN2cv16ParallelLoopBodyE @ 2566 DATA
;	typeinfo name for cv::MatOp_Initializer
	_ZTSN2cv17MatOp_InitializerE @ 2567 DATA
;	typeinfo name for cv::KMeansDistanceComputer
	_ZTSN2cv22KMeansDistanceComputerE @ 2568 DATA
;	typeinfo name for cv::KMeansPPDistanceComputer
	_ZTSN2cv24KMeansPPDistanceComputerE @ 2569 DATA
;	typeinfo name for cv::MatOp
	_ZTSN2cv5MatOpE @ 2570 DATA
;	typeinfo name for cv::MatOp_T
	_ZTSN2cv7MatOp_TE @ 2571 DATA
;	typeinfo name for cv::Algorithm
	_ZTSN2cv9AlgorithmE @ 2572 DATA
;	typeinfo name for cv::Exception
	_ZTSN2cv9ExceptionE @ 2573 DATA
;	typeinfo name for cv::Formatter
	_ZTSN2cv9FormatterE @ 2574 DATA
;	typeinfo name for cv::MatOp_Bin
	_ZTSN2cv9MatOp_BinE @ 2575 DATA
;	typeinfo name for cv::MatOp_Cmp
	_ZTSN2cv9MatOp_CmpE @ 2576 DATA
;	typeinfo name for std::exception
	_ZTSSt9exception @ 2577 DATA
;	vtable for CvOpenGlFuncTab
	_ZTV15CvOpenGlFuncTab @ 2578 DATA
;	vtable for cv::CFormatter
	_ZTVN2cv10CFormatterE @ 2579 DATA
;	vtable for cv::MatOp_GEMM
	_ZTVN2cv10MatOp_GEMME @ 2580 DATA
;	vtable for cv::FileStorage
	_ZTVN2cv11FileStorageE @ 2581 DATA
;	vtable for cv::MatOp_AddEx
	_ZTVN2cv11MatOp_AddExE @ 2582 DATA
;	vtable for cv::MatOp_Solve
	_ZTVN2cv11MatOp_SolveE @ 2583 DATA
;	vtable for cv::_InputArray
	_ZTVN2cv11_InputArrayE @ 2584 DATA
;	vtable for cv::CSVFormatter
	_ZTVN2cv12CSVFormatterE @ 2585 DATA
;	vtable for cv::MatAllocator
	_ZTVN2cv12MatAllocatorE @ 2586 DATA
;	vtable for cv::MatOp_Invert
	_ZTVN2cv12MatOp_InvertE @ 2587 DATA
;	vtable for cv::_OutputArray
	_ZTVN2cv12_OutputArrayE @ 2588 DATA
;	vtable for cv::MatOp_Identity
	_ZTVN2cv14MatOp_IdentityE @ 2589 DATA
;	vtable for cv::NumpyFormatter
	_ZTVN2cv14NumpyFormatterE @ 2590 DATA
;	vtable for cv::MatlabFormatter
	_ZTVN2cv15MatlabFormatterE @ 2591 DATA
;	vtable for cv::PythonFormatter
	_ZTVN2cv15PythonFormatterE @ 2592 DATA
;	vtable for cv::BatchDistInvoker
	_ZTVN2cv16BatchDistInvokerE @ 2593 DATA
;	vtable for cv::ParallelLoopBody
	_ZTVN2cv16ParallelLoopBodyE @ 2594 DATA
;	vtable for cv::MatOp_Initializer
	_ZTVN2cv17MatOp_InitializerE @ 2595 DATA
;	vtable for cv::KMeansDistanceComputer
	_ZTVN2cv22KMeansDistanceComputerE @ 2596 DATA
;	vtable for cv::KMeansPPDistanceComputer
	_ZTVN2cv24KMeansPPDistanceComputerE @ 2597 DATA
;	vtable for cv::MatOp
	_ZTVN2cv5MatOpE @ 2598 DATA
;	vtable for cv::MatOp_T
	_ZTVN2cv7MatOp_TE @ 2599 DATA
;	vtable for cv::Algorithm
	_ZTVN2cv9AlgorithmE @ 2600 DATA
;	vtable for cv::Exception
	_ZTVN2cv9ExceptionE @ 2601 DATA
;	vtable for cv::Formatter
	_ZTVN2cv9FormatterE @ 2602 DATA
;	vtable for cv::MatOp_Bin
	_ZTVN2cv9MatOp_BinE @ 2603 DATA
;	vtable for cv::MatOp_Cmp
	_ZTVN2cv9MatOp_CmpE @ 2604 DATA
;	cv::NumpyFormatter::write(std::ostream&, cv::Mat const&, int const*, int) const::numpyTypes
	_ZZNK2cv14NumpyFormatter5writeERSoRKNS_3MatEPKiiE10numpyTypes @ 2605 DATA
;	operator delete[](void*)
	_ZdaPv @ 2606
;	operator delete(void*)
	_ZdlPv @ 2607
;	operator new[](unsigned long long)
	_Znay @ 2608
;	operator new(unsigned long long)
	_Znwy @ 2609
	__Balloc_D2A @ 2610
	__Bfree_D2A @ 2611
	__CTOR_LIST__ @ 2612 DATA
	__DTOR_LIST__ @ 2613 DATA
	__IAT_end__ @ 2614 DATA
	__IAT_start__ @ 2615 DATA
	__ImageBase @ 2616 DATA
	__RUNTIME_PSEUDO_RELOC_LIST_END__ @ 2617 DATA
	__RUNTIME_PSEUDO_RELOC_LIST__ @ 2618 DATA
	___CTOR_LIST__ @ 2619 DATA
	___DTOR_LIST__ @ 2620 DATA
	___RUNTIME_PSEUDO_RELOC_LIST_END__ @ 2621 DATA
	___RUNTIME_PSEUDO_RELOC_LIST__ @ 2622 DATA
	___chkstk_ms @ 2623 DATA
	___crt_xc_end__ @ 2624 DATA
	___crt_xc_start__ @ 2625 DATA
	___crt_xi_end__ @ 2626 DATA
	___crt_xi_start__ @ 2627 DATA
	___crt_xl_start__ @ 2628 DATA
	___crt_xp_end__ @ 2629 DATA
	___crt_xp_start__ @ 2630 DATA
	___crt_xt_end__ @ 2631 DATA
	___crt_xt_start__ @ 2632 DATA
	___tls_end__ @ 2633 DATA
	___tls_start__ @ 2634 DATA
	___w64_mingwthr_add_key_dtor @ 2635
	___w64_mingwthr_remove_key_dtor @ 2636
	__any_on_D2A @ 2637
	__b2d_D2A @ 2638
	__bigtens_D2A @ 2639 DATA
	__bss_end__ @ 2640 DATA
	__bss_start__ @ 2641 DATA
	__cmp_D2A @ 2642
	__copybits_D2A @ 2643
	__cosl_internal @ 2644
	__cxa_allocate_exception @ 2645
	__cxa_begin_catch @ 2646
	__cxa_end_catch @ 2647
	__cxa_free_exception @ 2648
	__cxa_guard_abort @ 2649
	__cxa_guard_acquire @ 2650
	__cxa_guard_release @ 2651
	__cxa_pure_virtual @ 2652
	__cxa_rethrow @ 2653
	__cxa_throw @ 2654
	__d2b_D2A @ 2655
	__data_end__ @ 2656 DATA
	__data_start__ @ 2657 DATA
	__decrement_D2A @ 2658
	__diff_D2A @ 2659
	__dll__ @ 2660 DATA
	__dll_characteristics__ @ 2661 DATA
	__dllonexit @ 2662
	__do_global_ctors @ 2663
	__do_global_dtors @ 2664
	__dyn_tls_init @ 2665
	__dyn_tls_init_callback @ 2666 DATA
	__file_alignment__ @ 2667 DATA
	__freedtoa @ 2668
	__fu0__ZNSs4_Rep20_S_empty_rep_storageE @ 2669 DATA
	__fu1000__ZNSs4_Rep20_S_empty_rep_storageE @ 2670 DATA
	__fu1001__ZNSs4_Rep20_S_empty_rep_storageE @ 2671 DATA
	__fu1002__ZNSs4_Rep20_S_empty_rep_storageE @ 2672 DATA
	__fu1003__ZNSs4_Rep20_S_empty_rep_storageE @ 2673 DATA
	__fu1004__ZNSs4_Rep20_S_empty_rep_storageE @ 2674 DATA
	__fu1005__ZNSs4_Rep20_S_empty_rep_storageE @ 2675 DATA
	__fu1006__ZNSs4_Rep20_S_empty_rep_storageE @ 2676 DATA
	__fu1007__ZNSs4_Rep20_S_empty_rep_storageE @ 2677 DATA
	__fu1008__ZNSs4_Rep20_S_empty_rep_storageE @ 2678 DATA
	__fu1009__ZNSs4_Rep20_S_empty_rep_storageE @ 2679 DATA
	__fu100__ZNSs4_Rep20_S_empty_rep_storageE @ 2680 DATA
	__fu1010__ZNSs4_Rep20_S_empty_rep_storageE @ 2681 DATA
	__fu1011__ZNSs4_Rep20_S_empty_rep_storageE @ 2682 DATA
	__fu1012__ZNSs4_Rep20_S_empty_rep_storageE @ 2683 DATA
	__fu1013__ZNSs4_Rep20_S_empty_rep_storageE @ 2684 DATA
	__fu1014__ZNSs4_Rep20_S_empty_rep_storageE @ 2685 DATA
	__fu1015__ZNSs4_Rep20_S_empty_rep_storageE @ 2686 DATA
	__fu1016__ZNSs4_Rep20_S_empty_rep_storageE @ 2687 DATA
	__fu1017__ZNSs4_Rep20_S_empty_rep_storageE @ 2688 DATA
	__fu1018__ZNSs4_Rep20_S_empty_rep_storageE @ 2689 DATA
	__fu1019__ZNSs4_Rep20_S_empty_rep_storageE @ 2690 DATA
	__fu101__ZNSs4_Rep20_S_empty_rep_storageE @ 2691 DATA
	__fu1020__ZNSs4_Rep20_S_empty_rep_storageE @ 2692 DATA
	__fu1021__ZNSs4_Rep20_S_empty_rep_storageE @ 2693 DATA
	__fu1022__ZNSs4_Rep20_S_empty_rep_storageE @ 2694 DATA
	__fu1023__ZNSs4_Rep20_S_empty_rep_storageE @ 2695 DATA
	__fu1024__ZNSs4_Rep20_S_empty_rep_storageE @ 2696 DATA
	__fu1025__ZNSs4_Rep20_S_empty_rep_storageE @ 2697 DATA
	__fu1026__ZNSs4_Rep20_S_empty_rep_storageE @ 2698 DATA
	__fu1027__ZNSs4_Rep20_S_empty_rep_storageE @ 2699 DATA
	__fu1028__ZNSs4_Rep20_S_empty_rep_storageE @ 2700 DATA
	__fu1029__ZNSs4_Rep20_S_empty_rep_storageE @ 2701 DATA
	__fu102__ZNSs4_Rep20_S_empty_rep_storageE @ 2702 DATA
	__fu1030__ZNSs4_Rep20_S_empty_rep_storageE @ 2703 DATA
	__fu1031__ZNSs4_Rep20_S_empty_rep_storageE @ 2704 DATA
	__fu1032__ZNSs4_Rep20_S_empty_rep_storageE @ 2705 DATA
	__fu1033__ZNSs4_Rep20_S_empty_rep_storageE @ 2706 DATA
	__fu1034__ZNSs4_Rep20_S_empty_rep_storageE @ 2707 DATA
	__fu1035__ZNSs4_Rep20_S_empty_rep_storageE @ 2708 DATA
	__fu1036__ZNSs4_Rep20_S_empty_rep_storageE @ 2709 DATA
	__fu1037__ZNSs4_Rep20_S_empty_rep_storageE @ 2710 DATA
	__fu1038__ZNSs4_Rep20_S_empty_rep_storageE @ 2711 DATA
	__fu1039__ZNSs4_Rep20_S_empty_rep_storageE @ 2712 DATA
	__fu103__ZNSs4_Rep20_S_empty_rep_storageE @ 2713 DATA
	__fu1040__ZNSs4_Rep20_S_empty_rep_storageE @ 2714 DATA
	__fu1041__ZNSs4_Rep20_S_empty_rep_storageE @ 2715 DATA
	__fu1042__ZNSs4_Rep20_S_empty_rep_storageE @ 2716 DATA
	__fu1043__ZNSs4_Rep20_S_empty_rep_storageE @ 2717 DATA
	__fu1044__ZNSs4_Rep20_S_empty_rep_storageE @ 2718 DATA
	__fu1045__ZNSs4_Rep20_S_empty_rep_storageE @ 2719 DATA
	__fu1046__ZNSs4_Rep20_S_empty_rep_storageE @ 2720 DATA
	__fu1047__ZNSs4_Rep20_S_empty_rep_storageE @ 2721 DATA
	__fu1048__ZNSs4_Rep20_S_empty_rep_storageE @ 2722 DATA
	__fu1049__ZNSs4_Rep20_S_empty_rep_storageE @ 2723 DATA
	__fu104__ZNSs4_Rep20_S_empty_rep_storageE @ 2724 DATA
	__fu1050__ZNSs4_Rep20_S_empty_rep_storageE @ 2725 DATA
	__fu1051__ZNSs4_Rep20_S_empty_rep_storageE @ 2726 DATA
	__fu1052__ZNSs4_Rep20_S_empty_rep_storageE @ 2727 DATA
	__fu1053__ZNSs4_Rep20_S_empty_rep_storageE @ 2728 DATA
	__fu1054__ZNSs4_Rep20_S_empty_rep_storageE @ 2729 DATA
	__fu1055__ZNSs4_Rep20_S_empty_rep_storageE @ 2730 DATA
	__fu1056__ZNSs4_Rep20_S_empty_rep_storageE @ 2731 DATA
	__fu1057__ZNSs4_Rep20_S_empty_rep_storageE @ 2732 DATA
	__fu1058__ZNSs4_Rep20_S_empty_rep_storageE @ 2733 DATA
	__fu1059__ZNSs4_Rep20_S_empty_rep_storageE @ 2734 DATA
	__fu105__ZNSs4_Rep20_S_empty_rep_storageE @ 2735 DATA
	__fu1060__ZNSs4_Rep20_S_empty_rep_storageE @ 2736 DATA
	__fu1061__ZNSs4_Rep20_S_empty_rep_storageE @ 2737 DATA
	__fu1062__ZNSs4_Rep20_S_empty_rep_storageE @ 2738 DATA
	__fu1063__ZNSs4_Rep20_S_empty_rep_storageE @ 2739 DATA
	__fu1064__ZNSs4_Rep20_S_empty_rep_storageE @ 2740 DATA
	__fu1065__ZNSs4_Rep20_S_empty_rep_storageE @ 2741 DATA
	__fu1066__ZNSs4_Rep20_S_empty_rep_storageE @ 2742 DATA
	__fu1067__ZNSs4_Rep20_S_empty_rep_storageE @ 2743 DATA
	__fu1068__ZNSs4_Rep20_S_empty_rep_storageE @ 2744 DATA
	__fu1069__ZNSs4_Rep20_S_empty_rep_storageE @ 2745 DATA
	__fu106__ZNSs4_Rep20_S_empty_rep_storageE @ 2746 DATA
	__fu1070__ZNSs4_Rep20_S_empty_rep_storageE @ 2747 DATA
	__fu1071__ZNSs4_Rep20_S_empty_rep_storageE @ 2748 DATA
	__fu1072__ZNSs4_Rep20_S_empty_rep_storageE @ 2749 DATA
	__fu1073__ZNSs4_Rep20_S_empty_rep_storageE @ 2750 DATA
	__fu1074__ZNSs4_Rep20_S_empty_rep_storageE @ 2751 DATA
	__fu1075__ZNSs4_Rep20_S_empty_rep_storageE @ 2752 DATA
	__fu1076__ZNSs4_Rep20_S_empty_rep_storageE @ 2753 DATA
	__fu1077__ZNSs4_Rep20_S_empty_rep_storageE @ 2754 DATA
	__fu1078__ZNSs4_Rep20_S_empty_rep_storageE @ 2755 DATA
	__fu1079__ZNSs4_Rep20_S_empty_rep_storageE @ 2756 DATA
	__fu107__ZNSs4_Rep20_S_empty_rep_storageE @ 2757 DATA
	__fu1080__ZNSs4_Rep20_S_empty_rep_storageE @ 2758 DATA
	__fu1081__ZNSs4_Rep20_S_empty_rep_storageE @ 2759 DATA
	__fu1082__ZNSs4_Rep20_S_empty_rep_storageE @ 2760 DATA
	__fu1083__ZNSs4_Rep20_S_empty_rep_storageE @ 2761 DATA
	__fu1084__ZNSs4_Rep20_S_empty_rep_storageE @ 2762 DATA
	__fu1085__ZNSs4_Rep20_S_empty_rep_storageE @ 2763 DATA
	__fu1086__ZNSs4_Rep20_S_empty_rep_storageE @ 2764 DATA
	__fu1087__ZNSs4_Rep20_S_empty_rep_storageE @ 2765 DATA
	__fu1088__ZNSs4_Rep20_S_empty_rep_storageE @ 2766 DATA
	__fu1089__ZNSs4_Rep20_S_empty_rep_storageE @ 2767 DATA
	__fu108__ZNSs4_Rep20_S_empty_rep_storageE @ 2768 DATA
	__fu1090__ZNSs4_Rep20_S_empty_rep_storageE @ 2769 DATA
	__fu1091__ZNSs4_Rep20_S_empty_rep_storageE @ 2770 DATA
	__fu1092__ZNSs4_Rep20_S_empty_rep_storageE @ 2771 DATA
	__fu1093__ZNSs4_Rep20_S_empty_rep_storageE @ 2772 DATA
	__fu1094__ZNSs4_Rep20_S_empty_rep_storageE @ 2773 DATA
	__fu1095__ZNSs4_Rep20_S_empty_rep_storageE @ 2774 DATA
	__fu1096__ZNSs4_Rep20_S_empty_rep_storageE @ 2775 DATA
	__fu1097__ZNSs4_Rep20_S_empty_rep_storageE @ 2776 DATA
	__fu1098__ZNSs4_Rep20_S_empty_rep_storageE @ 2777 DATA
	__fu1099__ZNSs4_Rep20_S_empty_rep_storageE @ 2778 DATA
	__fu109__ZNSs4_Rep20_S_empty_rep_storageE @ 2779 DATA
	__fu10__ZNSs4_Rep20_S_empty_rep_storageE @ 2780 DATA
	__fu1100__ZNSs4_Rep20_S_empty_rep_storageE @ 2781 DATA
	__fu1101__ZNSs4_Rep20_S_empty_rep_storageE @ 2782 DATA
	__fu1102__ZNSs4_Rep20_S_empty_rep_storageE @ 2783 DATA
	__fu1103__ZNSs4_Rep20_S_empty_rep_storageE @ 2784 DATA
	__fu1104__ZNSs4_Rep20_S_empty_rep_storageE @ 2785 DATA
	__fu1105__ZNSs4_Rep20_S_empty_rep_storageE @ 2786 DATA
	__fu1106__ZNSs4_Rep20_S_empty_rep_storageE @ 2787 DATA
	__fu1107__ZNSs4_Rep20_S_empty_rep_storageE @ 2788 DATA
	__fu1108__ZNSs4_Rep20_S_empty_rep_storageE @ 2789 DATA
	__fu1109__ZNSs4_Rep20_S_empty_rep_storageE @ 2790 DATA
	__fu110__ZNSs4_Rep20_S_empty_rep_storageE @ 2791 DATA
	__fu1110__ZNSs4_Rep20_S_empty_rep_storageE @ 2792 DATA
	__fu1111__ZNSs4_Rep20_S_empty_rep_storageE @ 2793 DATA
	__fu1112__ZNSs4_Rep20_S_empty_rep_storageE @ 2794 DATA
	__fu1113__ZNSs4_Rep20_S_empty_rep_storageE @ 2795 DATA
	__fu1114__ZNSs4_Rep20_S_empty_rep_storageE @ 2796 DATA
	__fu1115__ZNSs4_Rep20_S_empty_rep_storageE @ 2797 DATA
	__fu1116__ZNSs4_Rep20_S_empty_rep_storageE @ 2798 DATA
	__fu1117__ZNSs4_Rep20_S_empty_rep_storageE @ 2799 DATA
	__fu1118__ZNSs4_Rep20_S_empty_rep_storageE @ 2800 DATA
	__fu1119__ZNSs4_Rep20_S_empty_rep_storageE @ 2801 DATA
	__fu111__ZNSs4_Rep20_S_empty_rep_storageE @ 2802 DATA
	__fu1120__ZNSs4_Rep20_S_empty_rep_storageE @ 2803 DATA
	__fu1121__ZNSs4_Rep20_S_empty_rep_storageE @ 2804 DATA
	__fu1122__ZNSs4_Rep20_S_empty_rep_storageE @ 2805 DATA
	__fu1123__ZNSs4_Rep20_S_empty_rep_storageE @ 2806 DATA
	__fu1124__ZNSs4_Rep20_S_empty_rep_storageE @ 2807 DATA
	__fu1125__ZNSs4_Rep20_S_empty_rep_storageE @ 2808 DATA
	__fu1126__ZNSs4_Rep20_S_empty_rep_storageE @ 2809 DATA
	__fu1127__ZNSs4_Rep20_S_empty_rep_storageE @ 2810 DATA
	__fu1128__ZNSs4_Rep20_S_empty_rep_storageE @ 2811 DATA
	__fu1129__ZNSs4_Rep20_S_empty_rep_storageE @ 2812 DATA
	__fu112__ZNSs4_Rep20_S_empty_rep_storageE @ 2813 DATA
	__fu1130__ZNSs4_Rep20_S_empty_rep_storageE @ 2814 DATA
	__fu1131__ZNSs4_Rep20_S_empty_rep_storageE @ 2815 DATA
	__fu1132__ZNSs4_Rep20_S_empty_rep_storageE @ 2816 DATA
	__fu1133__ZNSs4_Rep20_S_empty_rep_storageE @ 2817 DATA
	__fu1134__ZNSs4_Rep20_S_empty_rep_storageE @ 2818 DATA
	__fu1135__ZNSs4_Rep20_S_empty_rep_storageE @ 2819 DATA
	__fu1136__ZNSs4_Rep20_S_empty_rep_storageE @ 2820 DATA
	__fu1137__ZNSs4_Rep20_S_empty_rep_storageE @ 2821 DATA
	__fu1138__ZNSs4_Rep20_S_empty_rep_storageE @ 2822 DATA
	__fu1139__ZNSs4_Rep20_S_empty_rep_storageE @ 2823 DATA
	__fu113__ZNSs4_Rep20_S_empty_rep_storageE @ 2824 DATA
	__fu1140__ZNSs4_Rep20_S_empty_rep_storageE @ 2825 DATA
	__fu1141__ZNSs4_Rep20_S_empty_rep_storageE @ 2826 DATA
	__fu1142__ZNSs4_Rep20_S_empty_rep_storageE @ 2827 DATA
	__fu1143__ZNSs4_Rep20_S_empty_rep_storageE @ 2828 DATA
	__fu1144__ZNSs4_Rep20_S_empty_rep_storageE @ 2829 DATA
	__fu1145__ZNSs4_Rep20_S_empty_rep_storageE @ 2830 DATA
	__fu1146__ZNSs4_Rep20_S_empty_rep_storageE @ 2831 DATA
	__fu1147__ZNSs4_Rep20_S_empty_rep_storageE @ 2832 DATA
	__fu1148__ZNSs4_Rep20_S_empty_rep_storageE @ 2833 DATA
	__fu1149__ZNSs4_Rep20_S_empty_rep_storageE @ 2834 DATA
	__fu114__ZNSs4_Rep20_S_empty_rep_storageE @ 2835 DATA
	__fu1150__ZNSs4_Rep20_S_empty_rep_storageE @ 2836 DATA
	__fu1151__ZNSs4_Rep20_S_empty_rep_storageE @ 2837 DATA
	__fu1152__ZNSs4_Rep20_S_empty_rep_storageE @ 2838 DATA
	__fu1153__ZNSs4_Rep20_S_empty_rep_storageE @ 2839 DATA
	__fu1154__ZNSs4_Rep20_S_empty_rep_storageE @ 2840 DATA
	__fu1155__ZNSs4_Rep20_S_empty_rep_storageE @ 2841 DATA
	__fu1156__ZNSs4_Rep20_S_empty_rep_storageE @ 2842 DATA
	__fu1157__ZNSs4_Rep20_S_empty_rep_storageE @ 2843 DATA
	__fu1158__ZNSs4_Rep20_S_empty_rep_storageE @ 2844 DATA
	__fu1159__ZNSs4_Rep20_S_empty_rep_storageE @ 2845 DATA
	__fu115__ZNSs4_Rep20_S_empty_rep_storageE @ 2846 DATA
	__fu1160__ZNSs4_Rep20_S_empty_rep_storageE @ 2847 DATA
	__fu1161__ZNSs4_Rep20_S_empty_rep_storageE @ 2848 DATA
	__fu1162__ZNSs4_Rep20_S_empty_rep_storageE @ 2849 DATA
	__fu1163__ZNSs4_Rep20_S_empty_rep_storageE @ 2850 DATA
	__fu1164__ZNSs4_Rep20_S_empty_rep_storageE @ 2851 DATA
	__fu1165__ZNSs4_Rep20_S_empty_rep_storageE @ 2852 DATA
	__fu1166__ZNSs4_Rep20_S_empty_rep_storageE @ 2853 DATA
	__fu1167__ZNSs4_Rep20_S_empty_rep_storageE @ 2854 DATA
	__fu1168__ZNSs4_Rep20_S_empty_rep_storageE @ 2855 DATA
	__fu1169__ZNSs4_Rep20_S_empty_rep_storageE @ 2856 DATA
	__fu116__ZNSs4_Rep20_S_empty_rep_storageE @ 2857 DATA
	__fu1170__ZNSs4_Rep20_S_empty_rep_storageE @ 2858 DATA
	__fu1171__ZNSs4_Rep20_S_empty_rep_storageE @ 2859 DATA
	__fu1172__ZNSs4_Rep20_S_empty_rep_storageE @ 2860 DATA
	__fu1173__ZNSs4_Rep20_S_empty_rep_storageE @ 2861 DATA
	__fu1174__ZNSs4_Rep20_S_empty_rep_storageE @ 2862 DATA
	__fu1175__ZNSs4_Rep20_S_empty_rep_storageE @ 2863 DATA
	__fu1176__ZNSs4_Rep20_S_empty_rep_storageE @ 2864 DATA
	__fu1177__ZNSs4_Rep20_S_empty_rep_storageE @ 2865 DATA
	__fu1178__ZNSs4_Rep20_S_empty_rep_storageE @ 2866 DATA
	__fu1179__ZNSs4_Rep20_S_empty_rep_storageE @ 2867 DATA
	__fu117__ZNSs4_Rep20_S_empty_rep_storageE @ 2868 DATA
	__fu1180__ZNSs4_Rep20_S_empty_rep_storageE @ 2869 DATA
	__fu1181__ZNSs4_Rep20_S_empty_rep_storageE @ 2870 DATA
	__fu1182__ZNSs4_Rep20_S_empty_rep_storageE @ 2871 DATA
	__fu1183__ZNSs4_Rep20_S_empty_rep_storageE @ 2872 DATA
	__fu1184__ZNSs4_Rep20_S_empty_rep_storageE @ 2873 DATA
	__fu1185__ZNSs4_Rep20_S_empty_rep_storageE @ 2874 DATA
	__fu1186__ZNSs4_Rep20_S_empty_rep_storageE @ 2875 DATA
	__fu1187__ZNSs4_Rep20_S_empty_rep_storageE @ 2876 DATA
	__fu1188__ZNSs4_Rep20_S_empty_rep_storageE @ 2877 DATA
	__fu1189__ZNSs4_Rep20_S_empty_rep_storageE @ 2878 DATA
	__fu118__ZNSs4_Rep20_S_empty_rep_storageE @ 2879 DATA
	__fu1190__ZNSs4_Rep20_S_empty_rep_storageE @ 2880 DATA
	__fu1191__ZNSs4_Rep20_S_empty_rep_storageE @ 2881 DATA
	__fu1192__ZNSs4_Rep20_S_empty_rep_storageE @ 2882 DATA
	__fu1193__ZNSs4_Rep20_S_empty_rep_storageE @ 2883 DATA
	__fu1194__ZNSs4_Rep20_S_empty_rep_storageE @ 2884 DATA
	__fu1195__ZNSs4_Rep20_S_empty_rep_storageE @ 2885 DATA
	__fu1196__ZNSs4_Rep20_S_empty_rep_storageE @ 2886 DATA
	__fu1197__ZNSs4_Rep20_S_empty_rep_storageE @ 2887 DATA
	__fu1198__ZNSs4_Rep20_S_empty_rep_storageE @ 2888 DATA
	__fu1199__ZNSs4_Rep20_S_empty_rep_storageE @ 2889 DATA
	__fu119__ZNSs4_Rep20_S_empty_rep_storageE @ 2890 DATA
	__fu11__ZNSs4_Rep20_S_empty_rep_storageE @ 2891 DATA
	__fu1200__ZNSs4_Rep20_S_empty_rep_storageE @ 2892 DATA
	__fu1201__ZNSs4_Rep20_S_empty_rep_storageE @ 2893 DATA
	__fu1202__ZNSs4_Rep20_S_empty_rep_storageE @ 2894 DATA
	__fu1203__ZNSs4_Rep20_S_empty_rep_storageE @ 2895 DATA
	__fu1204__ZNSs4_Rep20_S_empty_rep_storageE @ 2896 DATA
	__fu1205__ZNSs4_Rep20_S_empty_rep_storageE @ 2897 DATA
	__fu1206__ZNSs4_Rep20_S_empty_rep_storageE @ 2898 DATA
	__fu1207__ZNSs4_Rep20_S_empty_rep_storageE @ 2899 DATA
	__fu1208__ZNSs4_Rep20_S_empty_rep_storageE @ 2900 DATA
	__fu1209__ZNSs4_Rep20_S_empty_rep_storageE @ 2901 DATA
	__fu120__ZNSs4_Rep20_S_empty_rep_storageE @ 2902 DATA
	__fu1210__ZNSs4_Rep20_S_empty_rep_storageE @ 2903 DATA
	__fu1211__ZNSs4_Rep20_S_empty_rep_storageE @ 2904 DATA
	__fu1212__ZNSs4_Rep20_S_empty_rep_storageE @ 2905 DATA
	__fu1213__ZNSs4_Rep20_S_empty_rep_storageE @ 2906 DATA
	__fu1214__ZNSs4_Rep20_S_empty_rep_storageE @ 2907 DATA
	__fu1215__ZNSs4_Rep20_S_empty_rep_storageE @ 2908 DATA
	__fu1216__ZNSs4_Rep20_S_empty_rep_storageE @ 2909 DATA
	__fu1217__ZNSs4_Rep20_S_empty_rep_storageE @ 2910 DATA
	__fu1218__ZNSs4_Rep20_S_empty_rep_storageE @ 2911 DATA
	__fu1219__ZNSs4_Rep20_S_empty_rep_storageE @ 2912 DATA
	__fu121__ZNSs4_Rep20_S_empty_rep_storageE @ 2913 DATA
	__fu1220__ZNSs4_Rep20_S_empty_rep_storageE @ 2914 DATA
	__fu1221__ZNSs4_Rep20_S_empty_rep_storageE @ 2915 DATA
	__fu1222__ZNSs4_Rep20_S_empty_rep_storageE @ 2916 DATA
	__fu1223__ZNSs4_Rep20_S_empty_rep_storageE @ 2917 DATA
	__fu1224__ZNSs4_Rep20_S_empty_rep_storageE @ 2918 DATA
	__fu1225__ZNSs4_Rep20_S_empty_rep_storageE @ 2919 DATA
	__fu1226__ZNSs4_Rep20_S_empty_rep_storageE @ 2920 DATA
	__fu1227__ZNSs4_Rep20_S_empty_rep_storageE @ 2921 DATA
	__fu1228__ZNSs4_Rep20_S_empty_rep_storageE @ 2922 DATA
	__fu1229__ZNSs4_Rep20_S_empty_rep_storageE @ 2923 DATA
	__fu122__ZNSs4_Rep20_S_empty_rep_storageE @ 2924 DATA
	__fu1230__ZNSs4_Rep20_S_empty_rep_storageE @ 2925 DATA
	__fu1231__ZNSs4_Rep20_S_empty_rep_storageE @ 2926 DATA
	__fu1232__ZNSs4_Rep20_S_empty_rep_storageE @ 2927 DATA
	__fu1233__ZNSs4_Rep20_S_empty_rep_storageE @ 2928 DATA
	__fu1234__ZNSs4_Rep20_S_empty_rep_storageE @ 2929 DATA
	__fu1235__ZNSs4_Rep20_S_empty_rep_storageE @ 2930 DATA
	__fu1236__ZNSs4_Rep20_S_empty_rep_storageE @ 2931 DATA
	__fu1237__ZNSs4_Rep20_S_empty_rep_storageE @ 2932 DATA
	__fu1238__ZNSs4_Rep20_S_empty_rep_storageE @ 2933 DATA
	__fu1239__ZNSs4_Rep20_S_empty_rep_storageE @ 2934 DATA
	__fu123__ZNSs4_Rep20_S_empty_rep_storageE @ 2935 DATA
	__fu1240__ZNSs4_Rep20_S_empty_rep_storageE @ 2936 DATA
	__fu1241__ZNSs4_Rep20_S_empty_rep_storageE @ 2937 DATA
	__fu1242__ZNSs4_Rep20_S_empty_rep_storageE @ 2938 DATA
	__fu1243__ZNSs4_Rep20_S_empty_rep_storageE @ 2939 DATA
	__fu1244__ZNSs4_Rep20_S_empty_rep_storageE @ 2940 DATA
	__fu1245__ZNSs4_Rep20_S_empty_rep_storageE @ 2941 DATA
	__fu1246__ZNSs4_Rep20_S_empty_rep_storageE @ 2942 DATA
	__fu1247__ZNSs4_Rep20_S_empty_rep_storageE @ 2943 DATA
	__fu1248__ZNSs4_Rep20_S_empty_rep_storageE @ 2944 DATA
	__fu1249__ZNSs4_Rep20_S_empty_rep_storageE @ 2945 DATA
	__fu124__ZNSs4_Rep20_S_empty_rep_storageE @ 2946 DATA
	__fu1250__ZNSs4_Rep20_S_empty_rep_storageE @ 2947 DATA
	__fu1251__ZNSs4_Rep20_S_empty_rep_storageE @ 2948 DATA
	__fu1252__ZNSs4_Rep20_S_empty_rep_storageE @ 2949 DATA
	__fu1253__ZNSs4_Rep20_S_empty_rep_storageE @ 2950 DATA
	__fu1254__ZNSs4_Rep20_S_empty_rep_storageE @ 2951 DATA
	__fu1255__ZNSs4_Rep20_S_empty_rep_storageE @ 2952 DATA
	__fu1256__ZNSs4_Rep20_S_empty_rep_storageE @ 2953 DATA
	__fu1257__ZNSs4_Rep20_S_empty_rep_storageE @ 2954 DATA
	__fu1258__ZNSs4_Rep20_S_empty_rep_storageE @ 2955 DATA
	__fu1259__ZNSs4_Rep20_S_empty_rep_storageE @ 2956 DATA
	__fu125__ZNSs4_Rep20_S_empty_rep_storageE @ 2957 DATA
	__fu1260__ZNSs4_Rep20_S_empty_rep_storageE @ 2958 DATA
	__fu1261__ZNSs4_Rep20_S_empty_rep_storageE @ 2959 DATA
	__fu1262__ZNSs4_Rep20_S_empty_rep_storageE @ 2960 DATA
	__fu1263__ZNSs4_Rep20_S_empty_rep_storageE @ 2961 DATA
	__fu1264__ZNSs4_Rep20_S_empty_rep_storageE @ 2962 DATA
	__fu1265__ZNSs4_Rep20_S_empty_rep_storageE @ 2963 DATA
	__fu1266__ZNSs4_Rep20_S_empty_rep_storageE @ 2964 DATA
	__fu1267__ZNSs4_Rep20_S_empty_rep_storageE @ 2965 DATA
	__fu1268__ZNSs4_Rep20_S_empty_rep_storageE @ 2966 DATA
	__fu1269__ZNSs4_Rep20_S_empty_rep_storageE @ 2967 DATA
	__fu126__ZNSs4_Rep20_S_empty_rep_storageE @ 2968 DATA
	__fu1270__ZNSs4_Rep20_S_empty_rep_storageE @ 2969 DATA
	__fu1271__ZNSs4_Rep20_S_empty_rep_storageE @ 2970 DATA
	__fu1272__ZNSs4_Rep20_S_empty_rep_storageE @ 2971 DATA
	__fu1273__ZNSs4_Rep20_S_empty_rep_storageE @ 2972 DATA
	__fu1274__ZNSs4_Rep20_S_empty_rep_storageE @ 2973 DATA
	__fu1275__ZNSs4_Rep20_S_empty_rep_storageE @ 2974 DATA
	__fu1276__ZNSs4_Rep20_S_empty_rep_storageE @ 2975 DATA
	__fu1277__ZNSs4_Rep20_S_empty_rep_storageE @ 2976 DATA
	__fu1278__ZNSs4_Rep20_S_empty_rep_storageE @ 2977 DATA
	__fu1279__ZNSs4_Rep20_S_empty_rep_storageE @ 2978 DATA
	__fu127__ZNSs4_Rep20_S_empty_rep_storageE @ 2979 DATA
	__fu1280__ZNSs4_Rep20_S_empty_rep_storageE @ 2980 DATA
	__fu1281__ZNSs4_Rep20_S_empty_rep_storageE @ 2981 DATA
	__fu1282__ZNSs4_Rep20_S_empty_rep_storageE @ 2982 DATA
	__fu1283__ZNSs4_Rep20_S_empty_rep_storageE @ 2983 DATA
	__fu1284__ZNSs4_Rep20_S_empty_rep_storageE @ 2984 DATA
	__fu1285__ZNSs4_Rep20_S_empty_rep_storageE @ 2985 DATA
	__fu1286__ZNSs4_Rep20_S_empty_rep_storageE @ 2986 DATA
	__fu1287__ZNSs4_Rep20_S_empty_rep_storageE @ 2987 DATA
	__fu1288__ZNSs4_Rep20_S_empty_rep_storageE @ 2988 DATA
	__fu1289__ZNSs4_Rep20_S_empty_rep_storageE @ 2989 DATA
	__fu128__ZNSs4_Rep20_S_empty_rep_storageE @ 2990 DATA
	__fu1290__ZNSs4_Rep20_S_empty_rep_storageE @ 2991 DATA
	__fu1291__ZNSs4_Rep20_S_empty_rep_storageE @ 2992 DATA
	__fu1292__ZNSs4_Rep20_S_empty_rep_storageE @ 2993 DATA
	__fu1293__ZNSs4_Rep20_S_empty_rep_storageE @ 2994 DATA
	__fu1294__ZNSs4_Rep20_S_empty_rep_storageE @ 2995 DATA
	__fu1295__ZNSs4_Rep20_S_empty_rep_storageE @ 2996 DATA
	__fu1296__ZNSs4_Rep20_S_empty_rep_storageE @ 2997 DATA
	__fu1297__ZNSs4_Rep20_S_empty_rep_storageE @ 2998 DATA
	__fu1298__ZNSs4_Rep20_S_empty_rep_storageE @ 2999 DATA
	__fu1299__ZNSs4_Rep20_S_empty_rep_storageE @ 3000 DATA
	__fu129__ZNSs4_Rep20_S_empty_rep_storageE @ 3001 DATA
	__fu12__ZNSs4_Rep20_S_empty_rep_storageE @ 3002 DATA
	__fu1300__ZNSs4_Rep20_S_empty_rep_storageE @ 3003 DATA
	__fu1301__ZNSs4_Rep20_S_empty_rep_storageE @ 3004 DATA
	__fu1302__ZNSs4_Rep20_S_empty_rep_storageE @ 3005 DATA
	__fu1303__ZNSs4_Rep20_S_empty_rep_storageE @ 3006 DATA
	__fu1304__ZNSs4_Rep20_S_empty_rep_storageE @ 3007 DATA
	__fu1305__ZNSs4_Rep20_S_empty_rep_storageE @ 3008 DATA
	__fu1306__ZNSs4_Rep20_S_empty_rep_storageE @ 3009 DATA
	__fu1307__ZNSs4_Rep20_S_empty_rep_storageE @ 3010 DATA
	__fu1308__ZNSs4_Rep20_S_empty_rep_storageE @ 3011 DATA
	__fu1309__ZNSs4_Rep20_S_empty_rep_storageE @ 3012 DATA
	__fu130__ZNSs4_Rep20_S_empty_rep_storageE @ 3013 DATA
	__fu1310__ZNSs4_Rep20_S_empty_rep_storageE @ 3014 DATA
	__fu1311__ZNSs4_Rep20_S_empty_rep_storageE @ 3015 DATA
	__fu1312__ZNSs4_Rep20_S_empty_rep_storageE @ 3016 DATA
	__fu1313__ZNSs4_Rep20_S_empty_rep_storageE @ 3017 DATA
	__fu1314__ZNSs4_Rep20_S_empty_rep_storageE @ 3018 DATA
	__fu1315__ZNSs4_Rep20_S_empty_rep_storageE @ 3019 DATA
	__fu1316__ZNSs4_Rep20_S_empty_rep_storageE @ 3020 DATA
	__fu1317__ZNSs4_Rep20_S_empty_rep_storageE @ 3021 DATA
	__fu1318__ZNSs4_Rep20_S_empty_rep_storageE @ 3022 DATA
	__fu1319__ZNSs4_Rep20_S_empty_rep_storageE @ 3023 DATA
	__fu131__ZNSs4_Rep20_S_empty_rep_storageE @ 3024 DATA
	__fu1320__ZNSs4_Rep20_S_empty_rep_storageE @ 3025 DATA
	__fu1321__ZNSs4_Rep20_S_empty_rep_storageE @ 3026 DATA
	__fu1322__ZNSs4_Rep20_S_empty_rep_storageE @ 3027 DATA
	__fu1323__ZNSs4_Rep20_S_empty_rep_storageE @ 3028 DATA
	__fu1324__ZNSs4_Rep20_S_empty_rep_storageE @ 3029 DATA
	__fu1325__ZNSs4_Rep20_S_empty_rep_storageE @ 3030 DATA
	__fu1326__ZNSs4_Rep20_S_empty_rep_storageE @ 3031 DATA
	__fu1327__ZNSs4_Rep20_S_empty_rep_storageE @ 3032 DATA
	__fu1328__ZNSs4_Rep20_S_empty_rep_storageE @ 3033 DATA
	__fu1329__ZNSs4_Rep20_S_empty_rep_storageE @ 3034 DATA
	__fu132__ZNSs4_Rep20_S_empty_rep_storageE @ 3035 DATA
	__fu1330__ZNSs4_Rep20_S_empty_rep_storageE @ 3036 DATA
	__fu1331__ZNSs4_Rep20_S_empty_rep_storageE @ 3037 DATA
	__fu1332__ZNSs4_Rep20_S_empty_rep_storageE @ 3038 DATA
	__fu1333__ZNSs4_Rep20_S_empty_rep_storageE @ 3039 DATA
	__fu1334__ZNSs4_Rep20_S_empty_rep_storageE @ 3040 DATA
	__fu1335__ZNSs4_Rep20_S_empty_rep_storageE @ 3041 DATA
	__fu1336__ZNSs4_Rep20_S_empty_rep_storageE @ 3042 DATA
	__fu1337__ZNSs4_Rep20_S_empty_rep_storageE @ 3043 DATA
	__fu1338__ZNSs4_Rep20_S_empty_rep_storageE @ 3044 DATA
	__fu1339__ZNSs4_Rep20_S_empty_rep_storageE @ 3045 DATA
	__fu133__ZNSs4_Rep20_S_empty_rep_storageE @ 3046 DATA
	__fu1340__ZNSs4_Rep20_S_empty_rep_storageE @ 3047 DATA
	__fu1341__ZNSs4_Rep20_S_empty_rep_storageE @ 3048 DATA
	__fu1342__ZNSs4_Rep20_S_empty_rep_storageE @ 3049 DATA
	__fu1343__ZNSs4_Rep20_S_empty_rep_storageE @ 3050 DATA
	__fu1344__ZNSs4_Rep20_S_empty_rep_storageE @ 3051 DATA
	__fu1345__ZNSs4_Rep20_S_empty_rep_storageE @ 3052 DATA
	__fu1346__ZNSs4_Rep20_S_empty_rep_storageE @ 3053 DATA
	__fu1347__ZNSs4_Rep20_S_empty_rep_storageE @ 3054 DATA
	__fu1348__ZNSs4_Rep20_S_empty_rep_storageE @ 3055 DATA
	__fu1349__ZNSs4_Rep20_S_empty_rep_storageE @ 3056 DATA
	__fu134__ZNSs4_Rep20_S_empty_rep_storageE @ 3057 DATA
	__fu1350__ZNSs4_Rep20_S_empty_rep_storageE @ 3058 DATA
	__fu1351__ZNSs4_Rep20_S_empty_rep_storageE @ 3059 DATA
	__fu1352__ZNSs4_Rep20_S_empty_rep_storageE @ 3060 DATA
	__fu1353__ZNSs4_Rep20_S_empty_rep_storageE @ 3061 DATA
	__fu1354__ZNSs4_Rep20_S_empty_rep_storageE @ 3062 DATA
	__fu1355__ZNSs4_Rep20_S_empty_rep_storageE @ 3063 DATA
	__fu1356__ZNSs4_Rep20_S_empty_rep_storageE @ 3064 DATA
	__fu1357__ZNSs4_Rep20_S_empty_rep_storageE @ 3065 DATA
	__fu1358__ZNSs4_Rep20_S_empty_rep_storageE @ 3066 DATA
	__fu1359__ZNSs4_Rep20_S_empty_rep_storageE @ 3067 DATA
	__fu135__ZNSs4_Rep20_S_empty_rep_storageE @ 3068 DATA
	__fu1360__ZNSs4_Rep20_S_empty_rep_storageE @ 3069 DATA
	__fu1361__ZNSs4_Rep20_S_empty_rep_storageE @ 3070 DATA
	__fu1362__ZNSs4_Rep20_S_empty_rep_storageE @ 3071 DATA
	__fu1363__ZNSs4_Rep20_S_empty_rep_storageE @ 3072 DATA
	__fu1364__ZNSs4_Rep20_S_empty_rep_storageE @ 3073 DATA
	__fu1365__ZNSs4_Rep20_S_empty_rep_storageE @ 3074 DATA
	__fu1366__ZNSs4_Rep20_S_empty_rep_storageE @ 3075 DATA
	__fu1367__ZNSs4_Rep20_S_empty_rep_storageE @ 3076 DATA
	__fu1368__ZNSs4_Rep20_S_empty_rep_storageE @ 3077 DATA
	__fu1369__ZNSs4_Rep20_S_empty_rep_storageE @ 3078 DATA
	__fu136__ZNSs4_Rep20_S_empty_rep_storageE @ 3079 DATA
	__fu1370__ZNSs4_Rep20_S_empty_rep_storageE @ 3080 DATA
	__fu1371__ZNSs4_Rep20_S_empty_rep_storageE @ 3081 DATA
	__fu1372__ZNSs4_Rep20_S_empty_rep_storageE @ 3082 DATA
	__fu1373__ZNSs4_Rep20_S_empty_rep_storageE @ 3083 DATA
	__fu1374__ZNSs4_Rep20_S_empty_rep_storageE @ 3084 DATA
	__fu1375__ZNSs4_Rep20_S_empty_rep_storageE @ 3085 DATA
	__fu1376__ZNSs4_Rep20_S_empty_rep_storageE @ 3086 DATA
	__fu1377__ZNSs4_Rep20_S_empty_rep_storageE @ 3087 DATA
	__fu1378__ZNSs4_Rep20_S_empty_rep_storageE @ 3088 DATA
	__fu1379__ZNSs4_Rep20_S_empty_rep_storageE @ 3089 DATA
	__fu137__ZNSs4_Rep20_S_empty_rep_storageE @ 3090 DATA
	__fu1380__ZNSs4_Rep20_S_empty_rep_storageE @ 3091 DATA
	__fu1381__ZNSs4_Rep20_S_empty_rep_storageE @ 3092 DATA
	__fu1382__ZNSs4_Rep20_S_empty_rep_storageE @ 3093 DATA
	__fu1383__ZNSs4_Rep20_S_empty_rep_storageE @ 3094 DATA
	__fu1384__ZNSs4_Rep20_S_empty_rep_storageE @ 3095 DATA
	__fu1385__ZNSs4_Rep20_S_empty_rep_storageE @ 3096 DATA
	__fu1386__ZNSs4_Rep20_S_empty_rep_storageE @ 3097 DATA
	__fu1387__ZNSs4_Rep20_S_empty_rep_storageE @ 3098 DATA
	__fu1388__ZNSs4_Rep20_S_empty_rep_storageE @ 3099 DATA
	__fu1389__ZNSs4_Rep20_S_empty_rep_storageE @ 3100 DATA
	__fu138__ZNSs4_Rep20_S_empty_rep_storageE @ 3101 DATA
	__fu1390__ZNSs4_Rep20_S_empty_rep_storageE @ 3102 DATA
	__fu1391__ZNSs4_Rep20_S_empty_rep_storageE @ 3103 DATA
	__fu1392__ZNSs4_Rep20_S_empty_rep_storageE @ 3104 DATA
	__fu1393__ZNSs4_Rep20_S_empty_rep_storageE @ 3105 DATA
	__fu1394__ZNSs4_Rep20_S_empty_rep_storageE @ 3106 DATA
	__fu1395__ZNSs4_Rep20_S_empty_rep_storageE @ 3107 DATA
	__fu1396__ZNSs4_Rep20_S_empty_rep_storageE @ 3108 DATA
	__fu1397__ZNSs4_Rep20_S_empty_rep_storageE @ 3109 DATA
	__fu1398__ZNSs4_Rep20_S_empty_rep_storageE @ 3110 DATA
	__fu1399__ZNSs4_Rep20_S_empty_rep_storageE @ 3111 DATA
	__fu139__ZNSs4_Rep20_S_empty_rep_storageE @ 3112 DATA
	__fu13__ZNSs4_Rep20_S_empty_rep_storageE @ 3113 DATA
	__fu1400__ZNSs4_Rep20_S_empty_rep_storageE @ 3114 DATA
	__fu1401__ZNSs4_Rep20_S_empty_rep_storageE @ 3115 DATA
	__fu1402__ZNSs4_Rep20_S_empty_rep_storageE @ 3116 DATA
	__fu1403__ZNSs4_Rep20_S_empty_rep_storageE @ 3117 DATA
	__fu1404__ZNSs4_Rep20_S_empty_rep_storageE @ 3118 DATA
	__fu1405__ZNSs4_Rep20_S_empty_rep_storageE @ 3119 DATA
	__fu1406__ZNSs4_Rep20_S_empty_rep_storageE @ 3120 DATA
	__fu1407__ZNSs4_Rep20_S_empty_rep_storageE @ 3121 DATA
	__fu1408__ZNSs4_Rep20_S_empty_rep_storageE @ 3122 DATA
	__fu1409__ZNSs4_Rep20_S_empty_rep_storageE @ 3123 DATA
	__fu140__ZNSs4_Rep20_S_empty_rep_storageE @ 3124 DATA
	__fu1410__ZNSs4_Rep20_S_empty_rep_storageE @ 3125 DATA
	__fu1411__ZNSs4_Rep20_S_empty_rep_storageE @ 3126 DATA
	__fu1412__ZNSs4_Rep20_S_empty_rep_storageE @ 3127 DATA
	__fu1413__ZNSs4_Rep20_S_empty_rep_storageE @ 3128 DATA
	__fu1414__ZNSs4_Rep20_S_empty_rep_storageE @ 3129 DATA
	__fu1415__ZNSs4_Rep20_S_empty_rep_storageE @ 3130 DATA
	__fu1416__ZNSs4_Rep20_S_empty_rep_storageE @ 3131 DATA
	__fu1417__ZNSs4_Rep20_S_empty_rep_storageE @ 3132 DATA
	__fu1418__ZNSs4_Rep20_S_empty_rep_storageE @ 3133 DATA
	__fu1419__ZNSs4_Rep20_S_empty_rep_storageE @ 3134 DATA
	__fu141__ZNSs4_Rep20_S_empty_rep_storageE @ 3135 DATA
	__fu1420__ZNSs4_Rep20_S_empty_rep_storageE @ 3136 DATA
	__fu1421__ZNSs4_Rep20_S_empty_rep_storageE @ 3137 DATA
	__fu1422__ZNSs4_Rep20_S_empty_rep_storageE @ 3138 DATA
	__fu1423__ZNSs4_Rep20_S_empty_rep_storageE @ 3139 DATA
	__fu1424__ZNSs4_Rep20_S_empty_rep_storageE @ 3140 DATA
	__fu1425__ZNSs4_Rep20_S_empty_rep_storageE @ 3141 DATA
	__fu1426__ZNSs4_Rep20_S_empty_rep_storageE @ 3142 DATA
	__fu1427__ZNSs4_Rep20_S_empty_rep_storageE @ 3143 DATA
	__fu1428__ZNSs4_Rep20_S_empty_rep_storageE @ 3144 DATA
	__fu1429__ZNSs4_Rep20_S_empty_rep_storageE @ 3145 DATA
	__fu142__ZNSs4_Rep20_S_empty_rep_storageE @ 3146 DATA
	__fu1430__ZNSs4_Rep20_S_empty_rep_storageE @ 3147 DATA
	__fu1431__ZNSs4_Rep20_S_empty_rep_storageE @ 3148 DATA
	__fu1432__ZNSs4_Rep20_S_empty_rep_storageE @ 3149 DATA
	__fu1433__ZNSs4_Rep20_S_empty_rep_storageE @ 3150 DATA
	__fu1434__ZNSs4_Rep20_S_empty_rep_storageE @ 3151 DATA
	__fu1435__ZNSs4_Rep20_S_empty_rep_storageE @ 3152 DATA
	__fu1436__ZNSs4_Rep20_S_empty_rep_storageE @ 3153 DATA
	__fu1437__ZNSs4_Rep20_S_empty_rep_storageE @ 3154 DATA
	__fu1438__ZNSs4_Rep20_S_empty_rep_storageE @ 3155 DATA
	__fu1439__ZNSs4_Rep20_S_empty_rep_storageE @ 3156 DATA
	__fu143__ZNSs4_Rep20_S_empty_rep_storageE @ 3157 DATA
	__fu1440__ZNSs4_Rep20_S_empty_rep_storageE @ 3158 DATA
	__fu1441__ZNSs4_Rep20_S_empty_rep_storageE @ 3159 DATA
	__fu1442__ZNSs4_Rep20_S_empty_rep_storageE @ 3160 DATA
	__fu1443__ZNSs4_Rep20_S_empty_rep_storageE @ 3161 DATA
	__fu1444__ZNSs4_Rep20_S_empty_rep_storageE @ 3162 DATA
	__fu1445__ZNSs4_Rep20_S_empty_rep_storageE @ 3163 DATA
	__fu1446__ZNSs4_Rep20_S_empty_rep_storageE @ 3164 DATA
	__fu1447__ZNSs4_Rep20_S_empty_rep_storageE @ 3165 DATA
	__fu1448__ZNSs4_Rep20_S_empty_rep_storageE @ 3166 DATA
	__fu1449__ZNSs4_Rep20_S_empty_rep_storageE @ 3167 DATA
	__fu144__ZNSs4_Rep20_S_empty_rep_storageE @ 3168 DATA
	__fu1450__ZNSs4_Rep20_S_empty_rep_storageE @ 3169 DATA
	__fu1451__ZNSs4_Rep20_S_empty_rep_storageE @ 3170 DATA
	__fu1452__ZNSs4_Rep20_S_empty_rep_storageE @ 3171 DATA
	__fu1453__ZNSs4_Rep20_S_empty_rep_storageE @ 3172 DATA
	__fu1454__ZNSs4_Rep20_S_empty_rep_storageE @ 3173 DATA
	__fu1455__ZNSs4_Rep20_S_empty_rep_storageE @ 3174 DATA
	__fu1456__ZNSs4_Rep20_S_empty_rep_storageE @ 3175 DATA
	__fu1457__ZNSs4_Rep20_S_empty_rep_storageE @ 3176 DATA
	__fu1458__ZNSs4_Rep20_S_empty_rep_storageE @ 3177 DATA
	__fu1459__ZNSs4_Rep20_S_empty_rep_storageE @ 3178 DATA
	__fu145__ZNSs4_Rep20_S_empty_rep_storageE @ 3179 DATA
	__fu1460__ZNSs4_Rep20_S_empty_rep_storageE @ 3180 DATA
	__fu1461__ZNSs4_Rep20_S_empty_rep_storageE @ 3181 DATA
	__fu1462__ZNSs4_Rep20_S_empty_rep_storageE @ 3182 DATA
	__fu1463__ZNSs4_Rep20_S_empty_rep_storageE @ 3183 DATA
	__fu1464__ZNSs4_Rep20_S_empty_rep_storageE @ 3184 DATA
	__fu1465__ZNSs4_Rep20_S_empty_rep_storageE @ 3185 DATA
	__fu1466__ZNSs4_Rep20_S_empty_rep_storageE @ 3186 DATA
	__fu1467__ZNSs4_Rep20_S_empty_rep_storageE @ 3187 DATA
	__fu1468__ZNSs4_Rep20_S_empty_rep_storageE @ 3188 DATA
	__fu1469__ZNSs4_Rep20_S_empty_rep_storageE @ 3189 DATA
	__fu146__ZNSs4_Rep20_S_empty_rep_storageE @ 3190 DATA
	__fu1470__ZNSs4_Rep20_S_empty_rep_storageE @ 3191 DATA
	__fu1471__ZNSs4_Rep20_S_empty_rep_storageE @ 3192 DATA
	__fu1472__ZNSs4_Rep20_S_empty_rep_storageE @ 3193 DATA
	__fu1473__ZNSs4_Rep20_S_empty_rep_storageE @ 3194 DATA
	__fu1474__ZNSs4_Rep20_S_empty_rep_storageE @ 3195 DATA
	__fu1475__ZNSs4_Rep20_S_empty_rep_storageE @ 3196 DATA
	__fu1476__ZNSs4_Rep20_S_empty_rep_storageE @ 3197 DATA
	__fu1477__ZNSs4_Rep20_S_empty_rep_storageE @ 3198 DATA
	__fu1478__ZNSs4_Rep20_S_empty_rep_storageE @ 3199 DATA
	__fu1479__ZNSs4_Rep20_S_empty_rep_storageE @ 3200 DATA
	__fu147__ZNSs4_Rep20_S_empty_rep_storageE @ 3201 DATA
	__fu1480__ZNSs4_Rep20_S_empty_rep_storageE @ 3202 DATA
	__fu1481__ZNSs4_Rep20_S_empty_rep_storageE @ 3203 DATA
	__fu1482__ZNSs4_Rep20_S_empty_rep_storageE @ 3204 DATA
	__fu1483__ZNSs4_Rep20_S_empty_rep_storageE @ 3205 DATA
	__fu1484__ZNSs4_Rep20_S_empty_rep_storageE @ 3206 DATA
	__fu1485__ZNSs4_Rep20_S_empty_rep_storageE @ 3207 DATA
	__fu1486__ZNSs4_Rep20_S_empty_rep_storageE @ 3208 DATA
	__fu1487__ZNSs4_Rep20_S_empty_rep_storageE @ 3209 DATA
	__fu1488__ZNSs4_Rep20_S_empty_rep_storageE @ 3210 DATA
	__fu1489__ZNSs4_Rep20_S_empty_rep_storageE @ 3211 DATA
	__fu148__ZNSs4_Rep20_S_empty_rep_storageE @ 3212 DATA
	__fu1490__ZNSs4_Rep20_S_empty_rep_storageE @ 3213 DATA
	__fu1491__ZNSs4_Rep20_S_empty_rep_storageE @ 3214 DATA
	__fu1492__ZNSs4_Rep20_S_empty_rep_storageE @ 3215 DATA
	__fu1493__ZNSs4_Rep20_S_empty_rep_storageE @ 3216 DATA
	__fu1494__ZNSs4_Rep20_S_empty_rep_storageE @ 3217 DATA
	__fu1495__ZNSs4_Rep20_S_empty_rep_storageE @ 3218 DATA
	__fu1496__ZNSs4_Rep20_S_empty_rep_storageE @ 3219 DATA
	__fu1497__ZNSs4_Rep20_S_empty_rep_storageE @ 3220 DATA
	__fu1498__ZNSs4_Rep20_S_empty_rep_storageE @ 3221 DATA
	__fu1499__ZNSs4_Rep20_S_empty_rep_storageE @ 3222 DATA
	__fu149__ZNSs4_Rep20_S_empty_rep_storageE @ 3223 DATA
	__fu14__ZNSs4_Rep20_S_empty_rep_storageE @ 3224 DATA
	__fu1500__ZNSs4_Rep20_S_empty_rep_storageE @ 3225 DATA
	__fu1501__ZNSs4_Rep20_S_empty_rep_storageE @ 3226 DATA
	__fu1502__ZNSs4_Rep20_S_empty_rep_storageE @ 3227 DATA
	__fu1503__ZNSs4_Rep20_S_empty_rep_storageE @ 3228 DATA
	__fu1504__ZNSs4_Rep20_S_empty_rep_storageE @ 3229 DATA
	__fu1505__ZNSs4_Rep20_S_empty_rep_storageE @ 3230 DATA
	__fu1506__ZNSs4_Rep20_S_empty_rep_storageE @ 3231 DATA
	__fu1507__ZNSs4_Rep20_S_empty_rep_storageE @ 3232 DATA
	__fu1508__ZNSs4_Rep20_S_empty_rep_storageE @ 3233 DATA
	__fu1509__ZNSs4_Rep20_S_empty_rep_storageE @ 3234 DATA
	__fu150__ZNSs4_Rep20_S_empty_rep_storageE @ 3235 DATA
	__fu1510__ZNSs4_Rep20_S_empty_rep_storageE @ 3236 DATA
	__fu1511__ZNSs4_Rep20_S_empty_rep_storageE @ 3237 DATA
	__fu1512__ZNSs4_Rep20_S_empty_rep_storageE @ 3238 DATA
	__fu1513__ZNSs4_Rep20_S_empty_rep_storageE @ 3239 DATA
	__fu1514__ZNSs4_Rep20_S_empty_rep_storageE @ 3240 DATA
	__fu1515__ZNSs4_Rep20_S_empty_rep_storageE @ 3241 DATA
	__fu1516__ZNSs4_Rep20_S_empty_rep_storageE @ 3242 DATA
	__fu1517__ZNSs4_Rep20_S_empty_rep_storageE @ 3243 DATA
	__fu1518__ZNSs4_Rep20_S_empty_rep_storageE @ 3244 DATA
	__fu1519__ZNSs4_Rep20_S_empty_rep_storageE @ 3245 DATA
	__fu151__ZNSs4_Rep20_S_empty_rep_storageE @ 3246 DATA
	__fu1520__ZNSs4_Rep20_S_empty_rep_storageE @ 3247 DATA
	__fu1521__ZNSs4_Rep20_S_empty_rep_storageE @ 3248 DATA
	__fu1522__ZNSs4_Rep20_S_empty_rep_storageE @ 3249 DATA
	__fu1523__ZNSs4_Rep20_S_empty_rep_storageE @ 3250 DATA
	__fu1524__ZNSs4_Rep20_S_empty_rep_storageE @ 3251 DATA
	__fu1525__ZNSs4_Rep20_S_empty_rep_storageE @ 3252 DATA
	__fu1526__ZNSs4_Rep20_S_empty_rep_storageE @ 3253 DATA
	__fu1527__ZNSs4_Rep20_S_empty_rep_storageE @ 3254 DATA
	__fu1528__ZNSs4_Rep20_S_empty_rep_storageE @ 3255 DATA
	__fu1529__ZNSs4_Rep20_S_empty_rep_storageE @ 3256 DATA
	__fu152__ZNSs4_Rep20_S_empty_rep_storageE @ 3257 DATA
	__fu1530__ZNSs4_Rep20_S_empty_rep_storageE @ 3258 DATA
	__fu1531__ZNSs4_Rep20_S_empty_rep_storageE @ 3259 DATA
	__fu1532__ZNSs4_Rep20_S_empty_rep_storageE @ 3260 DATA
	__fu1533__ZNSs4_Rep20_S_empty_rep_storageE @ 3261 DATA
	__fu1534__ZNSs4_Rep20_S_empty_rep_storageE @ 3262 DATA
	__fu1535__ZNSs4_Rep20_S_empty_rep_storageE @ 3263 DATA
	__fu1536__ZNSs4_Rep20_S_empty_rep_storageE @ 3264 DATA
	__fu1537__ZNSs4_Rep20_S_empty_rep_storageE @ 3265 DATA
	__fu1538__ZNSs4_Rep20_S_empty_rep_storageE @ 3266 DATA
	__fu1539__ZNSs4_Rep20_S_empty_rep_storageE @ 3267 DATA
	__fu153__ZNSs4_Rep20_S_empty_rep_storageE @ 3268 DATA
	__fu1540__ZNSs4_Rep20_S_empty_rep_storageE @ 3269 DATA
	__fu1541__ZNSs4_Rep20_S_empty_rep_storageE @ 3270 DATA
	__fu1542__ZNSs4_Rep20_S_empty_rep_storageE @ 3271 DATA
	__fu1543__ZNSs4_Rep20_S_empty_rep_storageE @ 3272 DATA
	__fu1544__ZNSs4_Rep20_S_empty_rep_storageE @ 3273 DATA
	__fu1545__ZNSs4_Rep20_S_empty_rep_storageE @ 3274 DATA
	__fu1546__ZNSs4_Rep20_S_empty_rep_storageE @ 3275 DATA
	__fu1547__ZNSs4_Rep20_S_empty_rep_storageE @ 3276 DATA
	__fu1548__ZNSs4_Rep20_S_empty_rep_storageE @ 3277 DATA
	__fu1549__ZNSs4_Rep20_S_empty_rep_storageE @ 3278 DATA
	__fu154__ZNSs4_Rep20_S_empty_rep_storageE @ 3279 DATA
	__fu1550__ZNSs4_Rep20_S_empty_rep_storageE @ 3280 DATA
	__fu1551__ZNSs4_Rep20_S_empty_rep_storageE @ 3281 DATA
	__fu1552__ZNSs4_Rep20_S_empty_rep_storageE @ 3282 DATA
	__fu1553__ZNSs4_Rep20_S_empty_rep_storageE @ 3283 DATA
	__fu1554__ZNSs4_Rep20_S_empty_rep_storageE @ 3284 DATA
	__fu1555__ZNSs4_Rep20_S_empty_rep_storageE @ 3285 DATA
	__fu1556__ZNSs4_Rep20_S_empty_rep_storageE @ 3286 DATA
	__fu1557__ZNSs4_Rep20_S_empty_rep_storageE @ 3287 DATA
	__fu1558__ZNSs4_Rep20_S_empty_rep_storageE @ 3288 DATA
	__fu1559__ZNSs4_Rep20_S_empty_rep_storageE @ 3289 DATA
	__fu155__ZNSs4_Rep20_S_empty_rep_storageE @ 3290 DATA
	__fu1560__ZNSs4_Rep20_S_empty_rep_storageE @ 3291 DATA
	__fu1561__ZNSs4_Rep20_S_empty_rep_storageE @ 3292 DATA
	__fu1562__ZNSs4_Rep20_S_empty_rep_storageE @ 3293 DATA
	__fu1563__ZNSs4_Rep20_S_empty_rep_storageE @ 3294 DATA
	__fu1564__ZNSs4_Rep20_S_empty_rep_storageE @ 3295 DATA
	__fu1565__ZNSs4_Rep20_S_empty_rep_storageE @ 3296 DATA
	__fu1566__ZNSs4_Rep20_S_empty_rep_storageE @ 3297 DATA
	__fu1567__ZNSs4_Rep20_S_empty_rep_storageE @ 3298 DATA
	__fu1568__ZNSs4_Rep20_S_empty_rep_storageE @ 3299 DATA
	__fu1569__ZNSs4_Rep20_S_empty_rep_storageE @ 3300 DATA
	__fu156__ZNSs4_Rep20_S_empty_rep_storageE @ 3301 DATA
	__fu1570__ZNSs4_Rep20_S_empty_rep_storageE @ 3302 DATA
	__fu1571__ZNSs4_Rep20_S_empty_rep_storageE @ 3303 DATA
	__fu1572__ZNSs4_Rep20_S_empty_rep_storageE @ 3304 DATA
	__fu1573__ZNSs4_Rep20_S_empty_rep_storageE @ 3305 DATA
	__fu1574__ZNSs4_Rep20_S_empty_rep_storageE @ 3306 DATA
	__fu1575__ZNSs4_Rep20_S_empty_rep_storageE @ 3307 DATA
	__fu1576__ZNSs4_Rep20_S_empty_rep_storageE @ 3308 DATA
	__fu1577__ZNSs4_Rep20_S_empty_rep_storageE @ 3309 DATA
	__fu1578__ZNSs4_Rep20_S_empty_rep_storageE @ 3310 DATA
	__fu1579__ZNSs4_Rep20_S_empty_rep_storageE @ 3311 DATA
	__fu157__ZNSs4_Rep20_S_empty_rep_storageE @ 3312 DATA
	__fu1580__ZNSs4_Rep20_S_empty_rep_storageE @ 3313 DATA
	__fu1581__ZNSs4_Rep20_S_empty_rep_storageE @ 3314 DATA
	__fu1582__ZNSs4_Rep20_S_empty_rep_storageE @ 3315 DATA
	__fu1583__ZNSs4_Rep20_S_empty_rep_storageE @ 3316 DATA
	__fu1584__ZNSs4_Rep20_S_empty_rep_storageE @ 3317 DATA
	__fu1585__ZNSs4_Rep20_S_empty_rep_storageE @ 3318 DATA
	__fu1586__ZNSs4_Rep20_S_empty_rep_storageE @ 3319 DATA
	__fu1587__ZNSs4_Rep20_S_empty_rep_storageE @ 3320 DATA
	__fu1588__ZNSs4_Rep20_S_empty_rep_storageE @ 3321 DATA
	__fu1589__ZNSs4_Rep20_S_empty_rep_storageE @ 3322 DATA
	__fu158__ZNSs4_Rep20_S_empty_rep_storageE @ 3323 DATA
	__fu1590__ZNSs4_Rep20_S_empty_rep_storageE @ 3324 DATA
	__fu1591__ZNSs4_Rep20_S_empty_rep_storageE @ 3325 DATA
	__fu1592__ZNSs4_Rep20_S_empty_rep_storageE @ 3326 DATA
	__fu1593__ZNSs4_Rep20_S_empty_rep_storageE @ 3327 DATA
	__fu1594__ZNSs4_Rep20_S_empty_rep_storageE @ 3328 DATA
	__fu1595__ZNSs4_Rep20_S_empty_rep_storageE @ 3329 DATA
	__fu1596__ZNSs4_Rep20_S_empty_rep_storageE @ 3330 DATA
	__fu1597__ZNSs4_Rep20_S_empty_rep_storageE @ 3331 DATA
	__fu1598__ZNSs4_Rep20_S_empty_rep_storageE @ 3332 DATA
	__fu1599__ZNSs4_Rep20_S_empty_rep_storageE @ 3333 DATA
	__fu159__ZNSs4_Rep20_S_empty_rep_storageE @ 3334 DATA
	__fu15__ZNSs4_Rep20_S_empty_rep_storageE @ 3335 DATA
	__fu1600__ZNSs4_Rep20_S_empty_rep_storageE @ 3336 DATA
	__fu1601__ZNSs4_Rep20_S_empty_rep_storageE @ 3337 DATA
	__fu1602__ZNSs4_Rep20_S_empty_rep_storageE @ 3338 DATA
	__fu1603__ZNSs4_Rep20_S_empty_rep_storageE @ 3339 DATA
	__fu1604__ZNSs4_Rep20_S_empty_rep_storageE @ 3340 DATA
	__fu1605__ZNSs4_Rep20_S_empty_rep_storageE @ 3341 DATA
	__fu1606__ZNSs4_Rep20_S_empty_rep_storageE @ 3342 DATA
	__fu1607__ZNSs4_Rep20_S_empty_rep_storageE @ 3343 DATA
	__fu1608__ZNSs4_Rep20_S_empty_rep_storageE @ 3344 DATA
	__fu1609__ZNSs4_Rep20_S_empty_rep_storageE @ 3345 DATA
	__fu160__ZNSs4_Rep20_S_empty_rep_storageE @ 3346 DATA
	__fu1610__ZNSs4_Rep20_S_empty_rep_storageE @ 3347 DATA
	__fu1611__ZNSs4_Rep20_S_empty_rep_storageE @ 3348 DATA
	__fu1612__ZNSs4_Rep20_S_empty_rep_storageE @ 3349 DATA
	__fu1613__ZNSs4_Rep20_S_empty_rep_storageE @ 3350 DATA
	__fu1614__ZNSs4_Rep20_S_empty_rep_storageE @ 3351 DATA
	__fu1615__ZNSs4_Rep20_S_empty_rep_storageE @ 3352 DATA
	__fu1616__ZNSs4_Rep20_S_empty_rep_storageE @ 3353 DATA
	__fu1617__ZNSs4_Rep20_S_empty_rep_storageE @ 3354 DATA
	__fu1618__ZNSs4_Rep20_S_empty_rep_storageE @ 3355 DATA
	__fu1619__ZNSs4_Rep20_S_empty_rep_storageE @ 3356 DATA
	__fu161__ZNSs4_Rep20_S_empty_rep_storageE @ 3357 DATA
	__fu1620__ZNSs4_Rep20_S_empty_rep_storageE @ 3358 DATA
	__fu1621__ZNSs4_Rep20_S_empty_rep_storageE @ 3359 DATA
	__fu1622__ZNSs4_Rep20_S_empty_rep_storageE @ 3360 DATA
	__fu1623__ZNSs4_Rep20_S_empty_rep_storageE @ 3361 DATA
	__fu1624__ZNSs4_Rep20_S_empty_rep_storageE @ 3362 DATA
	__fu1625__ZNSs4_Rep20_S_empty_rep_storageE @ 3363 DATA
	__fu1626__ZNSs4_Rep20_S_empty_rep_storageE @ 3364 DATA
	__fu1627__ZNSs4_Rep20_S_empty_rep_storageE @ 3365 DATA
	__fu1628__ZNSs4_Rep20_S_empty_rep_storageE @ 3366 DATA
	__fu1629__ZNSs4_Rep20_S_empty_rep_storageE @ 3367 DATA
	__fu162__ZNSs4_Rep20_S_empty_rep_storageE @ 3368 DATA
	__fu1630__ZNSs4_Rep20_S_empty_rep_storageE @ 3369 DATA
	__fu1631__ZNSs4_Rep20_S_empty_rep_storageE @ 3370 DATA
	__fu1632__ZNSs4_Rep20_S_empty_rep_storageE @ 3371 DATA
	__fu1633__ZNSs4_Rep20_S_empty_rep_storageE @ 3372 DATA
	__fu1634__ZNSs4_Rep20_S_empty_rep_storageE @ 3373 DATA
	__fu1635__ZNSs4_Rep20_S_empty_rep_storageE @ 3374 DATA
	__fu1636__ZNSs4_Rep20_S_empty_rep_storageE @ 3375 DATA
	__fu1637__ZNSs4_Rep20_S_empty_rep_storageE @ 3376 DATA
	__fu1638__ZNSs4_Rep20_S_empty_rep_storageE @ 3377 DATA
	__fu1639__ZNSs4_Rep20_S_empty_rep_storageE @ 3378 DATA
	__fu163__ZNSs4_Rep20_S_empty_rep_storageE @ 3379 DATA
	__fu1640__ZNSs4_Rep20_S_empty_rep_storageE @ 3380 DATA
	__fu1641__ZNSs4_Rep20_S_empty_rep_storageE @ 3381 DATA
	__fu1642__ZNSs4_Rep20_S_empty_rep_storageE @ 3382 DATA
	__fu1643__ZNSs4_Rep20_S_empty_rep_storageE @ 3383 DATA
	__fu1644__ZNSs4_Rep20_S_empty_rep_storageE @ 3384 DATA
	__fu1645__ZNSs4_Rep20_S_empty_rep_storageE @ 3385 DATA
	__fu1646__ZNSs4_Rep20_S_empty_rep_storageE @ 3386 DATA
	__fu1647__ZNSs4_Rep20_S_empty_rep_storageE @ 3387 DATA
	__fu1648__ZNSs4_Rep20_S_empty_rep_storageE @ 3388 DATA
	__fu1649__ZNSs4_Rep20_S_empty_rep_storageE @ 3389 DATA
	__fu164__ZNSs4_Rep20_S_empty_rep_storageE @ 3390 DATA
	__fu1650__ZNSs4_Rep20_S_empty_rep_storageE @ 3391 DATA
	__fu1651__ZNSs4_Rep20_S_empty_rep_storageE @ 3392 DATA
	__fu1652__ZNSs4_Rep20_S_empty_rep_storageE @ 3393 DATA
	__fu1653__ZNSs4_Rep20_S_empty_rep_storageE @ 3394 DATA
	__fu1654__ZNSs4_Rep20_S_empty_rep_storageE @ 3395 DATA
	__fu1655__ZNSs4_Rep20_S_empty_rep_storageE @ 3396 DATA
	__fu1656__ZNSs4_Rep20_S_empty_rep_storageE @ 3397 DATA
	__fu1657__ZNSs4_Rep20_S_empty_rep_storageE @ 3398 DATA
	__fu1658__ZNSs4_Rep20_S_empty_rep_storageE @ 3399 DATA
	__fu1659__ZNSs4_Rep20_S_empty_rep_storageE @ 3400 DATA
	__fu165__ZNSs4_Rep20_S_empty_rep_storageE @ 3401 DATA
	__fu1660__ZNSs4_Rep20_S_empty_rep_storageE @ 3402 DATA
	__fu1661__ZNSs4_Rep20_S_empty_rep_storageE @ 3403 DATA
	__fu1662__ZNSs4_Rep20_S_empty_rep_storageE @ 3404 DATA
	__fu1663__ZNSs4_Rep20_S_empty_rep_storageE @ 3405 DATA
	__fu1664__ZNSs4_Rep20_S_empty_rep_storageE @ 3406 DATA
	__fu1665__ZNSs4_Rep20_S_empty_rep_storageE @ 3407 DATA
	__fu1666__ZNSs4_Rep20_S_empty_rep_storageE @ 3408 DATA
	__fu1667__ZNSs4_Rep20_S_empty_rep_storageE @ 3409 DATA
	__fu1668__ZNSs4_Rep20_S_empty_rep_storageE @ 3410 DATA
	__fu1669__ZNSs4_Rep20_S_empty_rep_storageE @ 3411 DATA
	__fu166__ZNSs4_Rep20_S_empty_rep_storageE @ 3412 DATA
	__fu1670__ZNSs4_Rep20_S_empty_rep_storageE @ 3413 DATA
	__fu1671__ZNSs4_Rep20_S_empty_rep_storageE @ 3414 DATA
	__fu1672__ZNSs4_Rep20_S_empty_rep_storageE @ 3415 DATA
	__fu1673__ZNSs4_Rep20_S_empty_rep_storageE @ 3416 DATA
	__fu1674__ZNSs4_Rep20_S_empty_rep_storageE @ 3417 DATA
	__fu1675__ZNSs4_Rep20_S_empty_rep_storageE @ 3418 DATA
	__fu1676__ZNSs4_Rep20_S_empty_rep_storageE @ 3419 DATA
	__fu1677__ZNSs4_Rep20_S_empty_rep_storageE @ 3420 DATA
	__fu1678__ZNSs4_Rep20_S_empty_rep_storageE @ 3421 DATA
	__fu1679__ZNSs4_Rep20_S_empty_rep_storageE @ 3422 DATA
	__fu167__ZNSs4_Rep20_S_empty_rep_storageE @ 3423 DATA
	__fu1680__ZNSs4_Rep20_S_empty_rep_storageE @ 3424 DATA
	__fu1681__ZNSs4_Rep20_S_empty_rep_storageE @ 3425 DATA
	__fu1682__ZNSs4_Rep20_S_empty_rep_storageE @ 3426 DATA
	__fu1683__ZNSs4_Rep20_S_empty_rep_storageE @ 3427 DATA
	__fu1684__ZNSs4_Rep20_S_empty_rep_storageE @ 3428 DATA
	__fu1685__ZNSs4_Rep20_S_empty_rep_storageE @ 3429 DATA
	__fu1686__ZNSs4_Rep20_S_empty_rep_storageE @ 3430 DATA
	__fu1687__ZNSs4_Rep20_S_empty_rep_storageE @ 3431 DATA
	__fu1688__ZNSs4_Rep20_S_empty_rep_storageE @ 3432 DATA
	__fu1689__ZNSs4_Rep20_S_empty_rep_storageE @ 3433 DATA
	__fu168__ZNSs4_Rep20_S_empty_rep_storageE @ 3434 DATA
	__fu1690__ZNSs4_Rep20_S_empty_rep_storageE @ 3435 DATA
	__fu1691__ZNSs4_Rep20_S_empty_rep_storageE @ 3436 DATA
	__fu1692__ZNSs4_Rep20_S_empty_rep_storageE @ 3437 DATA
	__fu1693__ZNSs4_Rep20_S_empty_rep_storageE @ 3438 DATA
	__fu1694__ZNSs4_Rep20_S_empty_rep_storageE @ 3439 DATA
	__fu1695__ZNSs4_Rep20_S_empty_rep_storageE @ 3440 DATA
	__fu1696__ZNSs4_Rep20_S_empty_rep_storageE @ 3441 DATA
	__fu1697__ZNSs4_Rep20_S_empty_rep_storageE @ 3442 DATA
	__fu1698__ZNSs4_Rep20_S_empty_rep_storageE @ 3443 DATA
	__fu1699__ZNSs4_Rep20_S_empty_rep_storageE @ 3444 DATA
	__fu169__ZNSs4_Rep20_S_empty_rep_storageE @ 3445 DATA
	__fu16__ZNSs4_Rep20_S_empty_rep_storageE @ 3446 DATA
	__fu1700__ZNSs4_Rep20_S_empty_rep_storageE @ 3447 DATA
	__fu1701__ZNSs4_Rep20_S_empty_rep_storageE @ 3448 DATA
	__fu1702__ZNSs4_Rep20_S_empty_rep_storageE @ 3449 DATA
	__fu1703__ZNSs4_Rep20_S_empty_rep_storageE @ 3450 DATA
	__fu1704__ZNSs4_Rep20_S_empty_rep_storageE @ 3451 DATA
	__fu1705__ZNSs4_Rep20_S_empty_rep_storageE @ 3452 DATA
	__fu1706__ZNSs4_Rep20_S_empty_rep_storageE @ 3453 DATA
	__fu1707__ZNSs4_Rep20_S_empty_rep_storageE @ 3454 DATA
	__fu1708__ZNSs4_Rep20_S_empty_rep_storageE @ 3455 DATA
	__fu1709__ZNSs4_Rep20_S_empty_rep_storageE @ 3456 DATA
	__fu170__ZNSs4_Rep20_S_empty_rep_storageE @ 3457 DATA
	__fu1710__ZNSs4_Rep20_S_empty_rep_storageE @ 3458 DATA
	__fu1711__ZNSs4_Rep20_S_empty_rep_storageE @ 3459 DATA
	__fu1712__ZNSs4_Rep20_S_empty_rep_storageE @ 3460 DATA
	__fu1713__ZNSs4_Rep20_S_empty_rep_storageE @ 3461 DATA
	__fu1714__ZNSs4_Rep20_S_empty_rep_storageE @ 3462 DATA
	__fu1715__ZNSs4_Rep20_S_empty_rep_storageE @ 3463 DATA
	__fu1716__ZNSs4_Rep20_S_empty_rep_storageE @ 3464 DATA
	__fu1717__ZNSs4_Rep20_S_empty_rep_storageE @ 3465 DATA
	__fu1718__ZNSs4_Rep20_S_empty_rep_storageE @ 3466 DATA
	__fu1719__ZNSs4_Rep20_S_empty_rep_storageE @ 3467 DATA
	__fu171__ZNSs4_Rep20_S_empty_rep_storageE @ 3468 DATA
	__fu1720__ZNSs4_Rep20_S_empty_rep_storageE @ 3469 DATA
	__fu1721__ZNSs4_Rep20_S_empty_rep_storageE @ 3470 DATA
	__fu1722__ZNSs4_Rep20_S_empty_rep_storageE @ 3471 DATA
	__fu1723__ZNSs4_Rep20_S_empty_rep_storageE @ 3472 DATA
	__fu1724__ZNSs4_Rep20_S_empty_rep_storageE @ 3473 DATA
	__fu1725__ZNSs4_Rep20_S_empty_rep_storageE @ 3474 DATA
	__fu1726__ZNSs4_Rep20_S_empty_rep_storageE @ 3475 DATA
	__fu1727__ZNSs4_Rep20_S_empty_rep_storageE @ 3476 DATA
	__fu1728__ZNSs4_Rep20_S_empty_rep_storageE @ 3477 DATA
	__fu1729__ZNSs4_Rep20_S_empty_rep_storageE @ 3478 DATA
	__fu172__ZNSs4_Rep20_S_empty_rep_storageE @ 3479 DATA
	__fu1730__ZNSs4_Rep20_S_empty_rep_storageE @ 3480 DATA
	__fu1731__ZNSs4_Rep20_S_empty_rep_storageE @ 3481 DATA
	__fu1732__ZNSs4_Rep20_S_empty_rep_storageE @ 3482 DATA
	__fu1733__ZNSs4_Rep20_S_empty_rep_storageE @ 3483 DATA
	__fu1734__ZNSs4_Rep20_S_empty_rep_storageE @ 3484 DATA
	__fu1735__ZNSs4_Rep20_S_empty_rep_storageE @ 3485 DATA
	__fu1736__ZNSs4_Rep20_S_empty_rep_storageE @ 3486 DATA
	__fu1737__ZNSs4_Rep20_S_empty_rep_storageE @ 3487 DATA
	__fu1738__ZNSs4_Rep20_S_empty_rep_storageE @ 3488 DATA
	__fu1739__ZNSs4_Rep20_S_empty_rep_storageE @ 3489 DATA
	__fu173__ZNSs4_Rep20_S_empty_rep_storageE @ 3490 DATA
	__fu1740__ZNSs4_Rep20_S_empty_rep_storageE @ 3491 DATA
	__fu1741__ZNSs4_Rep20_S_empty_rep_storageE @ 3492 DATA
	__fu1742__ZNSs4_Rep20_S_empty_rep_storageE @ 3493 DATA
	__fu1743__ZNSs4_Rep20_S_empty_rep_storageE @ 3494 DATA
	__fu1744__ZNSs4_Rep20_S_empty_rep_storageE @ 3495 DATA
	__fu1745__ZNSs4_Rep20_S_empty_rep_storageE @ 3496 DATA
	__fu1746__ZNSs4_Rep20_S_empty_rep_storageE @ 3497 DATA
	__fu1747__ZNSs4_Rep20_S_empty_rep_storageE @ 3498 DATA
	__fu1748__ZNSs4_Rep20_S_empty_rep_storageE @ 3499 DATA
	__fu1749__ZNSs4_Rep20_S_empty_rep_storageE @ 3500 DATA
	__fu174__ZNSs4_Rep20_S_empty_rep_storageE @ 3501 DATA
	__fu1750__ZNSs4_Rep20_S_empty_rep_storageE @ 3502 DATA
	__fu1751__ZNSs4_Rep20_S_empty_rep_storageE @ 3503 DATA
	__fu1752__ZNSs4_Rep20_S_empty_rep_storageE @ 3504 DATA
	__fu1753__ZNSs4_Rep20_S_empty_rep_storageE @ 3505 DATA
	__fu1754__ZNSs4_Rep20_S_empty_rep_storageE @ 3506 DATA
	__fu1755__ZNSs4_Rep20_S_empty_rep_storageE @ 3507 DATA
	__fu1756__ZNSs4_Rep20_S_empty_rep_storageE @ 3508 DATA
	__fu1757__ZNSs4_Rep20_S_empty_rep_storageE @ 3509 DATA
	__fu1758__ZNSs4_Rep20_S_empty_rep_storageE @ 3510 DATA
	__fu1759__ZNSs4_Rep20_S_empty_rep_storageE @ 3511 DATA
	__fu175__ZNSs4_Rep20_S_empty_rep_storageE @ 3512 DATA
	__fu1760__ZNSs4_Rep20_S_empty_rep_storageE @ 3513 DATA
	__fu1761__ZNSs4_Rep20_S_empty_rep_storageE @ 3514 DATA
	__fu1762__ZNSs4_Rep20_S_empty_rep_storageE @ 3515 DATA
	__fu1763__ZNSs4_Rep20_S_empty_rep_storageE @ 3516 DATA
	__fu1764__ZNSs4_Rep20_S_empty_rep_storageE @ 3517 DATA
	__fu1765__ZNSs4_Rep20_S_empty_rep_storageE @ 3518 DATA
	__fu1766__ZNSs4_Rep20_S_empty_rep_storageE @ 3519 DATA
	__fu1767__ZNSs4_Rep20_S_empty_rep_storageE @ 3520 DATA
	__fu1768__ZNSs4_Rep20_S_empty_rep_storageE @ 3521 DATA
	__fu1769__ZNSs4_Rep20_S_empty_rep_storageE @ 3522 DATA
	__fu176__ZNSs4_Rep20_S_empty_rep_storageE @ 3523 DATA
	__fu1770__ZNSs4_Rep20_S_empty_rep_storageE @ 3524 DATA
	__fu1771__ZNSs4_Rep20_S_empty_rep_storageE @ 3525 DATA
	__fu1772__ZNSs4_Rep20_S_empty_rep_storageE @ 3526 DATA
	__fu1773__ZNSs4_Rep20_S_empty_rep_storageE @ 3527 DATA
	__fu1774__ZNSs4_Rep20_S_empty_rep_storageE @ 3528 DATA
	__fu1775__ZNSs4_Rep20_S_empty_rep_storageE @ 3529 DATA
	__fu1776__ZNSs4_Rep20_S_empty_rep_storageE @ 3530 DATA
	__fu1777__ZNSs4_Rep20_S_empty_rep_storageE @ 3531 DATA
	__fu1778__ZNSs4_Rep20_S_empty_rep_storageE @ 3532 DATA
	__fu1779__ZNSs4_Rep20_S_empty_rep_storageE @ 3533 DATA
	__fu177__ZNSs4_Rep20_S_empty_rep_storageE @ 3534 DATA
	__fu1780__ZNSs4_Rep20_S_empty_rep_storageE @ 3535 DATA
	__fu1781__ZNSs4_Rep20_S_empty_rep_storageE @ 3536 DATA
	__fu1782__ZNSs4_Rep20_S_empty_rep_storageE @ 3537 DATA
	__fu1783__ZNSs4_Rep20_S_empty_rep_storageE @ 3538 DATA
	__fu1784__ZNSs4_Rep20_S_empty_rep_storageE @ 3539 DATA
	__fu1785__ZNSs4_Rep20_S_empty_rep_storageE @ 3540 DATA
	__fu1786__ZNSs4_Rep20_S_empty_rep_storageE @ 3541 DATA
	__fu1787__ZNSs4_Rep20_S_empty_rep_storageE @ 3542 DATA
	__fu1788__ZNSs4_Rep20_S_empty_rep_storageE @ 3543 DATA
	__fu1789__ZNSs4_Rep20_S_empty_rep_storageE @ 3544 DATA
	__fu178__ZNSs4_Rep20_S_empty_rep_storageE @ 3545 DATA
	__fu1790__ZNSs4_Rep20_S_empty_rep_storageE @ 3546 DATA
	__fu1791__ZNSs4_Rep20_S_empty_rep_storageE @ 3547 DATA
	__fu1792__ZNSs4_Rep20_S_empty_rep_storageE @ 3548 DATA
	__fu1793__ZNSs4_Rep20_S_empty_rep_storageE @ 3549 DATA
	__fu1794__ZNSs4_Rep20_S_empty_rep_storageE @ 3550 DATA
	__fu1795__ZNSs4_Rep20_S_empty_rep_storageE @ 3551 DATA
	__fu1796__ZNSs4_Rep20_S_empty_rep_storageE @ 3552 DATA
	__fu1797__ZNSs4_Rep20_S_empty_rep_storageE @ 3553 DATA
	__fu1798__ZNSs4_Rep20_S_empty_rep_storageE @ 3554 DATA
	__fu1799__ZNSs4_Rep20_S_empty_rep_storageE @ 3555 DATA
	__fu179__ZNSs4_Rep20_S_empty_rep_storageE @ 3556 DATA
	__fu17__ZNSs4_Rep20_S_empty_rep_storageE @ 3557 DATA
	__fu1800__ZNSs4_Rep20_S_empty_rep_storageE @ 3558 DATA
	__fu1801__ZNSs4_Rep20_S_empty_rep_storageE @ 3559 DATA
	__fu1802__ZNSs4_Rep20_S_empty_rep_storageE @ 3560 DATA
	__fu1803__ZNSs4_Rep20_S_empty_rep_storageE @ 3561 DATA
	__fu1804__ZNSs4_Rep20_S_empty_rep_storageE @ 3562 DATA
	__fu1805__ZNSs4_Rep20_S_empty_rep_storageE @ 3563 DATA
	__fu1806__ZNSs4_Rep20_S_empty_rep_storageE @ 3564 DATA
	__fu1807__ZNSs4_Rep20_S_empty_rep_storageE @ 3565 DATA
	__fu1808__ZNSs4_Rep20_S_empty_rep_storageE @ 3566 DATA
	__fu1809__ZNSs4_Rep20_S_empty_rep_storageE @ 3567 DATA
	__fu180__ZNSs4_Rep20_S_empty_rep_storageE @ 3568 DATA
	__fu1810__ZNSs4_Rep20_S_empty_rep_storageE @ 3569 DATA
	__fu1811__ZNSs4_Rep20_S_empty_rep_storageE @ 3570 DATA
	__fu1812__ZNSs4_Rep20_S_empty_rep_storageE @ 3571 DATA
	__fu1813__ZNSs4_Rep20_S_empty_rep_storageE @ 3572 DATA
	__fu1814__ZNSs4_Rep20_S_empty_rep_storageE @ 3573 DATA
	__fu1815__ZNSs4_Rep20_S_empty_rep_storageE @ 3574 DATA
	__fu1816__ZNSs4_Rep20_S_empty_rep_storageE @ 3575 DATA
	__fu1817__ZNSs4_Rep20_S_empty_rep_storageE @ 3576 DATA
	__fu1818__ZNSs4_Rep20_S_empty_rep_storageE @ 3577 DATA
	__fu1819__ZNSs4_Rep20_S_empty_rep_storageE @ 3578 DATA
	__fu181__ZNSs4_Rep20_S_empty_rep_storageE @ 3579 DATA
	__fu1820__ZNSs4_Rep20_S_empty_rep_storageE @ 3580 DATA
	__fu1821__ZNSs4_Rep20_S_empty_rep_storageE @ 3581 DATA
	__fu1822__ZNSs4_Rep20_S_empty_rep_storageE @ 3582 DATA
	__fu1823__ZNSs4_Rep20_S_empty_rep_storageE @ 3583 DATA
	__fu1824__ZNSs4_Rep20_S_empty_rep_storageE @ 3584 DATA
	__fu1825__ZNSs4_Rep20_S_empty_rep_storageE @ 3585 DATA
	__fu1826__ZNSs4_Rep20_S_empty_rep_storageE @ 3586 DATA
	__fu1827__ZNSs4_Rep20_S_empty_rep_storageE @ 3587 DATA
	__fu1828__ZNSs4_Rep20_S_empty_rep_storageE @ 3588 DATA
	__fu1829__ZNSs4_Rep20_S_empty_rep_storageE @ 3589 DATA
	__fu182__ZNSs4_Rep20_S_empty_rep_storageE @ 3590 DATA
	__fu1830__ZNSs4_Rep20_S_empty_rep_storageE @ 3591 DATA
	__fu1831__ZNSs4_Rep20_S_empty_rep_storageE @ 3592 DATA
	__fu1832__ZNSs4_Rep20_S_empty_rep_storageE @ 3593 DATA
	__fu1833__ZNSs4_Rep20_S_empty_rep_storageE @ 3594 DATA
	__fu1834__ZNSs4_Rep20_S_empty_rep_storageE @ 3595 DATA
	__fu1835__ZNSs4_Rep20_S_empty_rep_storageE @ 3596 DATA
	__fu1836__ZNSs4_Rep20_S_empty_rep_storageE @ 3597 DATA
	__fu1837__ZNSs4_Rep20_S_empty_rep_storageE @ 3598 DATA
	__fu1838__ZNSs4_Rep20_S_empty_rep_storageE @ 3599 DATA
	__fu1839__ZNSs4_Rep20_S_empty_rep_storageE @ 3600 DATA
	__fu183__ZNSs4_Rep20_S_empty_rep_storageE @ 3601 DATA
	__fu1840__ZNSs4_Rep20_S_empty_rep_storageE @ 3602 DATA
	__fu1841__ZNSs4_Rep20_S_empty_rep_storageE @ 3603 DATA
	__fu1842__ZNSs4_Rep20_S_empty_rep_storageE @ 3604 DATA
	__fu1843__ZNSs4_Rep20_S_empty_rep_storageE @ 3605 DATA
	__fu1844__ZNSs4_Rep20_S_empty_rep_storageE @ 3606 DATA
	__fu1845__ZNSs4_Rep20_S_empty_rep_storageE @ 3607 DATA
	__fu1846__ZNSs4_Rep20_S_empty_rep_storageE @ 3608 DATA
	__fu1847__ZNSs4_Rep20_S_empty_rep_storageE @ 3609 DATA
	__fu1848__ZNSs4_Rep20_S_empty_rep_storageE @ 3610 DATA
	__fu1849__ZNSs4_Rep20_S_empty_rep_storageE @ 3611 DATA
	__fu184__ZNSs4_Rep20_S_empty_rep_storageE @ 3612 DATA
	__fu1850__ZNSs4_Rep20_S_empty_rep_storageE @ 3613 DATA
	__fu1851__ZNSs4_Rep20_S_empty_rep_storageE @ 3614 DATA
	__fu1852__ZNSs4_Rep20_S_empty_rep_storageE @ 3615 DATA
	__fu1853__ZNSs4_Rep20_S_empty_rep_storageE @ 3616 DATA
	__fu1854__ZNSs4_Rep20_S_empty_rep_storageE @ 3617 DATA
	__fu1855__ZNSs4_Rep20_S_empty_rep_storageE @ 3618 DATA
	__fu1856__ZNSs4_Rep20_S_empty_rep_storageE @ 3619 DATA
	__fu1857__ZNSs4_Rep20_S_empty_rep_storageE @ 3620 DATA
	__fu1858__ZNSs4_Rep20_S_empty_rep_storageE @ 3621 DATA
	__fu1859__ZNSs4_Rep20_S_empty_rep_storageE @ 3622 DATA
	__fu185__ZNSs4_Rep20_S_empty_rep_storageE @ 3623 DATA
	__fu1860__ZNSs4_Rep20_S_empty_rep_storageE @ 3624 DATA
	__fu1861__ZNSs4_Rep20_S_empty_rep_storageE @ 3625 DATA
	__fu1862__ZNSs4_Rep20_S_empty_rep_storageE @ 3626 DATA
	__fu1863__ZNSs4_Rep20_S_empty_rep_storageE @ 3627 DATA
	__fu1864__ZNSs4_Rep20_S_empty_rep_storageE @ 3628 DATA
	__fu1865__ZNSs4_Rep20_S_empty_rep_storageE @ 3629 DATA
	__fu1866__ZNSs4_Rep20_S_empty_rep_storageE @ 3630 DATA
	__fu1867__ZNSs4_Rep20_S_empty_rep_storageE @ 3631 DATA
	__fu1868__ZNSs4_Rep20_S_empty_rep_storageE @ 3632 DATA
	__fu1869__ZNSs4_Rep20_S_empty_rep_storageE @ 3633 DATA
	__fu186__ZNSs4_Rep20_S_empty_rep_storageE @ 3634 DATA
	__fu1870__ZNSs4_Rep20_S_empty_rep_storageE @ 3635 DATA
	__fu1871__ZNSs4_Rep20_S_empty_rep_storageE @ 3636 DATA
	__fu1872__ZNSs4_Rep20_S_empty_rep_storageE @ 3637 DATA
	__fu1873__ZNSs4_Rep20_S_empty_rep_storageE @ 3638 DATA
	__fu1874__ZNSs4_Rep20_S_empty_rep_storageE @ 3639 DATA
	__fu1875__ZNSs4_Rep20_S_empty_rep_storageE @ 3640 DATA
	__fu1876__ZNSs4_Rep20_S_empty_rep_storageE @ 3641 DATA
	__fu1877__ZNSs4_Rep20_S_empty_rep_storageE @ 3642 DATA
	__fu1878__ZNSs4_Rep20_S_empty_rep_storageE @ 3643 DATA
	__fu1879__ZNSs4_Rep20_S_empty_rep_storageE @ 3644 DATA
	__fu187__ZNSs4_Rep20_S_empty_rep_storageE @ 3645 DATA
	__fu1880__ZNSs4_Rep20_S_empty_rep_storageE @ 3646 DATA
	__fu1881__ZNSs4_Rep20_S_empty_rep_storageE @ 3647 DATA
	__fu1882__ZNSs4_Rep20_S_empty_rep_storageE @ 3648 DATA
	__fu1883__ZNSs4_Rep20_S_empty_rep_storageE @ 3649 DATA
	__fu1884__ZNSs4_Rep20_S_empty_rep_storageE @ 3650 DATA
	__fu1885__ZNSs4_Rep20_S_empty_rep_storageE @ 3651 DATA
	__fu1886__ZNSs4_Rep20_S_empty_rep_storageE @ 3652 DATA
	__fu1887__ZNSs4_Rep20_S_empty_rep_storageE @ 3653 DATA
	__fu1888__ZNSs4_Rep20_S_empty_rep_storageE @ 3654 DATA
	__fu1889__ZNSs4_Rep20_S_empty_rep_storageE @ 3655 DATA
	__fu188__ZNSs4_Rep20_S_empty_rep_storageE @ 3656 DATA
	__fu1890__ZNSs4_Rep20_S_empty_rep_storageE @ 3657 DATA
	__fu1891__ZNSs4_Rep20_S_empty_rep_storageE @ 3658 DATA
	__fu1892__ZNSs4_Rep20_S_empty_rep_storageE @ 3659 DATA
	__fu1893__ZNSs4_Rep20_S_empty_rep_storageE @ 3660 DATA
	__fu1894__ZNSs4_Rep20_S_empty_rep_storageE @ 3661 DATA
	__fu1895__ZNSs4_Rep20_S_empty_rep_storageE @ 3662 DATA
	__fu1896__ZNSs4_Rep20_S_empty_rep_storageE @ 3663 DATA
	__fu1897__ZNSs4_Rep20_S_empty_rep_storageE @ 3664 DATA
	__fu1898__ZNSs4_Rep20_S_empty_rep_storageE @ 3665 DATA
	__fu1899__ZNSs4_Rep20_S_empty_rep_storageE @ 3666 DATA
	__fu189__ZNSs4_Rep20_S_empty_rep_storageE @ 3667 DATA
	__fu18__ZNSs4_Rep20_S_empty_rep_storageE @ 3668 DATA
	__fu1900__ZNSs4_Rep20_S_empty_rep_storageE @ 3669 DATA
	__fu1901__ZNSs4_Rep20_S_empty_rep_storageE @ 3670 DATA
	__fu1902__ZNSs4_Rep20_S_empty_rep_storageE @ 3671 DATA
	__fu1903__ZNSs4_Rep20_S_empty_rep_storageE @ 3672 DATA
	__fu1904__ZNSs4_Rep20_S_empty_rep_storageE @ 3673 DATA
	__fu1905__ZNSs4_Rep20_S_empty_rep_storageE @ 3674 DATA
	__fu1906__ZNSs4_Rep20_S_empty_rep_storageE @ 3675 DATA
	__fu1907__ZNSs4_Rep20_S_empty_rep_storageE @ 3676 DATA
	__fu1908__ZNSs4_Rep20_S_empty_rep_storageE @ 3677 DATA
	__fu1909__ZNSs4_Rep20_S_empty_rep_storageE @ 3678 DATA
	__fu190__ZNSs4_Rep20_S_empty_rep_storageE @ 3679 DATA
	__fu1910__ZNSs4_Rep20_S_empty_rep_storageE @ 3680 DATA
	__fu1911__ZNSs4_Rep20_S_empty_rep_storageE @ 3681 DATA
	__fu1912__ZNSs4_Rep20_S_empty_rep_storageE @ 3682 DATA
	__fu1913__ZNSs4_Rep20_S_empty_rep_storageE @ 3683 DATA
	__fu1914__ZNSs4_Rep20_S_empty_rep_storageE @ 3684 DATA
	__fu1915__ZNSs4_Rep20_S_empty_rep_storageE @ 3685 DATA
	__fu1916__ZNSs4_Rep20_S_empty_rep_storageE @ 3686 DATA
	__fu1917__ZNSs4_Rep20_S_empty_rep_storageE @ 3687 DATA
	__fu1918__ZNSs4_Rep20_S_empty_rep_storageE @ 3688 DATA
	__fu1919__ZNSs4_Rep20_S_empty_rep_storageE @ 3689 DATA
	__fu191__ZNSs4_Rep20_S_empty_rep_storageE @ 3690 DATA
	__fu1920__ZNSs4_Rep20_S_empty_rep_storageE @ 3691 DATA
	__fu1921__ZNSs4_Rep20_S_empty_rep_storageE @ 3692 DATA
	__fu1922__ZNSs4_Rep20_S_empty_rep_storageE @ 3693 DATA
	__fu1923__ZNSs4_Rep20_S_empty_rep_storageE @ 3694 DATA
	__fu1924__ZNSs4_Rep20_S_empty_rep_storageE @ 3695 DATA
	__fu1925__ZNSs4_Rep20_S_empty_rep_storageE @ 3696 DATA
	__fu1926__ZNSs4_Rep20_S_empty_rep_storageE @ 3697 DATA
	__fu1927__ZNSs4_Rep20_S_empty_rep_storageE @ 3698 DATA
	__fu1928__ZNSs4_Rep20_S_empty_rep_storageE @ 3699 DATA
	__fu1929__ZNSs4_Rep20_S_empty_rep_storageE @ 3700 DATA
	__fu192__ZNSs4_Rep20_S_empty_rep_storageE @ 3701 DATA
	__fu1930__ZNSs4_Rep20_S_empty_rep_storageE @ 3702 DATA
	__fu1931__ZNSs4_Rep20_S_empty_rep_storageE @ 3703 DATA
	__fu1932__ZNSs4_Rep20_S_empty_rep_storageE @ 3704 DATA
	__fu1933__ZNSs4_Rep20_S_empty_rep_storageE @ 3705 DATA
	__fu1934__ZNSs4_Rep20_S_empty_rep_storageE @ 3706 DATA
	__fu1935__ZNSs4_Rep20_S_empty_rep_storageE @ 3707 DATA
	__fu1936__ZNSs4_Rep20_S_empty_rep_storageE @ 3708 DATA
	__fu1937__ZNSs4_Rep20_S_empty_rep_storageE @ 3709 DATA
	__fu1938__ZNSs4_Rep20_S_empty_rep_storageE @ 3710 DATA
	__fu1939__ZNSs4_Rep20_S_empty_rep_storageE @ 3711 DATA
	__fu193__ZNSs4_Rep20_S_empty_rep_storageE @ 3712 DATA
	__fu1940__ZNSs4_Rep20_S_empty_rep_storageE @ 3713 DATA
	__fu1941__ZNSs4_Rep20_S_empty_rep_storageE @ 3714 DATA
	__fu1942__ZNSs4_Rep20_S_empty_rep_storageE @ 3715 DATA
	__fu1943__ZNSs4_Rep20_S_empty_rep_storageE @ 3716 DATA
	__fu1944__ZNSs4_Rep20_S_empty_rep_storageE @ 3717 DATA
	__fu1945__ZNSs4_Rep20_S_empty_rep_storageE @ 3718 DATA
	__fu1946__ZNSs4_Rep20_S_empty_rep_storageE @ 3719 DATA
	__fu1947__ZNSs4_Rep20_S_empty_rep_storageE @ 3720 DATA
	__fu1948__ZNSs4_Rep20_S_empty_rep_storageE @ 3721 DATA
	__fu1949__ZNSs4_Rep20_S_empty_rep_storageE @ 3722 DATA
	__fu194__ZNSs4_Rep20_S_empty_rep_storageE @ 3723 DATA
	__fu1950__ZNSs4_Rep20_S_empty_rep_storageE @ 3724 DATA
	__fu1951__ZNSs4_Rep20_S_empty_rep_storageE @ 3725 DATA
	__fu1952__ZNSs4_Rep20_S_empty_rep_storageE @ 3726 DATA
	__fu1953__ZNSs4_Rep20_S_empty_rep_storageE @ 3727 DATA
	__fu1954__ZNSs4_Rep20_S_empty_rep_storageE @ 3728 DATA
	__fu1955__ZNSs4_Rep20_S_empty_rep_storageE @ 3729 DATA
	__fu1956__ZNSs4_Rep20_S_empty_rep_storageE @ 3730 DATA
	__fu1957__ZNSs4_Rep20_S_empty_rep_storageE @ 3731 DATA
	__fu1958__ZNSs4_Rep20_S_empty_rep_storageE @ 3732 DATA
	__fu1959__ZNSs4_Rep20_S_empty_rep_storageE @ 3733 DATA
	__fu195__ZNSs4_Rep20_S_empty_rep_storageE @ 3734 DATA
	__fu1960__ZNSs4_Rep20_S_empty_rep_storageE @ 3735 DATA
	__fu1961__ZNSs4_Rep20_S_empty_rep_storageE @ 3736 DATA
	__fu1962__ZNSs4_Rep20_S_empty_rep_storageE @ 3737 DATA
	__fu1963__ZNSs4_Rep20_S_empty_rep_storageE @ 3738 DATA
	__fu1964__ZNSs4_Rep20_S_empty_rep_storageE @ 3739 DATA
	__fu1965__ZNSs4_Rep20_S_empty_rep_storageE @ 3740 DATA
	__fu1966__ZNSs4_Rep20_S_empty_rep_storageE @ 3741 DATA
	__fu1967__ZNSs4_Rep20_S_empty_rep_storageE @ 3742 DATA
	__fu1968__ZNSs4_Rep20_S_empty_rep_storageE @ 3743 DATA
	__fu1969__ZNSs4_Rep20_S_empty_rep_storageE @ 3744 DATA
	__fu196__ZNSs4_Rep20_S_empty_rep_storageE @ 3745 DATA
	__fu1970__ZNSs4_Rep20_S_empty_rep_storageE @ 3746 DATA
	__fu1971__ZNSs4_Rep20_S_empty_rep_storageE @ 3747 DATA
	__fu1972__ZNSs4_Rep20_S_empty_rep_storageE @ 3748 DATA
	__fu1973__ZNSs4_Rep20_S_empty_rep_storageE @ 3749 DATA
	__fu1974__ZNSs4_Rep20_S_empty_rep_storageE @ 3750 DATA
	__fu1975__ZNSs4_Rep20_S_empty_rep_storageE @ 3751 DATA
	__fu1976__ZNSs4_Rep20_S_empty_rep_storageE @ 3752 DATA
	__fu1977__ZNSs4_Rep20_S_empty_rep_storageE @ 3753 DATA
	__fu1978__ZNSs4_Rep20_S_empty_rep_storageE @ 3754 DATA
	__fu1979__ZNSs4_Rep20_S_empty_rep_storageE @ 3755 DATA
	__fu197__ZNSs4_Rep20_S_empty_rep_storageE @ 3756 DATA
	__fu1980__ZNSs4_Rep20_S_empty_rep_storageE @ 3757 DATA
	__fu1981__ZNSs4_Rep20_S_empty_rep_storageE @ 3758 DATA
	__fu1982__ZNSs4_Rep20_S_empty_rep_storageE @ 3759 DATA
	__fu1983__ZNSs4_Rep20_S_empty_rep_storageE @ 3760 DATA
	__fu1984__ZNSs4_Rep20_S_empty_rep_storageE @ 3761 DATA
	__fu1985__ZNSs4_Rep20_S_empty_rep_storageE @ 3762 DATA
	__fu1986__ZNSs4_Rep20_S_empty_rep_storageE @ 3763 DATA
	__fu1987__ZNSs4_Rep20_S_empty_rep_storageE @ 3764 DATA
	__fu1988__ZNSs4_Rep20_S_empty_rep_storageE @ 3765 DATA
	__fu1989__ZNSs4_Rep20_S_empty_rep_storageE @ 3766 DATA
	__fu198__ZNSs4_Rep20_S_empty_rep_storageE @ 3767 DATA
	__fu1990__ZNSs4_Rep20_S_empty_rep_storageE @ 3768 DATA
	__fu1991__ZNSs4_Rep20_S_empty_rep_storageE @ 3769 DATA
	__fu1992__ZNSs4_Rep20_S_empty_rep_storageE @ 3770 DATA
	__fu1993__ZNSs4_Rep20_S_empty_rep_storageE @ 3771 DATA
	__fu1994__ZNSs4_Rep20_S_empty_rep_storageE @ 3772 DATA
	__fu1995__ZNSs4_Rep20_S_empty_rep_storageE @ 3773 DATA
	__fu1996__ZNSs4_Rep20_S_empty_rep_storageE @ 3774 DATA
	__fu1997__ZNSs4_Rep20_S_empty_rep_storageE @ 3775 DATA
	__fu1998__ZNSs4_Rep20_S_empty_rep_storageE @ 3776 DATA
	__fu1999__ZNSs4_Rep20_S_empty_rep_storageE @ 3777 DATA
	__fu199__ZNSs4_Rep20_S_empty_rep_storageE @ 3778 DATA
	__fu19__ZNSs4_Rep20_S_empty_rep_storageE @ 3779 DATA
	__fu1__ZNSs4_Rep20_S_empty_rep_storageE @ 3780 DATA
	__fu2000__ZNSs4_Rep20_S_empty_rep_storageE @ 3781 DATA
	__fu2001__ZNSs4_Rep20_S_empty_rep_storageE @ 3782 DATA
	__fu2002__ZNSs4_Rep20_S_empty_rep_storageE @ 3783 DATA
	__fu2003__ZNSs4_Rep20_S_empty_rep_storageE @ 3784 DATA
	__fu2004__ZNSs4_Rep20_S_empty_rep_storageE @ 3785 DATA
	__fu2005__ZNSs4_Rep20_S_empty_rep_storageE @ 3786 DATA
	__fu2006__ZNSs4_Rep20_S_empty_rep_storageE @ 3787 DATA
	__fu2007__ZNSs4_Rep20_S_empty_rep_storageE @ 3788 DATA
	__fu2008__ZNSs4_Rep20_S_empty_rep_storageE @ 3789 DATA
	__fu2009__ZNSs4_Rep20_S_empty_rep_storageE @ 3790 DATA
	__fu200__ZNSs4_Rep20_S_empty_rep_storageE @ 3791 DATA
	__fu2010__ZNSs4_Rep20_S_empty_rep_storageE @ 3792 DATA
	__fu2011__ZNSs4_Rep20_S_empty_rep_storageE @ 3793 DATA
	__fu2012__ZNSs4_Rep20_S_empty_rep_storageE @ 3794 DATA
	__fu2013__ZNSs4_Rep20_S_empty_rep_storageE @ 3795 DATA
	__fu2014__ZNSs4_Rep20_S_empty_rep_storageE @ 3796 DATA
	__fu2015__ZNSs4_Rep20_S_empty_rep_storageE @ 3797 DATA
	__fu2016__ZNSs4_Rep20_S_empty_rep_storageE @ 3798 DATA
	__fu2017__ZNSs4_Rep20_S_empty_rep_storageE @ 3799 DATA
	__fu2018__ZNSs4_Rep20_S_empty_rep_storageE @ 3800 DATA
	__fu2019__ZNSs4_Rep20_S_empty_rep_storageE @ 3801 DATA
	__fu201__ZNSs4_Rep20_S_empty_rep_storageE @ 3802 DATA
	__fu2020__ZNSs4_Rep20_S_empty_rep_storageE @ 3803 DATA
	__fu2021__ZNSs4_Rep20_S_empty_rep_storageE @ 3804 DATA
	__fu2022__ZNSs4_Rep20_S_empty_rep_storageE @ 3805 DATA
	__fu2023__ZNSs4_Rep20_S_empty_rep_storageE @ 3806 DATA
	__fu2024__ZNSs4_Rep20_S_empty_rep_storageE @ 3807 DATA
	__fu2025__ZNSs4_Rep20_S_empty_rep_storageE @ 3808 DATA
	__fu2026__ZNSs4_Rep20_S_empty_rep_storageE @ 3809 DATA
	__fu2027__ZNSs4_Rep20_S_empty_rep_storageE @ 3810 DATA
	__fu2028__ZNSs4_Rep20_S_empty_rep_storageE @ 3811 DATA
	__fu2029__ZNSs4_Rep20_S_empty_rep_storageE @ 3812 DATA
	__fu202__ZNSs4_Rep20_S_empty_rep_storageE @ 3813 DATA
	__fu2030__ZNSs4_Rep20_S_empty_rep_storageE @ 3814 DATA
	__fu2031__ZNSs4_Rep20_S_empty_rep_storageE @ 3815 DATA
	__fu2032__ZNSs4_Rep20_S_empty_rep_storageE @ 3816 DATA
	__fu2033__ZNSs4_Rep20_S_empty_rep_storageE @ 3817 DATA
	__fu2034__ZNSs4_Rep20_S_empty_rep_storageE @ 3818 DATA
	__fu2035__ZNSs4_Rep20_S_empty_rep_storageE @ 3819 DATA
	__fu2036__ZNSs4_Rep20_S_empty_rep_storageE @ 3820 DATA
	__fu2037__ZNSs4_Rep20_S_empty_rep_storageE @ 3821 DATA
	__fu2038__ZNSs4_Rep20_S_empty_rep_storageE @ 3822 DATA
	__fu2039__ZNSs4_Rep20_S_empty_rep_storageE @ 3823 DATA
	__fu203__ZNSs4_Rep20_S_empty_rep_storageE @ 3824 DATA
	__fu2040__ZNSs4_Rep20_S_empty_rep_storageE @ 3825 DATA
	__fu2041__ZNSs4_Rep20_S_empty_rep_storageE @ 3826 DATA
	__fu2042__ZNSs4_Rep20_S_empty_rep_storageE @ 3827 DATA
	__fu2043__ZNSs4_Rep20_S_empty_rep_storageE @ 3828 DATA
	__fu2044__ZNSs4_Rep20_S_empty_rep_storageE @ 3829 DATA
	__fu2045__ZNSs4_Rep20_S_empty_rep_storageE @ 3830 DATA
	__fu2046__ZNSs4_Rep20_S_empty_rep_storageE @ 3831 DATA
	__fu2047__ZNSs4_Rep20_S_empty_rep_storageE @ 3832 DATA
	__fu2048__ZNSs4_Rep20_S_empty_rep_storageE @ 3833 DATA
	__fu2049__ZNSs4_Rep20_S_empty_rep_storageE @ 3834 DATA
	__fu204__ZNSs4_Rep20_S_empty_rep_storageE @ 3835 DATA
	__fu2050__ZNSs4_Rep20_S_empty_rep_storageE @ 3836 DATA
	__fu2051__ZNSs4_Rep20_S_empty_rep_storageE @ 3837 DATA
	__fu2052__ZNSs4_Rep20_S_empty_rep_storageE @ 3838 DATA
	__fu2053__ZNSs4_Rep20_S_empty_rep_storageE @ 3839 DATA
	__fu2054__ZNSs4_Rep20_S_empty_rep_storageE @ 3840 DATA
	__fu2055__ZNSs4_Rep20_S_empty_rep_storageE @ 3841 DATA
	__fu2056__ZNSs4_Rep20_S_empty_rep_storageE @ 3842 DATA
	__fu2057__ZNSs4_Rep20_S_empty_rep_storageE @ 3843 DATA
	__fu2058__ZNSs4_Rep20_S_empty_rep_storageE @ 3844 DATA
	__fu2059__ZNSs4_Rep20_S_empty_rep_storageE @ 3845 DATA
	__fu205__ZNSs4_Rep20_S_empty_rep_storageE @ 3846 DATA
	__fu2060__ZNSs4_Rep20_S_empty_rep_storageE @ 3847 DATA
	__fu2061__ZNSs4_Rep20_S_empty_rep_storageE @ 3848 DATA
	__fu2062__ZNSs4_Rep20_S_empty_rep_storageE @ 3849 DATA
	__fu2063__ZNSs4_Rep20_S_empty_rep_storageE @ 3850 DATA
	__fu2064__ZNSs4_Rep20_S_empty_rep_storageE @ 3851 DATA
	__fu2065__ZNSs4_Rep20_S_empty_rep_storageE @ 3852 DATA
	__fu2066__ZNSs4_Rep20_S_empty_rep_storageE @ 3853 DATA
	__fu2067__ZNSs4_Rep20_S_empty_rep_storageE @ 3854 DATA
	__fu2068__ZNSs4_Rep20_S_empty_rep_storageE @ 3855 DATA
	__fu2069__ZNSs4_Rep20_S_empty_rep_storageE @ 3856 DATA
	__fu206__ZNSs4_Rep20_S_empty_rep_storageE @ 3857 DATA
	__fu2070__ZNSs4_Rep20_S_empty_rep_storageE @ 3858 DATA
	__fu2071__ZNSs4_Rep20_S_empty_rep_storageE @ 3859 DATA
	__fu2072__ZNSs4_Rep20_S_empty_rep_storageE @ 3860 DATA
	__fu2073__ZNSs4_Rep20_S_empty_rep_storageE @ 3861 DATA
	__fu2074__ZNSs4_Rep20_S_empty_rep_storageE @ 3862 DATA
	__fu2075__ZNSs4_Rep20_S_empty_rep_storageE @ 3863 DATA
	__fu2076__ZNSs4_Rep20_S_empty_rep_storageE @ 3864 DATA
	__fu2077__ZNSs4_Rep20_S_empty_rep_storageE @ 3865 DATA
	__fu2078__ZNSs4_Rep20_S_empty_rep_storageE @ 3866 DATA
	__fu2079__ZNSs4_Rep20_S_empty_rep_storageE @ 3867 DATA
	__fu207__ZNSs4_Rep20_S_empty_rep_storageE @ 3868 DATA
	__fu2080__ZNSs4_Rep20_S_empty_rep_storageE @ 3869 DATA
	__fu2081__ZNSs4_Rep20_S_empty_rep_storageE @ 3870 DATA
	__fu2082__ZNSs4_Rep20_S_empty_rep_storageE @ 3871 DATA
	__fu2083__ZNSs4_Rep20_S_empty_rep_storageE @ 3872 DATA
	__fu2084__ZNSs4_Rep20_S_empty_rep_storageE @ 3873 DATA
	__fu2085__ZNSs4_Rep20_S_empty_rep_storageE @ 3874 DATA
	__fu2086__ZNSs4_Rep20_S_empty_rep_storageE @ 3875 DATA
	__fu2087__ZNSs4_Rep20_S_empty_rep_storageE @ 3876 DATA
	__fu2088__ZNSs4_Rep20_S_empty_rep_storageE @ 3877 DATA
	__fu2089__ZNSs4_Rep20_S_empty_rep_storageE @ 3878 DATA
	__fu208__ZNSs4_Rep20_S_empty_rep_storageE @ 3879 DATA
	__fu2090__ZNSs4_Rep20_S_empty_rep_storageE @ 3880 DATA
	__fu2091__ZNSs4_Rep20_S_empty_rep_storageE @ 3881 DATA
	__fu2092__ZNSs4_Rep20_S_empty_rep_storageE @ 3882 DATA
	__fu2093__ZNSs4_Rep20_S_empty_rep_storageE @ 3883 DATA
	__fu2094__ZNSs4_Rep20_S_empty_rep_storageE @ 3884 DATA
	__fu2095__ZNSs4_Rep20_S_empty_rep_storageE @ 3885 DATA
	__fu2096__ZNSs4_Rep20_S_empty_rep_storageE @ 3886 DATA
	__fu2097__ZNSs4_Rep20_S_empty_rep_storageE @ 3887 DATA
	__fu2098__ZNSs4_Rep20_S_empty_rep_storageE @ 3888 DATA
	__fu2099__ZNSs4_Rep20_S_empty_rep_storageE @ 3889 DATA
	__fu209__ZNSs4_Rep20_S_empty_rep_storageE @ 3890 DATA
	__fu20__ZNSs4_Rep20_S_empty_rep_storageE @ 3891 DATA
	__fu2100__ZNSs4_Rep20_S_empty_rep_storageE @ 3892 DATA
	__fu2101__ZNSs4_Rep20_S_empty_rep_storageE @ 3893 DATA
	__fu2102__ZNSs4_Rep20_S_empty_rep_storageE @ 3894 DATA
	__fu2103__ZNSs4_Rep20_S_empty_rep_storageE @ 3895 DATA
	__fu2104__ZNSs4_Rep20_S_empty_rep_storageE @ 3896 DATA
	__fu2105__ZNSs4_Rep20_S_empty_rep_storageE @ 3897 DATA
	__fu2106__ZNSs4_Rep20_S_empty_rep_storageE @ 3898 DATA
	__fu2107__ZNSs4_Rep20_S_empty_rep_storageE @ 3899 DATA
	__fu2108__ZNSs4_Rep20_S_empty_rep_storageE @ 3900 DATA
	__fu2109__ZNSs4_Rep20_S_empty_rep_storageE @ 3901 DATA
	__fu210__ZNSs4_Rep20_S_empty_rep_storageE @ 3902 DATA
	__fu2110__ZNSs4_Rep20_S_empty_rep_storageE @ 3903 DATA
	__fu2111__ZNSs4_Rep20_S_empty_rep_storageE @ 3904 DATA
	__fu2112__ZNSs4_Rep20_S_empty_rep_storageE @ 3905 DATA
	__fu2113__ZNSs4_Rep20_S_empty_rep_storageE @ 3906 DATA
	__fu2114__ZNSs4_Rep20_S_empty_rep_storageE @ 3907 DATA
	__fu2115__ZNSs4_Rep20_S_empty_rep_storageE @ 3908 DATA
	__fu2116__ZNSs4_Rep20_S_empty_rep_storageE @ 3909 DATA
	__fu2117__ZNSs4_Rep20_S_empty_rep_storageE @ 3910 DATA
	__fu2118__ZNSs4_Rep20_S_empty_rep_storageE @ 3911 DATA
	__fu2119__ZNSs4_Rep20_S_empty_rep_storageE @ 3912 DATA
	__fu211__ZNSs4_Rep20_S_empty_rep_storageE @ 3913 DATA
	__fu2120__ZNSs4_Rep20_S_empty_rep_storageE @ 3914 DATA
	__fu2121__ZNSs4_Rep20_S_empty_rep_storageE @ 3915 DATA
	__fu2122__ZNSs4_Rep20_S_empty_rep_storageE @ 3916 DATA
	__fu2123__ZNSs4_Rep20_S_empty_rep_storageE @ 3917 DATA
	__fu2124__ZNSs4_Rep20_S_empty_rep_storageE @ 3918 DATA
	__fu2125__ZNSs4_Rep20_S_empty_rep_storageE @ 3919 DATA
	__fu2126__ZNSs4_Rep20_S_empty_rep_storageE @ 3920 DATA
	__fu2127__ZNSs4_Rep20_S_empty_rep_storageE @ 3921 DATA
	__fu2128__ZNSs4_Rep20_S_empty_rep_storageE @ 3922 DATA
	__fu2129__ZNSs4_Rep20_S_empty_rep_storageE @ 3923 DATA
	__fu212__ZNSs4_Rep20_S_empty_rep_storageE @ 3924 DATA
	__fu2130__ZNSs4_Rep20_S_empty_rep_storageE @ 3925 DATA
	__fu2131__ZNSs4_Rep20_S_empty_rep_storageE @ 3926 DATA
	__fu2132__ZNSs4_Rep20_S_empty_rep_storageE @ 3927 DATA
	__fu2133__ZNSs4_Rep20_S_empty_rep_storageE @ 3928 DATA
	__fu2134__ZNSs4_Rep20_S_empty_rep_storageE @ 3929 DATA
	__fu2135__ZNSs4_Rep20_S_empty_rep_storageE @ 3930 DATA
	__fu2136__ZNSs4_Rep20_S_empty_rep_storageE @ 3931 DATA
	__fu2137__ZNSs4_Rep20_S_empty_rep_storageE @ 3932 DATA
	__fu2138__ZNSs4_Rep20_S_empty_rep_storageE @ 3933 DATA
	__fu2139__ZNSs4_Rep20_S_empty_rep_storageE @ 3934 DATA
	__fu213__ZNSs4_Rep20_S_empty_rep_storageE @ 3935 DATA
	__fu2140__ZNSs4_Rep20_S_empty_rep_storageE @ 3936 DATA
	__fu2141__ZNSs4_Rep20_S_empty_rep_storageE @ 3937 DATA
	__fu2142__ZNSs4_Rep20_S_empty_rep_storageE @ 3938 DATA
	__fu2143__ZNSs4_Rep20_S_empty_rep_storageE @ 3939 DATA
	__fu2144__ZNSs4_Rep20_S_empty_rep_storageE @ 3940 DATA
	__fu2145__ZNSs4_Rep20_S_empty_rep_storageE @ 3941 DATA
	__fu2146__ZNSs4_Rep20_S_empty_rep_storageE @ 3942 DATA
	__fu2147__ZNSs4_Rep20_S_empty_rep_storageE @ 3943 DATA
	__fu2148__ZNSs4_Rep20_S_empty_rep_storageE @ 3944 DATA
	__fu2149__ZNSs4_Rep20_S_empty_rep_storageE @ 3945 DATA
	__fu214__ZNSs4_Rep20_S_empty_rep_storageE @ 3946 DATA
	__fu2150__ZNSs4_Rep20_S_empty_rep_storageE @ 3947 DATA
	__fu2151__ZNSs4_Rep20_S_empty_rep_storageE @ 3948 DATA
	__fu2152__ZNSs4_Rep20_S_empty_rep_storageE @ 3949 DATA
	__fu2153__ZNSs4_Rep20_S_empty_rep_storageE @ 3950 DATA
	__fu2154__ZNSs4_Rep20_S_empty_rep_storageE @ 3951 DATA
	__fu2155__ZNSs4_Rep20_S_empty_rep_storageE @ 3952 DATA
	__fu2156__ZNSs4_Rep20_S_empty_rep_storageE @ 3953 DATA
	__fu2157__ZNSs4_Rep20_S_empty_rep_storageE @ 3954 DATA
	__fu2158__ZNSs4_Rep20_S_empty_rep_storageE @ 3955 DATA
	__fu2159__ZNSs4_Rep20_S_empty_rep_storageE @ 3956 DATA
	__fu215__ZNSs4_Rep20_S_empty_rep_storageE @ 3957 DATA
	__fu2160__ZNSs4_Rep20_S_empty_rep_storageE @ 3958 DATA
	__fu2161__ZNSs4_Rep20_S_empty_rep_storageE @ 3959 DATA
	__fu2162__ZNSs4_Rep20_S_empty_rep_storageE @ 3960 DATA
	__fu2163__ZNSs4_Rep20_S_empty_rep_storageE @ 3961 DATA
	__fu2164__ZNSs4_Rep20_S_empty_rep_storageE @ 3962 DATA
	__fu2165__ZNSs4_Rep20_S_empty_rep_storageE @ 3963 DATA
	__fu2166__ZNSs4_Rep20_S_empty_rep_storageE @ 3964 DATA
	__fu2167__ZNSs4_Rep20_S_empty_rep_storageE @ 3965 DATA
	__fu2168__ZNSs4_Rep20_S_empty_rep_storageE @ 3966 DATA
	__fu2169__ZNSs4_Rep20_S_empty_rep_storageE @ 3967 DATA
	__fu216__ZNSs4_Rep20_S_empty_rep_storageE @ 3968 DATA
	__fu2170__ZNSs4_Rep20_S_empty_rep_storageE @ 3969 DATA
	__fu2171__ZNSs4_Rep20_S_empty_rep_storageE @ 3970 DATA
	__fu2172__ZNSs4_Rep20_S_empty_rep_storageE @ 3971 DATA
	__fu2173__ZNSs4_Rep20_S_empty_rep_storageE @ 3972 DATA
	__fu2174__ZNSs4_Rep20_S_empty_rep_storageE @ 3973 DATA
	__fu2175__ZNSs4_Rep20_S_empty_rep_storageE @ 3974 DATA
	__fu2176__ZNSs4_Rep20_S_empty_rep_storageE @ 3975 DATA
	__fu2177__ZNSs4_Rep20_S_empty_rep_storageE @ 3976 DATA
	__fu2178__ZNSs4_Rep20_S_empty_rep_storageE @ 3977 DATA
	__fu2179__ZNSs4_Rep20_S_empty_rep_storageE @ 3978 DATA
	__fu217__ZNSs4_Rep20_S_empty_rep_storageE @ 3979 DATA
	__fu2180__ZNSs4_Rep20_S_empty_rep_storageE @ 3980 DATA
	__fu2181__ZNSs4_Rep20_S_empty_rep_storageE @ 3981 DATA
	__fu2182__ZNSs4_Rep20_S_empty_rep_storageE @ 3982 DATA
	__fu2183__ZNSs4_Rep20_S_empty_rep_storageE @ 3983 DATA
	__fu2184__ZNSs4_Rep20_S_empty_rep_storageE @ 3984 DATA
	__fu2185__ZNSs4_Rep20_S_empty_rep_storageE @ 3985 DATA
	__fu2186__ZNSs4_Rep20_S_empty_rep_storageE @ 3986 DATA
	__fu2187__ZNSs4_Rep20_S_empty_rep_storageE @ 3987 DATA
	__fu2188__ZNSs4_Rep20_S_empty_rep_storageE @ 3988 DATA
	__fu2189__ZNSs4_Rep20_S_empty_rep_storageE @ 3989 DATA
	__fu218__ZNSs4_Rep20_S_empty_rep_storageE @ 3990 DATA
	__fu2190__ZNSs4_Rep20_S_empty_rep_storageE @ 3991 DATA
	__fu2191__ZNSs4_Rep20_S_empty_rep_storageE @ 3992 DATA
	__fu2192__ZNSs4_Rep20_S_empty_rep_storageE @ 3993 DATA
	__fu2193__ZNSs4_Rep20_S_empty_rep_storageE @ 3994 DATA
	__fu2194__ZNSs4_Rep20_S_empty_rep_storageE @ 3995 DATA
	__fu2195__ZNSs4_Rep20_S_empty_rep_storageE @ 3996 DATA
	__fu2196__ZNSs4_Rep20_S_empty_rep_storageE @ 3997 DATA
	__fu2197__ZNSs4_Rep20_S_empty_rep_storageE @ 3998 DATA
	__fu2198__ZNSs4_Rep20_S_empty_rep_storageE @ 3999 DATA
	__fu2199__ZNSs4_Rep20_S_empty_rep_storageE @ 4000 DATA
	__fu219__ZNSs4_Rep20_S_empty_rep_storageE @ 4001 DATA
	__fu21__ZNSs4_Rep20_S_empty_rep_storageE @ 4002 DATA
	__fu2200__ZNSs4_Rep20_S_empty_rep_storageE @ 4003 DATA
	__fu2201__ZNSs4_Rep20_S_empty_rep_storageE @ 4004 DATA
	__fu2202__ZNSs4_Rep20_S_empty_rep_storageE @ 4005 DATA
	__fu2203__ZNSs4_Rep20_S_empty_rep_storageE @ 4006 DATA
	__fu2204__ZNSs4_Rep20_S_empty_rep_storageE @ 4007 DATA
	__fu2205__ZNSs4_Rep20_S_empty_rep_storageE @ 4008 DATA
	__fu2206__ZNSs4_Rep20_S_empty_rep_storageE @ 4009 DATA
	__fu2207__ZNSs4_Rep20_S_empty_rep_storageE @ 4010 DATA
	__fu2208__ZNSs4_Rep20_S_empty_rep_storageE @ 4011 DATA
	__fu2209__ZNSs4_Rep20_S_empty_rep_storageE @ 4012 DATA
	__fu220__ZNSs4_Rep20_S_empty_rep_storageE @ 4013 DATA
	__fu2210__ZNSs4_Rep20_S_empty_rep_storageE @ 4014 DATA
	__fu2211__ZNSs4_Rep20_S_empty_rep_storageE @ 4015 DATA
	__fu2212__ZNSs4_Rep20_S_empty_rep_storageE @ 4016 DATA
	__fu2213__ZNSs4_Rep20_S_empty_rep_storageE @ 4017 DATA
	__fu2214__ZNSs4_Rep20_S_empty_rep_storageE @ 4018 DATA
	__fu2215__ZNSs4_Rep20_S_empty_rep_storageE @ 4019 DATA
	__fu2216__ZNSs4_Rep20_S_empty_rep_storageE @ 4020 DATA
	__fu2217__ZNSs4_Rep20_S_empty_rep_storageE @ 4021 DATA
	__fu2218__ZNSs4_Rep20_S_empty_rep_storageE @ 4022 DATA
	__fu2219__ZNSs4_Rep20_S_empty_rep_storageE @ 4023 DATA
	__fu221__ZNSs4_Rep20_S_empty_rep_storageE @ 4024 DATA
	__fu2220__ZNSs4_Rep20_S_empty_rep_storageE @ 4025 DATA
	__fu2221__ZNSs4_Rep20_S_empty_rep_storageE @ 4026 DATA
	__fu2222__ZNSs4_Rep20_S_empty_rep_storageE @ 4027 DATA
	__fu2223__ZNSs4_Rep20_S_empty_rep_storageE @ 4028 DATA
	__fu2224__ZNSs4_Rep20_S_empty_rep_storageE @ 4029 DATA
	__fu2225__ZNSs4_Rep20_S_empty_rep_storageE @ 4030 DATA
	__fu2226__ZNSs4_Rep20_S_empty_rep_storageE @ 4031 DATA
	__fu2227__ZNSs4_Rep20_S_empty_rep_storageE @ 4032 DATA
	__fu2228__ZNSs4_Rep20_S_empty_rep_storageE @ 4033 DATA
	__fu2229__ZNSs4_Rep20_S_empty_rep_storageE @ 4034 DATA
	__fu222__ZNSs4_Rep20_S_empty_rep_storageE @ 4035 DATA
	__fu2230__ZNSs4_Rep20_S_empty_rep_storageE @ 4036 DATA
	__fu2231__ZNSs4_Rep20_S_empty_rep_storageE @ 4037 DATA
	__fu2232__ZNSs4_Rep20_S_empty_rep_storageE @ 4038 DATA
	__fu2233__ZNSs4_Rep20_S_empty_rep_storageE @ 4039 DATA
	__fu2234__ZNSs4_Rep20_S_empty_rep_storageE @ 4040 DATA
	__fu2235__ZNSs4_Rep20_S_empty_rep_storageE @ 4041 DATA
	__fu2236__ZNSs4_Rep20_S_empty_rep_storageE @ 4042 DATA
	__fu2237__ZNSs4_Rep20_S_empty_rep_storageE @ 4043 DATA
	__fu2238__ZNSs4_Rep20_S_empty_rep_storageE @ 4044 DATA
	__fu2239__ZNSs4_Rep20_S_empty_rep_storageE @ 4045 DATA
	__fu223__ZNSs4_Rep20_S_empty_rep_storageE @ 4046 DATA
	__fu2240__ZNSs4_Rep20_S_empty_rep_storageE @ 4047 DATA
	__fu2241__ZNSs4_Rep20_S_empty_rep_storageE @ 4048 DATA
	__fu2242__ZNSs4_Rep20_S_empty_rep_storageE @ 4049 DATA
	__fu2243__ZNSs4_Rep20_S_empty_rep_storageE @ 4050 DATA
	__fu2244__ZNSs4_Rep20_S_empty_rep_storageE @ 4051 DATA
	__fu2245__ZNSs4_Rep20_S_empty_rep_storageE @ 4052 DATA
	__fu2246__ZNSs4_Rep20_S_empty_rep_storageE @ 4053 DATA
	__fu2247__ZNSs4_Rep20_S_empty_rep_storageE @ 4054 DATA
	__fu2248__ZNSs4_Rep20_S_empty_rep_storageE @ 4055 DATA
	__fu2249__ZNSs4_Rep20_S_empty_rep_storageE @ 4056 DATA
	__fu224__ZNSs4_Rep20_S_empty_rep_storageE @ 4057 DATA
	__fu2250__ZNSs4_Rep20_S_empty_rep_storageE @ 4058 DATA
	__fu2251__ZNSs4_Rep20_S_empty_rep_storageE @ 4059 DATA
	__fu2252__ZNSs4_Rep20_S_empty_rep_storageE @ 4060 DATA
	__fu2253__ZNSs4_Rep20_S_empty_rep_storageE @ 4061 DATA
	__fu2254__ZNSs4_Rep20_S_empty_rep_storageE @ 4062 DATA
	__fu2255__ZNSs4_Rep20_S_empty_rep_storageE @ 4063 DATA
	__fu2256__ZNSs4_Rep20_S_empty_rep_storageE @ 4064 DATA
	__fu2257__ZNSs4_Rep20_S_empty_rep_storageE @ 4065 DATA
	__fu2258__ZNSs4_Rep20_S_empty_rep_storageE @ 4066 DATA
	__fu2259__ZNSs4_Rep20_S_empty_rep_storageE @ 4067 DATA
	__fu225__ZNSs4_Rep20_S_empty_rep_storageE @ 4068 DATA
	__fu2260__ZNSs4_Rep20_S_empty_rep_storageE @ 4069 DATA
	__fu2261__ZNSs4_Rep20_S_empty_rep_storageE @ 4070 DATA
	__fu2262__ZNSs4_Rep20_S_empty_rep_storageE @ 4071 DATA
	__fu2263__ZNSs4_Rep20_S_empty_rep_storageE @ 4072 DATA
	__fu2264__ZNSs4_Rep20_S_empty_rep_storageE @ 4073 DATA
	__fu2265__ZNSs4_Rep20_S_empty_rep_storageE @ 4074 DATA
	__fu2266__ZNSs4_Rep20_S_empty_rep_storageE @ 4075 DATA
	__fu2267__ZNSs4_Rep20_S_empty_rep_storageE @ 4076 DATA
	__fu2268__ZNSs4_Rep20_S_empty_rep_storageE @ 4077 DATA
	__fu2269__ZNSs4_Rep20_S_empty_rep_storageE @ 4078 DATA
	__fu226__ZNSs4_Rep20_S_empty_rep_storageE @ 4079 DATA
	__fu2270__ZNSs4_Rep20_S_empty_rep_storageE @ 4080 DATA
	__fu2271__ZNSs4_Rep20_S_empty_rep_storageE @ 4081 DATA
	__fu2272__ZNSs4_Rep20_S_empty_rep_storageE @ 4082 DATA
	__fu2273__ZNSs4_Rep20_S_empty_rep_storageE @ 4083 DATA
	__fu2274__ZNSs4_Rep20_S_empty_rep_storageE @ 4084 DATA
	__fu2275__ZNSs4_Rep20_S_empty_rep_storageE @ 4085 DATA
	__fu2276__ZNSs4_Rep20_S_empty_rep_storageE @ 4086 DATA
	__fu2277__ZNSs4_Rep20_S_empty_rep_storageE @ 4087 DATA
	__fu2278__ZNSs4_Rep20_S_empty_rep_storageE @ 4088 DATA
	__fu2279__ZNSs4_Rep20_S_empty_rep_storageE @ 4089 DATA
	__fu227__ZNSs4_Rep20_S_empty_rep_storageE @ 4090 DATA
	__fu2280__ZNSs4_Rep20_S_empty_rep_storageE @ 4091 DATA
	__fu2281__ZNSs4_Rep20_S_empty_rep_storageE @ 4092 DATA
	__fu2282__ZNSs4_Rep20_S_empty_rep_storageE @ 4093 DATA
	__fu2283__ZNSs4_Rep20_S_empty_rep_storageE @ 4094 DATA
	__fu2284__ZNSs4_Rep20_S_empty_rep_storageE @ 4095 DATA
	__fu2285__ZNSs4_Rep20_S_empty_rep_storageE @ 4096 DATA
	__fu2286__ZNSs4_Rep20_S_empty_rep_storageE @ 4097 DATA
	__fu2287__ZNSs4_Rep20_S_empty_rep_storageE @ 4098 DATA
	__fu2288__ZNSs4_Rep20_S_empty_rep_storageE @ 4099 DATA
	__fu2289__ZNSs4_Rep20_S_empty_rep_storageE @ 4100 DATA
	__fu228__ZNSs4_Rep20_S_empty_rep_storageE @ 4101 DATA
	__fu2290__ZNSs4_Rep20_S_empty_rep_storageE @ 4102 DATA
	__fu2291__ZNSs4_Rep20_S_empty_rep_storageE @ 4103 DATA
	__fu2292__ZNSs4_Rep20_S_empty_rep_storageE @ 4104 DATA
	__fu2293__ZNSs4_Rep20_S_empty_rep_storageE @ 4105 DATA
	__fu2294__ZNSs4_Rep20_S_empty_rep_storageE @ 4106 DATA
	__fu2295__ZNSs4_Rep20_S_empty_rep_storageE @ 4107 DATA
	__fu2296__ZNSs4_Rep20_S_empty_rep_storageE @ 4108 DATA
	__fu2297__ZNSs4_Rep20_S_empty_rep_storageE @ 4109 DATA
	__fu2298__ZNSs4_Rep20_S_empty_rep_storageE @ 4110 DATA
	__fu2299__ZNSs4_Rep20_S_empty_rep_storageE @ 4111 DATA
	__fu229__ZNSs4_Rep20_S_empty_rep_storageE @ 4112 DATA
	__fu22__ZNSs4_Rep20_S_empty_rep_storageE @ 4113 DATA
	__fu2300__ZNSs4_Rep20_S_empty_rep_storageE @ 4114 DATA
	__fu2301__ZNSs4_Rep20_S_empty_rep_storageE @ 4115 DATA
	__fu2302__ZNSs4_Rep20_S_empty_rep_storageE @ 4116 DATA
	__fu2303__ZNSs4_Rep20_S_empty_rep_storageE @ 4117 DATA
	__fu2304__ZNSs4_Rep20_S_empty_rep_storageE @ 4118 DATA
	__fu2305__ZNSs4_Rep20_S_empty_rep_storageE @ 4119 DATA
	__fu2306__ZNSs4_Rep20_S_empty_rep_storageE @ 4120 DATA
	__fu2307__ZNSs4_Rep20_S_empty_rep_storageE @ 4121 DATA
	__fu2308__ZNSs4_Rep20_S_empty_rep_storageE @ 4122 DATA
	__fu2309__ZNSs4_Rep20_S_empty_rep_storageE @ 4123 DATA
	__fu230__ZNSs4_Rep20_S_empty_rep_storageE @ 4124 DATA
	__fu2310__ZNSs4_Rep20_S_empty_rep_storageE @ 4125 DATA
	__fu2311__ZNSs4_Rep20_S_empty_rep_storageE @ 4126 DATA
	__fu2312__ZNSs4_Rep20_S_empty_rep_storageE @ 4127 DATA
	__fu2313__ZNSs4_Rep20_S_empty_rep_storageE @ 4128 DATA
	__fu2314__ZNSs4_Rep20_S_empty_rep_storageE @ 4129 DATA
	__fu2315__ZNSs4_Rep20_S_empty_rep_storageE @ 4130 DATA
	__fu2316__ZNSs4_Rep20_S_empty_rep_storageE @ 4131 DATA
	__fu2317__ZNSs4_Rep20_S_empty_rep_storageE @ 4132 DATA
	__fu2318__ZNSs4_Rep20_S_empty_rep_storageE @ 4133 DATA
	__fu2319__ZNSs4_Rep20_S_empty_rep_storageE @ 4134 DATA
	__fu231__ZNSs4_Rep20_S_empty_rep_storageE @ 4135 DATA
	__fu2320__ZNSs4_Rep20_S_empty_rep_storageE @ 4136 DATA
	__fu2321__ZNSs4_Rep20_S_empty_rep_storageE @ 4137 DATA
	__fu2322__ZNSs4_Rep20_S_empty_rep_storageE @ 4138 DATA
	__fu2323__ZNSs4_Rep20_S_empty_rep_storageE @ 4139 DATA
	__fu2324__ZNSs4_Rep20_S_empty_rep_storageE @ 4140 DATA
	__fu2325__ZNSs4_Rep20_S_empty_rep_storageE @ 4141 DATA
	__fu2326__ZNSs4_Rep20_S_empty_rep_storageE @ 4142 DATA
	__fu2327__ZNSs4_Rep20_S_empty_rep_storageE @ 4143 DATA
	__fu2328__ZNSs4_Rep20_S_empty_rep_storageE @ 4144 DATA
	__fu2329__ZNSs4_Rep20_S_empty_rep_storageE @ 4145 DATA
	__fu232__ZNSs4_Rep20_S_empty_rep_storageE @ 4146 DATA
	__fu2330__ZNSs4_Rep20_S_empty_rep_storageE @ 4147 DATA
	__fu2331__ZNSs4_Rep20_S_empty_rep_storageE @ 4148 DATA
	__fu2332__ZNSs4_Rep20_S_empty_rep_storageE @ 4149 DATA
	__fu2333__ZNSs4_Rep20_S_empty_rep_storageE @ 4150 DATA
	__fu2334__ZNSs4_Rep20_S_empty_rep_storageE @ 4151 DATA
	__fu2335__ZNSs4_Rep20_S_empty_rep_storageE @ 4152 DATA
	__fu2336__ZNSs4_Rep20_S_empty_rep_storageE @ 4153 DATA
	__fu2337__ZNSs4_Rep20_S_empty_rep_storageE @ 4154 DATA
	__fu2338__ZNSs4_Rep20_S_empty_rep_storageE @ 4155 DATA
	__fu2339__ZNSs4_Rep20_S_empty_rep_storageE @ 4156 DATA
	__fu233__ZNSs4_Rep20_S_empty_rep_storageE @ 4157 DATA
	__fu2340__ZNSs4_Rep20_S_empty_rep_storageE @ 4158 DATA
	__fu2341__ZNSs4_Rep20_S_empty_rep_storageE @ 4159 DATA
	__fu2342__ZNSs4_Rep20_S_empty_rep_storageE @ 4160 DATA
	__fu2343__ZNSs4_Rep20_S_empty_rep_storageE @ 4161 DATA
	__fu2344__ZNSs4_Rep20_S_empty_rep_storageE @ 4162 DATA
	__fu2345__ZNSs4_Rep20_S_empty_rep_storageE @ 4163 DATA
	__fu2346__ZNSs4_Rep20_S_empty_rep_storageE @ 4164 DATA
	__fu2347__ZNSs4_Rep20_S_empty_rep_storageE @ 4165 DATA
	__fu2348__ZNSs4_Rep20_S_empty_rep_storageE @ 4166 DATA
	__fu2349__ZNSs4_Rep20_S_empty_rep_storageE @ 4167 DATA
	__fu234__ZNSs4_Rep20_S_empty_rep_storageE @ 4168 DATA
	__fu2350__ZNSs4_Rep20_S_empty_rep_storageE @ 4169 DATA
	__fu2351__ZNSs4_Rep20_S_empty_rep_storageE @ 4170 DATA
	__fu2352__ZNSs4_Rep20_S_empty_rep_storageE @ 4171 DATA
	__fu2353__ZNSs4_Rep20_S_empty_rep_storageE @ 4172 DATA
	__fu2354__ZNSs4_Rep20_S_empty_rep_storageE @ 4173 DATA
	__fu2355__ZNSs4_Rep20_S_empty_rep_storageE @ 4174 DATA
	__fu2356__ZNSs4_Rep20_S_empty_rep_storageE @ 4175 DATA
	__fu2357__ZNSs4_Rep20_S_empty_rep_storageE @ 4176 DATA
	__fu2358__ZNSs4_Rep20_S_empty_rep_storageE @ 4177 DATA
	__fu2359__ZNSs4_Rep20_S_empty_rep_storageE @ 4178 DATA
	__fu235__ZNSs4_Rep20_S_empty_rep_storageE @ 4179 DATA
	__fu2360__ZNSs4_Rep20_S_empty_rep_storageE @ 4180 DATA
	__fu2361__ZNSs4_Rep20_S_empty_rep_storageE @ 4181 DATA
	__fu2362__ZNSs4_Rep20_S_empty_rep_storageE @ 4182 DATA
	__fu2363__ZNSs4_Rep20_S_empty_rep_storageE @ 4183 DATA
	__fu2364__ZNSs4_Rep20_S_empty_rep_storageE @ 4184 DATA
	__fu2365__ZNSs4_Rep20_S_empty_rep_storageE @ 4185 DATA
	__fu2366__ZNSs4_Rep20_S_empty_rep_storageE @ 4186 DATA
	__fu2367__ZNSs4_Rep20_S_empty_rep_storageE @ 4187 DATA
	__fu2368__ZNSs4_Rep20_S_empty_rep_storageE @ 4188 DATA
	__fu2369__ZNSs4_Rep20_S_empty_rep_storageE @ 4189 DATA
	__fu236__ZNSs4_Rep20_S_empty_rep_storageE @ 4190 DATA
	__fu2370__ZNSs4_Rep20_S_empty_rep_storageE @ 4191 DATA
	__fu2371__ZNSs4_Rep20_S_empty_rep_storageE @ 4192 DATA
	__fu2372__ZNSs4_Rep20_S_empty_rep_storageE @ 4193 DATA
	__fu2373__ZNSs4_Rep20_S_empty_rep_storageE @ 4194 DATA
	__fu2374__ZNSs4_Rep20_S_empty_rep_storageE @ 4195 DATA
	__fu2375__ZNSs4_Rep20_S_empty_rep_storageE @ 4196 DATA
	__fu2376__ZNSs4_Rep20_S_empty_rep_storageE @ 4197 DATA
	__fu2377__ZNSs4_Rep20_S_empty_rep_storageE @ 4198 DATA
	__fu2378__ZNSs4_Rep20_S_empty_rep_storageE @ 4199 DATA
	__fu2379__ZNSs4_Rep20_S_empty_rep_storageE @ 4200 DATA
	__fu237__ZNSs4_Rep20_S_empty_rep_storageE @ 4201 DATA
	__fu2380__ZNSs4_Rep20_S_empty_rep_storageE @ 4202 DATA
	__fu2381__ZNSs4_Rep20_S_empty_rep_storageE @ 4203 DATA
	__fu2382__ZNSs4_Rep20_S_empty_rep_storageE @ 4204 DATA
	__fu2383__ZNSs4_Rep20_S_empty_rep_storageE @ 4205 DATA
	__fu2384__ZNSs4_Rep20_S_empty_rep_storageE @ 4206 DATA
	__fu2385__ZNSs4_Rep20_S_empty_rep_storageE @ 4207 DATA
	__fu2386__ZNSs4_Rep20_S_empty_rep_storageE @ 4208 DATA
	__fu2387__ZNSs4_Rep20_S_empty_rep_storageE @ 4209 DATA
	__fu2388__ZNSs4_Rep20_S_empty_rep_storageE @ 4210 DATA
	__fu2389__ZNSs4_Rep20_S_empty_rep_storageE @ 4211 DATA
	__fu238__ZNSs4_Rep20_S_empty_rep_storageE @ 4212 DATA
	__fu2390__ZNSs4_Rep20_S_empty_rep_storageE @ 4213 DATA
	__fu2391__ZNSs4_Rep20_S_empty_rep_storageE @ 4214 DATA
	__fu2392__ZNSs4_Rep20_S_empty_rep_storageE @ 4215 DATA
	__fu2393__ZNSs4_Rep20_S_empty_rep_storageE @ 4216 DATA
	__fu2394__ZNSs4_Rep20_S_empty_rep_storageE @ 4217 DATA
	__fu2395__ZNSs4_Rep20_S_empty_rep_storageE @ 4218 DATA
	__fu2396__ZNSs4_Rep20_S_empty_rep_storageE @ 4219 DATA
	__fu2397__ZNSs4_Rep20_S_empty_rep_storageE @ 4220 DATA
	__fu2398__ZNSs4_Rep20_S_empty_rep_storageE @ 4221 DATA
	__fu2399__ZNSs4_Rep20_S_empty_rep_storageE @ 4222 DATA
	__fu239__ZNSs4_Rep20_S_empty_rep_storageE @ 4223 DATA
	__fu23__ZNSs4_Rep20_S_empty_rep_storageE @ 4224 DATA
	__fu2400__ZNSs4_Rep20_S_empty_rep_storageE @ 4225 DATA
	__fu2401__ZNSs4_Rep20_S_empty_rep_storageE @ 4226 DATA
	__fu2402__ZNSs4_Rep20_S_empty_rep_storageE @ 4227 DATA
	__fu2403__ZNSs4_Rep20_S_empty_rep_storageE @ 4228 DATA
	__fu2404__ZNSs4_Rep20_S_empty_rep_storageE @ 4229 DATA
	__fu2405__ZNSs4_Rep20_S_empty_rep_storageE @ 4230 DATA
	__fu2406__ZNSs4_Rep20_S_empty_rep_storageE @ 4231 DATA
	__fu2407__ZNSs4_Rep20_S_empty_rep_storageE @ 4232 DATA
	__fu2408__ZNSs4_Rep20_S_empty_rep_storageE @ 4233 DATA
	__fu2409__ZNSs4_Rep20_S_empty_rep_storageE @ 4234 DATA
	__fu240__ZNSs4_Rep20_S_empty_rep_storageE @ 4235 DATA
	__fu2410__ZNSs4_Rep20_S_empty_rep_storageE @ 4236 DATA
	__fu2411__ZNSs4_Rep20_S_empty_rep_storageE @ 4237 DATA
	__fu2412__ZNSs4_Rep20_S_empty_rep_storageE @ 4238 DATA
	__fu2413__ZNSs4_Rep20_S_empty_rep_storageE @ 4239 DATA
	__fu2414__ZNSs4_Rep20_S_empty_rep_storageE @ 4240 DATA
	__fu2415__ZNSs4_Rep20_S_empty_rep_storageE @ 4241 DATA
	__fu2416__ZNSs4_Rep20_S_empty_rep_storageE @ 4242 DATA
	__fu2417__ZNSs4_Rep20_S_empty_rep_storageE @ 4243 DATA
	__fu2418__ZNSs4_Rep20_S_empty_rep_storageE @ 4244 DATA
	__fu2419__ZNSs4_Rep20_S_empty_rep_storageE @ 4245 DATA
	__fu241__ZNSs4_Rep20_S_empty_rep_storageE @ 4246 DATA
	__fu2420__ZNSs4_Rep20_S_empty_rep_storageE @ 4247 DATA
	__fu2421__ZNSs4_Rep20_S_empty_rep_storageE @ 4248 DATA
	__fu2422__ZNSs4_Rep20_S_empty_rep_storageE @ 4249 DATA
	__fu2423__ZNSs4_Rep20_S_empty_rep_storageE @ 4250 DATA
	__fu2424__ZNSs4_Rep20_S_empty_rep_storageE @ 4251 DATA
	__fu2425__ZNSs4_Rep20_S_empty_rep_storageE @ 4252 DATA
	__fu2426__ZNSs4_Rep20_S_empty_rep_storageE @ 4253 DATA
	__fu2427__ZNSs4_Rep20_S_empty_rep_storageE @ 4254 DATA
	__fu2428__ZNSs4_Rep20_S_empty_rep_storageE @ 4255 DATA
	__fu2429__ZNSs4_Rep20_S_empty_rep_storageE @ 4256 DATA
	__fu242__ZNSs4_Rep20_S_empty_rep_storageE @ 4257 DATA
	__fu2430__ZNSs4_Rep20_S_empty_rep_storageE @ 4258 DATA
	__fu2431__ZNSs4_Rep20_S_empty_rep_storageE @ 4259 DATA
	__fu2432__ZNSs4_Rep20_S_empty_rep_storageE @ 4260 DATA
	__fu2433__ZNSs4_Rep20_S_empty_rep_storageE @ 4261 DATA
	__fu2434__ZNSs4_Rep20_S_empty_rep_storageE @ 4262 DATA
	__fu2435__ZNSs4_Rep20_S_empty_rep_storageE @ 4263 DATA
	__fu2436__ZNSs4_Rep20_S_empty_rep_storageE @ 4264 DATA
	__fu2437__ZNSs4_Rep20_S_empty_rep_storageE @ 4265 DATA
	__fu2438__ZNSs4_Rep20_S_empty_rep_storageE @ 4266 DATA
	__fu2439__ZNSs4_Rep20_S_empty_rep_storageE @ 4267 DATA
	__fu243__ZNSs4_Rep20_S_empty_rep_storageE @ 4268 DATA
	__fu2440__ZNSs4_Rep20_S_empty_rep_storageE @ 4269 DATA
	__fu2441__ZNSs4_Rep20_S_empty_rep_storageE @ 4270 DATA
	__fu2442__ZNSs4_Rep20_S_empty_rep_storageE @ 4271 DATA
	__fu2443__ZNSs4_Rep20_S_empty_rep_storageE @ 4272 DATA
	__fu2444__ZNSs4_Rep20_S_empty_rep_storageE @ 4273 DATA
	__fu2445__ZNSs4_Rep20_S_empty_rep_storageE @ 4274 DATA
	__fu2446__ZNSs4_Rep20_S_empty_rep_storageE @ 4275 DATA
	__fu2447__ZNSs4_Rep20_S_empty_rep_storageE @ 4276 DATA
	__fu2448__ZNSs4_Rep20_S_empty_rep_storageE @ 4277 DATA
	__fu2449__ZNSs4_Rep20_S_empty_rep_storageE @ 4278 DATA
	__fu244__ZNSs4_Rep20_S_empty_rep_storageE @ 4279 DATA
	__fu2450__ZNSs4_Rep20_S_empty_rep_storageE @ 4280 DATA
	__fu2451__ZNSs4_Rep20_S_empty_rep_storageE @ 4281 DATA
	__fu2452__ZNSs4_Rep20_S_empty_rep_storageE @ 4282 DATA
	__fu2453__ZNSs4_Rep20_S_empty_rep_storageE @ 4283 DATA
	__fu2454__ZNSs4_Rep20_S_empty_rep_storageE @ 4284 DATA
	__fu2455__ZNSs4_Rep20_S_empty_rep_storageE @ 4285 DATA
	__fu2456__ZNSs4_Rep20_S_empty_rep_storageE @ 4286 DATA
	__fu2457__ZNSs4_Rep20_S_empty_rep_storageE @ 4287 DATA
	__fu2458__ZNSs4_Rep20_S_empty_rep_storageE @ 4288 DATA
	__fu2459__ZNSs4_Rep20_S_empty_rep_storageE @ 4289 DATA
	__fu245__ZNSs4_Rep20_S_empty_rep_storageE @ 4290 DATA
	__fu2460__ZNSs4_Rep20_S_empty_rep_storageE @ 4291 DATA
	__fu2461__ZNSs4_Rep20_S_empty_rep_storageE @ 4292 DATA
	__fu2462__ZNSs4_Rep20_S_empty_rep_storageE @ 4293 DATA
	__fu2463__ZNSs4_Rep20_S_empty_rep_storageE @ 4294 DATA
	__fu2464__ZNSs4_Rep20_S_empty_rep_storageE @ 4295 DATA
	__fu2465__ZNSs4_Rep20_S_empty_rep_storageE @ 4296 DATA
	__fu2466__ZNSs4_Rep20_S_empty_rep_storageE @ 4297 DATA
	__fu2467__ZNSs4_Rep20_S_empty_rep_storageE @ 4298 DATA
	__fu2468__ZNSs4_Rep20_S_empty_rep_storageE @ 4299 DATA
	__fu2469__ZNSs4_Rep20_S_empty_rep_storageE @ 4300 DATA
	__fu246__ZNSs4_Rep20_S_empty_rep_storageE @ 4301 DATA
	__fu2470__ZNSs4_Rep20_S_empty_rep_storageE @ 4302 DATA
	__fu2471__ZNSs4_Rep20_S_empty_rep_storageE @ 4303 DATA
	__fu2472__ZNSs4_Rep20_S_empty_rep_storageE @ 4304 DATA
	__fu2473__ZNSs4_Rep20_S_empty_rep_storageE @ 4305 DATA
	__fu2474__ZNSs4_Rep20_S_empty_rep_storageE @ 4306 DATA
	__fu2475__ZNSs4_Rep20_S_empty_rep_storageE @ 4307 DATA
	__fu2476__ZNSs4_Rep20_S_empty_rep_storageE @ 4308 DATA
	__fu2477__ZNSs4_Rep20_S_empty_rep_storageE @ 4309 DATA
	__fu2478__ZNSs4_Rep20_S_empty_rep_storageE @ 4310 DATA
	__fu2479__ZNSs4_Rep20_S_empty_rep_storageE @ 4311 DATA
	__fu247__ZNSs4_Rep20_S_empty_rep_storageE @ 4312 DATA
	__fu2480__ZNSs4_Rep20_S_empty_rep_storageE @ 4313 DATA
	__fu2481__ZNSs4_Rep20_S_empty_rep_storageE @ 4314 DATA
	__fu2482__ZNSs4_Rep20_S_empty_rep_storageE @ 4315 DATA
	__fu2483__ZNSs4_Rep20_S_empty_rep_storageE @ 4316 DATA
	__fu2484__ZNSs4_Rep20_S_empty_rep_storageE @ 4317 DATA
	__fu2485__ZNSs4_Rep20_S_empty_rep_storageE @ 4318 DATA
	__fu2486__ZNSs4_Rep20_S_empty_rep_storageE @ 4319 DATA
	__fu2487__ZNSs4_Rep20_S_empty_rep_storageE @ 4320 DATA
	__fu2488__ZNSs4_Rep20_S_empty_rep_storageE @ 4321 DATA
	__fu2489__ZNSs4_Rep20_S_empty_rep_storageE @ 4322 DATA
	__fu248__ZNSs4_Rep20_S_empty_rep_storageE @ 4323 DATA
	__fu2490__ZNSs4_Rep20_S_empty_rep_storageE @ 4324 DATA
	__fu2491__ZNSs4_Rep20_S_empty_rep_storageE @ 4325 DATA
	__fu2492__ZNSs4_Rep20_S_empty_rep_storageE @ 4326 DATA
	__fu2493__ZNSs4_Rep20_S_empty_rep_storageE @ 4327 DATA
	__fu2494__ZNSs4_Rep20_S_empty_rep_storageE @ 4328 DATA
	__fu2495__ZNSs4_Rep20_S_empty_rep_storageE @ 4329 DATA
	__fu2496__ZNSs4_Rep20_S_empty_rep_storageE @ 4330 DATA
	__fu2497__ZNSs4_Rep20_S_empty_rep_storageE @ 4331 DATA
	__fu2498__ZNSs4_Rep20_S_empty_rep_storageE @ 4332 DATA
	__fu2499__ZNSs4_Rep20_S_empty_rep_storageE @ 4333 DATA
	__fu249__ZNSs4_Rep20_S_empty_rep_storageE @ 4334 DATA
	__fu24__ZNSs4_Rep20_S_empty_rep_storageE @ 4335 DATA
	__fu2500__ZNSs4_Rep20_S_empty_rep_storageE @ 4336 DATA
	__fu2501__ZNSs4_Rep20_S_empty_rep_storageE @ 4337 DATA
	__fu2502__ZNSs4_Rep20_S_empty_rep_storageE @ 4338 DATA
	__fu2503__ZNSs4_Rep20_S_empty_rep_storageE @ 4339 DATA
	__fu2504__ZNSs4_Rep20_S_empty_rep_storageE @ 4340 DATA
	__fu2505__ZNSs4_Rep20_S_empty_rep_storageE @ 4341 DATA
	__fu2506__ZNSs4_Rep20_S_empty_rep_storageE @ 4342 DATA
	__fu2507__ZNSs4_Rep20_S_empty_rep_storageE @ 4343 DATA
	__fu2508__ZNSs4_Rep20_S_empty_rep_storageE @ 4344 DATA
	__fu2509__ZNSs4_Rep20_S_empty_rep_storageE @ 4345 DATA
	__fu250__ZNSs4_Rep20_S_empty_rep_storageE @ 4346 DATA
	__fu2510__ZNSs4_Rep20_S_empty_rep_storageE @ 4347 DATA
	__fu2511__ZNSs4_Rep20_S_empty_rep_storageE @ 4348 DATA
	__fu2512__ZNSs4_Rep20_S_empty_rep_storageE @ 4349 DATA
	__fu2513__ZNSs4_Rep20_S_empty_rep_storageE @ 4350 DATA
	__fu2514__ZNSs4_Rep20_S_empty_rep_storageE @ 4351 DATA
	__fu2515__ZNSs4_Rep20_S_empty_rep_storageE @ 4352 DATA
	__fu2516__ZNSs4_Rep20_S_empty_rep_storageE @ 4353 DATA
	__fu2517__ZNSs4_Rep20_S_empty_rep_storageE @ 4354 DATA
	__fu2518__ZNSs4_Rep20_S_empty_rep_storageE @ 4355 DATA
	__fu2519__ZNSs4_Rep20_S_empty_rep_storageE @ 4356 DATA
	__fu251__ZNSs4_Rep20_S_empty_rep_storageE @ 4357 DATA
	__fu2520__ZNSs4_Rep20_S_empty_rep_storageE @ 4358 DATA
	__fu2521__ZNSs4_Rep20_S_empty_rep_storageE @ 4359 DATA
	__fu2522__ZNSs4_Rep20_S_empty_rep_storageE @ 4360 DATA
	__fu2523__ZNSs4_Rep20_S_empty_rep_storageE @ 4361 DATA
	__fu2524__ZNSs4_Rep20_S_empty_rep_storageE @ 4362 DATA
	__fu2525__ZNSs4_Rep20_S_empty_rep_storageE @ 4363 DATA
	__fu2526__ZNSs4_Rep20_S_empty_rep_storageE @ 4364 DATA
	__fu2527__ZNSs4_Rep20_S_empty_rep_storageE @ 4365 DATA
	__fu2528__ZNSs4_Rep20_S_empty_rep_storageE @ 4366 DATA
	__fu2529__ZNSs4_Rep20_S_empty_rep_storageE @ 4367 DATA
	__fu252__ZNSs4_Rep20_S_empty_rep_storageE @ 4368 DATA
	__fu2530__ZNSs4_Rep20_S_empty_rep_storageE @ 4369 DATA
	__fu2531__ZNSs4_Rep20_S_empty_rep_storageE @ 4370 DATA
	__fu2532__ZNSs4_Rep20_S_empty_rep_storageE @ 4371 DATA
	__fu2533__ZNSs4_Rep20_S_empty_rep_storageE @ 4372 DATA
	__fu2534__ZNSs4_Rep20_S_empty_rep_storageE @ 4373 DATA
	__fu2535__ZNSs4_Rep20_S_empty_rep_storageE @ 4374 DATA
	__fu2536__ZNSs4_Rep20_S_empty_rep_storageE @ 4375 DATA
	__fu2537__ZNSs4_Rep20_S_empty_rep_storageE @ 4376 DATA
	__fu2538__ZNSs4_Rep20_S_empty_rep_storageE @ 4377 DATA
	__fu2539__ZNSs4_Rep20_S_empty_rep_storageE @ 4378 DATA
	__fu253__ZNSs4_Rep20_S_empty_rep_storageE @ 4379 DATA
	__fu2540__ZNSs4_Rep20_S_empty_rep_storageE @ 4380 DATA
	__fu2541__ZNSs4_Rep20_S_empty_rep_storageE @ 4381 DATA
	__fu2542__ZNSs4_Rep20_S_empty_rep_storageE @ 4382 DATA
	__fu2543__ZNSs4_Rep20_S_empty_rep_storageE @ 4383 DATA
	__fu2544__ZNSs4_Rep20_S_empty_rep_storageE @ 4384 DATA
	__fu2545__ZNSs4_Rep20_S_empty_rep_storageE @ 4385 DATA
	__fu2546__ZNSs4_Rep20_S_empty_rep_storageE @ 4386 DATA
	__fu2547__ZNSs4_Rep20_S_empty_rep_storageE @ 4387 DATA
	__fu2548__ZNSs4_Rep20_S_empty_rep_storageE @ 4388 DATA
	__fu2549__ZNSs4_Rep20_S_empty_rep_storageE @ 4389 DATA
	__fu254__ZNSs4_Rep20_S_empty_rep_storageE @ 4390 DATA
	__fu2550__ZNSs4_Rep20_S_empty_rep_storageE @ 4391 DATA
	__fu2551__ZNSs4_Rep20_S_empty_rep_storageE @ 4392 DATA
	__fu2552__ZNSs4_Rep20_S_empty_rep_storageE @ 4393 DATA
	__fu2553__ZNSs4_Rep20_S_empty_rep_storageE @ 4394 DATA
	__fu2554__ZNSs4_Rep20_S_empty_rep_storageE @ 4395 DATA
	__fu2555__ZNSs4_Rep20_S_empty_rep_storageE @ 4396 DATA
	__fu2556__ZNSs4_Rep20_S_empty_rep_storageE @ 4397 DATA
	__fu2557__ZNSs4_Rep20_S_empty_rep_storageE @ 4398 DATA
	__fu2558__ZNSs4_Rep20_S_empty_rep_storageE @ 4399 DATA
	__fu2559__ZNSs4_Rep20_S_empty_rep_storageE @ 4400 DATA
	__fu255__ZNSs4_Rep20_S_empty_rep_storageE @ 4401 DATA
	__fu2560__ZNSs4_Rep20_S_empty_rep_storageE @ 4402 DATA
	__fu2561__ZNSs4_Rep20_S_empty_rep_storageE @ 4403 DATA
	__fu2562__ZNSs4_Rep20_S_empty_rep_storageE @ 4404 DATA
	__fu2563__ZNSs4_Rep20_S_empty_rep_storageE @ 4405 DATA
	__fu2564__ZNSs4_Rep20_S_empty_rep_storageE @ 4406 DATA
	__fu2565__ZNSs4_Rep20_S_empty_rep_storageE @ 4407 DATA
	__fu2566__ZNSs4_Rep20_S_empty_rep_storageE @ 4408 DATA
	__fu2567__ZNSs4_Rep20_S_empty_rep_storageE @ 4409 DATA
	__fu2568__ZNSs4_Rep20_S_empty_rep_storageE @ 4410 DATA
	__fu2569__ZNSs4_Rep20_S_empty_rep_storageE @ 4411 DATA
	__fu256__ZNSs4_Rep20_S_empty_rep_storageE @ 4412 DATA
	__fu2570__ZNSs4_Rep20_S_empty_rep_storageE @ 4413 DATA
	__fu2571__ZNSs4_Rep20_S_empty_rep_storageE @ 4414 DATA
	__fu2572__ZNSs4_Rep20_S_empty_rep_storageE @ 4415 DATA
	__fu2573__ZNSs4_Rep20_S_empty_rep_storageE @ 4416 DATA
	__fu2574__ZNSs4_Rep20_S_empty_rep_storageE @ 4417 DATA
	__fu2575__ZNSs4_Rep20_S_empty_rep_storageE @ 4418 DATA
	__fu2576__ZNSs4_Rep20_S_empty_rep_storageE @ 4419 DATA
	__fu2577__ZNSs4_Rep20_S_empty_rep_storageE @ 4420 DATA
	__fu2578__ZNSs4_Rep20_S_empty_rep_storageE @ 4421 DATA
	__fu2579__ZNSs4_Rep20_S_empty_rep_storageE @ 4422 DATA
	__fu257__ZNSs4_Rep20_S_empty_rep_storageE @ 4423 DATA
	__fu2580__ZNSs4_Rep20_S_empty_rep_storageE @ 4424 DATA
	__fu2581__ZNSs4_Rep20_S_empty_rep_storageE @ 4425 DATA
	__fu2582__ZNSs4_Rep20_S_empty_rep_storageE @ 4426 DATA
	__fu2583__ZNSs4_Rep20_S_empty_rep_storageE @ 4427 DATA
	__fu2584__ZNSs4_Rep20_S_empty_rep_storageE @ 4428 DATA
	__fu2585__ZNSs4_Rep20_S_empty_rep_storageE @ 4429 DATA
	__fu2586__ZNSs4_Rep20_S_empty_rep_storageE @ 4430 DATA
	__fu2587__ZNSs4_Rep20_S_empty_rep_storageE @ 4431 DATA
	__fu2588__ZNSs4_Rep20_S_empty_rep_storageE @ 4432 DATA
	__fu2589__ZNSs4_Rep20_S_empty_rep_storageE @ 4433 DATA
	__fu258__ZNSs4_Rep20_S_empty_rep_storageE @ 4434 DATA
	__fu2590__ZNSs4_Rep20_S_empty_rep_storageE @ 4435 DATA
	__fu2591__ZNSs4_Rep20_S_empty_rep_storageE @ 4436 DATA
	__fu2592__ZNSs4_Rep20_S_empty_rep_storageE @ 4437 DATA
	__fu2593__ZNSs4_Rep20_S_empty_rep_storageE @ 4438 DATA
	__fu2594__ZNSs4_Rep20_S_empty_rep_storageE @ 4439 DATA
	__fu2595__ZNSs4_Rep20_S_empty_rep_storageE @ 4440 DATA
	__fu2596__ZNSs4_Rep20_S_empty_rep_storageE @ 4441 DATA
	__fu2597__ZNSs4_Rep20_S_empty_rep_storageE @ 4442 DATA
	__fu2598__ZNSs4_Rep20_S_empty_rep_storageE @ 4443 DATA
	__fu2599__ZNSs4_Rep20_S_empty_rep_storageE @ 4444 DATA
	__fu259__ZNSs4_Rep20_S_empty_rep_storageE @ 4445 DATA
	__fu25__ZNSs4_Rep20_S_empty_rep_storageE @ 4446 DATA
	__fu2600__ZNSs4_Rep20_S_empty_rep_storageE @ 4447 DATA
	__fu2601__ZNSs4_Rep20_S_empty_rep_storageE @ 4448 DATA
	__fu2602__ZNSs4_Rep20_S_empty_rep_storageE @ 4449 DATA
	__fu2603__ZNSs4_Rep20_S_empty_rep_storageE @ 4450 DATA
	__fu2604__ZNSs4_Rep20_S_empty_rep_storageE @ 4451 DATA
	__fu2605__ZNSs4_Rep20_S_empty_rep_storageE @ 4452 DATA
	__fu2606__ZNSs4_Rep20_S_empty_rep_storageE @ 4453 DATA
	__fu2607__ZNSs4_Rep20_S_empty_rep_storageE @ 4454 DATA
	__fu2608__ZNSs4_Rep20_S_empty_rep_storageE @ 4455 DATA
	__fu2609__ZNSs4_Rep20_S_empty_rep_storageE @ 4456 DATA
	__fu260__ZNSs4_Rep20_S_empty_rep_storageE @ 4457 DATA
	__fu2610__ZNSs4_Rep20_S_empty_rep_storageE @ 4458 DATA
	__fu2611__ZNSs4_Rep20_S_empty_rep_storageE @ 4459 DATA
	__fu2612__ZNSs4_Rep20_S_empty_rep_storageE @ 4460 DATA
	__fu2613__ZNSs4_Rep20_S_empty_rep_storageE @ 4461 DATA
	__fu2614__ZNSs4_Rep20_S_empty_rep_storageE @ 4462 DATA
	__fu2615__ZNSs4_Rep20_S_empty_rep_storageE @ 4463 DATA
	__fu2616__ZNSs4_Rep20_S_empty_rep_storageE @ 4464 DATA
	__fu2617__ZNSs4_Rep20_S_empty_rep_storageE @ 4465 DATA
	__fu2618__ZNSs4_Rep20_S_empty_rep_storageE @ 4466 DATA
	__fu2619__ZNSs4_Rep20_S_empty_rep_storageE @ 4467 DATA
	__fu261__ZNSs4_Rep20_S_empty_rep_storageE @ 4468 DATA
	__fu2620__ZNSs4_Rep20_S_empty_rep_storageE @ 4469 DATA
	__fu2621__ZNSs4_Rep20_S_empty_rep_storageE @ 4470 DATA
	__fu2622__ZNSs4_Rep20_S_empty_rep_storageE @ 4471 DATA
	__fu2623__ZNSs4_Rep20_S_empty_rep_storageE @ 4472 DATA
	__fu2624__ZNSs4_Rep20_S_empty_rep_storageE @ 4473 DATA
	__fu2625__ZNSs4_Rep20_S_empty_rep_storageE @ 4474 DATA
	__fu2626__ZNSs4_Rep20_S_empty_rep_storageE @ 4475 DATA
	__fu2627__ZNSs4_Rep20_S_empty_rep_storageE @ 4476 DATA
	__fu2628__ZNSs4_Rep20_S_empty_rep_storageE @ 4477 DATA
	__fu2629__ZNSs4_Rep20_S_empty_rep_storageE @ 4478 DATA
	__fu262__ZNSs4_Rep20_S_empty_rep_storageE @ 4479 DATA
	__fu2630__ZNSs4_Rep20_S_empty_rep_storageE @ 4480 DATA
	__fu2631__ZNSs4_Rep20_S_empty_rep_storageE @ 4481 DATA
	__fu2632__ZNSs4_Rep20_S_empty_rep_storageE @ 4482 DATA
	__fu2633__ZNSs4_Rep20_S_empty_rep_storageE @ 4483 DATA
	__fu2634__ZNSs4_Rep20_S_empty_rep_storageE @ 4484 DATA
	__fu2635__ZNSs4_Rep20_S_empty_rep_storageE @ 4485 DATA
	__fu2636__ZNSs4_Rep20_S_empty_rep_storageE @ 4486 DATA
	__fu2637__ZNSs4_Rep20_S_empty_rep_storageE @ 4487 DATA
	__fu2638__ZNSs4_Rep20_S_empty_rep_storageE @ 4488 DATA
	__fu2639__ZNSs4_Rep20_S_empty_rep_storageE @ 4489 DATA
	__fu263__ZNSs4_Rep20_S_empty_rep_storageE @ 4490 DATA
	__fu2640__ZNSs4_Rep20_S_empty_rep_storageE @ 4491 DATA
	__fu2641__ZNSs4_Rep20_S_empty_rep_storageE @ 4492 DATA
	__fu2642__ZNSs4_Rep20_S_empty_rep_storageE @ 4493 DATA
	__fu2643__ZNSs4_Rep20_S_empty_rep_storageE @ 4494 DATA
	__fu2644__ZNSs4_Rep20_S_empty_rep_storageE @ 4495 DATA
	__fu2645__ZNSs4_Rep20_S_empty_rep_storageE @ 4496 DATA
	__fu2646__ZNSs4_Rep20_S_empty_rep_storageE @ 4497 DATA
	__fu2647__ZNSs4_Rep20_S_empty_rep_storageE @ 4498 DATA
	__fu2648__ZNSs4_Rep20_S_empty_rep_storageE @ 4499 DATA
	__fu2649__ZNSs4_Rep20_S_empty_rep_storageE @ 4500 DATA
	__fu264__ZNSs4_Rep20_S_empty_rep_storageE @ 4501 DATA
	__fu2650__ZNSs4_Rep20_S_empty_rep_storageE @ 4502 DATA
	__fu2651__ZNSs4_Rep20_S_empty_rep_storageE @ 4503 DATA
	__fu2652__ZNSs4_Rep20_S_empty_rep_storageE @ 4504 DATA
	__fu2653__ZNSs4_Rep20_S_empty_rep_storageE @ 4505 DATA
	__fu2654__ZNSs4_Rep20_S_empty_rep_storageE @ 4506 DATA
	__fu2655__ZNSs4_Rep20_S_empty_rep_storageE @ 4507 DATA
	__fu2656__ZNSs4_Rep20_S_empty_rep_storageE @ 4508 DATA
	__fu2657__ZNSs4_Rep20_S_empty_rep_storageE @ 4509 DATA
	__fu2658__ZNSs4_Rep20_S_empty_rep_storageE @ 4510 DATA
	__fu2659__ZNSs4_Rep20_S_empty_rep_storageE @ 4511 DATA
	__fu265__ZNSs4_Rep20_S_empty_rep_storageE @ 4512 DATA
	__fu2660__ZNSs4_Rep20_S_empty_rep_storageE @ 4513 DATA
	__fu2661__ZNSs4_Rep20_S_empty_rep_storageE @ 4514 DATA
	__fu2662__ZNSs4_Rep20_S_empty_rep_storageE @ 4515 DATA
	__fu2663__ZNSs4_Rep20_S_empty_rep_storageE @ 4516 DATA
	__fu2664__ZNSs4_Rep20_S_empty_rep_storageE @ 4517 DATA
	__fu2665__ZNSs4_Rep20_S_empty_rep_storageE @ 4518 DATA
	__fu2666__ZNSs4_Rep20_S_empty_rep_storageE @ 4519 DATA
	__fu2667__ZNSs4_Rep20_S_empty_rep_storageE @ 4520 DATA
	__fu2668__ZNSs4_Rep20_S_empty_rep_storageE @ 4521 DATA
	__fu2669__ZNSs4_Rep20_S_empty_rep_storageE @ 4522 DATA
	__fu266__ZNSs4_Rep20_S_empty_rep_storageE @ 4523 DATA
	__fu2670__ZNSs4_Rep20_S_empty_rep_storageE @ 4524 DATA
	__fu2671__ZNSs4_Rep20_S_empty_rep_storageE @ 4525 DATA
	__fu2672__ZNSs4_Rep20_S_empty_rep_storageE @ 4526 DATA
	__fu2673__ZNSs4_Rep20_S_empty_rep_storageE @ 4527 DATA
	__fu2674__ZNSs4_Rep20_S_empty_rep_storageE @ 4528 DATA
	__fu2675__ZNSs4_Rep20_S_empty_rep_storageE @ 4529 DATA
	__fu2676__ZNSs4_Rep20_S_empty_rep_storageE @ 4530 DATA
	__fu2677__ZNSs4_Rep20_S_empty_rep_storageE @ 4531 DATA
	__fu2678__ZNSs4_Rep20_S_empty_rep_storageE @ 4532 DATA
	__fu2679__ZNSs4_Rep20_S_empty_rep_storageE @ 4533 DATA
	__fu267__ZNSs4_Rep20_S_empty_rep_storageE @ 4534 DATA
	__fu2680__ZNSs4_Rep20_S_empty_rep_storageE @ 4535 DATA
	__fu2681__ZNSs4_Rep20_S_empty_rep_storageE @ 4536 DATA
	__fu2682__ZNSs4_Rep20_S_empty_rep_storageE @ 4537 DATA
	__fu2683__ZNSs4_Rep20_S_empty_rep_storageE @ 4538 DATA
	__fu2684__ZNSs4_Rep20_S_empty_rep_storageE @ 4539 DATA
	__fu2685__ZNSs4_Rep20_S_empty_rep_storageE @ 4540 DATA
	__fu2686__ZNSs4_Rep20_S_empty_rep_storageE @ 4541 DATA
	__fu2687__ZNSs4_Rep20_S_empty_rep_storageE @ 4542 DATA
	__fu2688__ZNSs4_Rep20_S_empty_rep_storageE @ 4543 DATA
	__fu2689__ZNSs4_Rep20_S_empty_rep_storageE @ 4544 DATA
	__fu268__ZNSs4_Rep20_S_empty_rep_storageE @ 4545 DATA
	__fu2690__ZNSs4_Rep20_S_empty_rep_storageE @ 4546 DATA
	__fu2691__ZNSs4_Rep20_S_empty_rep_storageE @ 4547 DATA
	__fu2692__ZNSs4_Rep20_S_empty_rep_storageE @ 4548 DATA
	__fu2693__ZNSs4_Rep20_S_empty_rep_storageE @ 4549 DATA
	__fu2694__ZNSs4_Rep20_S_empty_rep_storageE @ 4550 DATA
	__fu2695__ZNSs4_Rep20_S_empty_rep_storageE @ 4551 DATA
	__fu2696__ZNSs4_Rep20_S_empty_rep_storageE @ 4552 DATA
	__fu2697__ZNSs4_Rep20_S_empty_rep_storageE @ 4553 DATA
	__fu2698__ZNSs4_Rep20_S_empty_rep_storageE @ 4554 DATA
	__fu2699__ZNSs4_Rep20_S_empty_rep_storageE @ 4555 DATA
	__fu269__ZNSs4_Rep20_S_empty_rep_storageE @ 4556 DATA
	__fu26__ZNSs4_Rep20_S_empty_rep_storageE @ 4557 DATA
	__fu2700__ZNSs4_Rep20_S_empty_rep_storageE @ 4558 DATA
	__fu2701__ZNSs4_Rep20_S_empty_rep_storageE @ 4559 DATA
	__fu2702__ZNSs4_Rep20_S_empty_rep_storageE @ 4560 DATA
	__fu2703__ZNSs4_Rep20_S_empty_rep_storageE @ 4561 DATA
	__fu2704__ZNSs4_Rep20_S_empty_rep_storageE @ 4562 DATA
	__fu2705__ZNSs4_Rep20_S_empty_rep_storageE @ 4563 DATA
	__fu2706__ZNSs4_Rep20_S_empty_rep_storageE @ 4564 DATA
	__fu2707__ZNSs4_Rep20_S_empty_rep_storageE @ 4565 DATA
	__fu2708__ZNSs4_Rep20_S_empty_rep_storageE @ 4566 DATA
	__fu2709__ZNSs4_Rep20_S_empty_rep_storageE @ 4567 DATA
	__fu270__ZNSs4_Rep20_S_empty_rep_storageE @ 4568 DATA
	__fu2710__ZNSs4_Rep20_S_empty_rep_storageE @ 4569 DATA
	__fu2711__ZNSs4_Rep20_S_empty_rep_storageE @ 4570 DATA
	__fu2712__ZNSs4_Rep20_S_empty_rep_storageE @ 4571 DATA
	__fu2713__ZNSs4_Rep20_S_empty_rep_storageE @ 4572 DATA
	__fu2714__ZNSs4_Rep20_S_empty_rep_storageE @ 4573 DATA
	__fu2715__ZNSs4_Rep20_S_empty_rep_storageE @ 4574 DATA
	__fu2716__ZNSs4_Rep20_S_empty_rep_storageE @ 4575 DATA
	__fu2717__ZNSs4_Rep20_S_empty_rep_storageE @ 4576 DATA
	__fu2718__ZNSs4_Rep20_S_empty_rep_storageE @ 4577 DATA
	__fu2719__ZNSs4_Rep20_S_empty_rep_storageE @ 4578 DATA
	__fu271__ZNSs4_Rep20_S_empty_rep_storageE @ 4579 DATA
	__fu2720__ZNSs4_Rep20_S_empty_rep_storageE @ 4580 DATA
	__fu2721__ZNSs4_Rep20_S_empty_rep_storageE @ 4581 DATA
	__fu2722__ZNSs4_Rep20_S_empty_rep_storageE @ 4582 DATA
	__fu2723__ZNSs4_Rep20_S_empty_rep_storageE @ 4583 DATA
	__fu2724__ZNSs4_Rep20_S_empty_rep_storageE @ 4584 DATA
	__fu2725__ZNSs4_Rep20_S_empty_rep_storageE @ 4585 DATA
	__fu2726__ZNSs4_Rep20_S_empty_rep_storageE @ 4586 DATA
	__fu2727__ZNSs4_Rep20_S_empty_rep_storageE @ 4587 DATA
	__fu2728__ZNSs4_Rep20_S_empty_rep_storageE @ 4588 DATA
	__fu2729__ZNSs4_Rep20_S_empty_rep_storageE @ 4589 DATA
	__fu272__ZNSs4_Rep20_S_empty_rep_storageE @ 4590 DATA
	__fu2730__ZNSs4_Rep20_S_empty_rep_storageE @ 4591 DATA
	__fu2731__ZNSs4_Rep20_S_empty_rep_storageE @ 4592 DATA
	__fu2732__ZNSs4_Rep20_S_empty_rep_storageE @ 4593 DATA
	__fu2733__ZNSs4_Rep20_S_empty_rep_storageE @ 4594 DATA
	__fu2734__ZNSs4_Rep20_S_empty_rep_storageE @ 4595 DATA
	__fu2735__ZNSs4_Rep20_S_empty_rep_storageE @ 4596 DATA
	__fu2736__ZNSs4_Rep20_S_empty_rep_storageE @ 4597 DATA
	__fu2737__ZNSs4_Rep20_S_empty_rep_storageE @ 4598 DATA
	__fu2738__ZNSs4_Rep20_S_empty_rep_storageE @ 4599 DATA
	__fu2739__ZNSs4_Rep20_S_empty_rep_storageE @ 4600 DATA
	__fu273__ZNSs4_Rep20_S_empty_rep_storageE @ 4601 DATA
	__fu2740__ZNSs4_Rep20_S_empty_rep_storageE @ 4602 DATA
	__fu2741__ZNSs4_Rep20_S_empty_rep_storageE @ 4603 DATA
	__fu2742__ZNSs4_Rep20_S_empty_rep_storageE @ 4604 DATA
	__fu2743__ZNSs4_Rep20_S_empty_rep_storageE @ 4605 DATA
	__fu2744__ZNSs4_Rep20_S_empty_rep_storageE @ 4606 DATA
	__fu2745__ZNSs4_Rep20_S_empty_rep_storageE @ 4607 DATA
	__fu2746__ZNSs4_Rep20_S_empty_rep_storageE @ 4608 DATA
	__fu2747__ZNSs4_Rep20_S_empty_rep_storageE @ 4609 DATA
	__fu2748__ZNSs4_Rep20_S_empty_rep_storageE @ 4610 DATA
	__fu2749__ZNSs4_Rep20_S_empty_rep_storageE @ 4611 DATA
	__fu274__ZNSs4_Rep20_S_empty_rep_storageE @ 4612 DATA
	__fu2750__ZNSs4_Rep20_S_empty_rep_storageE @ 4613 DATA
	__fu2751__ZNSs4_Rep20_S_empty_rep_storageE @ 4614 DATA
	__fu2752__ZNSs4_Rep20_S_empty_rep_storageE @ 4615 DATA
	__fu2753__ZNSs4_Rep20_S_empty_rep_storageE @ 4616 DATA
	__fu2754__ZNSs4_Rep20_S_empty_rep_storageE @ 4617 DATA
	__fu2755__ZNSs4_Rep20_S_empty_rep_storageE @ 4618 DATA
	__fu2756__ZNSs4_Rep20_S_empty_rep_storageE @ 4619 DATA
	__fu2757__ZNSs4_Rep20_S_empty_rep_storageE @ 4620 DATA
	__fu2758__ZNSs4_Rep20_S_empty_rep_storageE @ 4621 DATA
	__fu2759__ZNSs4_Rep20_S_empty_rep_storageE @ 4622 DATA
	__fu275__ZNSs4_Rep20_S_empty_rep_storageE @ 4623 DATA
	__fu2760__ZNSs4_Rep20_S_empty_rep_storageE @ 4624 DATA
	__fu2761__ZNSs4_Rep20_S_empty_rep_storageE @ 4625 DATA
	__fu2762__ZNSs4_Rep20_S_empty_rep_storageE @ 4626 DATA
	__fu2763__ZNSs4_Rep20_S_empty_rep_storageE @ 4627 DATA
	__fu2764__ZNSs4_Rep20_S_empty_rep_storageE @ 4628 DATA
	__fu2765__ZNSs4_Rep20_S_empty_rep_storageE @ 4629 DATA
	__fu2766__ZNSs4_Rep20_S_empty_rep_storageE @ 4630 DATA
	__fu2767__ZNSs4_Rep20_S_empty_rep_storageE @ 4631 DATA
	__fu2768__ZNSs4_Rep20_S_empty_rep_storageE @ 4632 DATA
	__fu2769__ZNSs4_Rep20_S_empty_rep_storageE @ 4633 DATA
	__fu276__ZNSs4_Rep20_S_empty_rep_storageE @ 4634 DATA
	__fu2770__ZNSs4_Rep20_S_empty_rep_storageE @ 4635 DATA
	__fu2771__ZNSs4_Rep20_S_empty_rep_storageE @ 4636 DATA
	__fu2772__ZNSs4_Rep20_S_empty_rep_storageE @ 4637 DATA
	__fu2773__ZNSs4_Rep20_S_empty_rep_storageE @ 4638 DATA
	__fu2774__ZNSs4_Rep20_S_empty_rep_storageE @ 4639 DATA
	__fu2775__ZNSs4_Rep20_S_empty_rep_storageE @ 4640 DATA
	__fu2776__ZNSs4_Rep20_S_empty_rep_storageE @ 4641 DATA
	__fu2777__ZNSs4_Rep20_S_empty_rep_storageE @ 4642 DATA
	__fu2778__ZNSs4_Rep20_S_empty_rep_storageE @ 4643 DATA
	__fu2779__ZNSs4_Rep20_S_empty_rep_storageE @ 4644 DATA
	__fu277__ZNSs4_Rep20_S_empty_rep_storageE @ 4645 DATA
	__fu2780__ZNSs4_Rep20_S_empty_rep_storageE @ 4646 DATA
	__fu2781__ZNSs4_Rep20_S_empty_rep_storageE @ 4647 DATA
	__fu2782__ZNSs4_Rep20_S_empty_rep_storageE @ 4648 DATA
	__fu2783__ZNSs4_Rep20_S_empty_rep_storageE @ 4649 DATA
	__fu2784__ZNSs4_Rep20_S_empty_rep_storageE @ 4650 DATA
	__fu2785__ZNSs4_Rep20_S_empty_rep_storageE @ 4651 DATA
	__fu2786__ZNSs4_Rep20_S_empty_rep_storageE @ 4652 DATA
	__fu2787__ZNSs4_Rep20_S_empty_rep_storageE @ 4653 DATA
	__fu2788__ZNSs4_Rep20_S_empty_rep_storageE @ 4654 DATA
	__fu2789__ZNSs4_Rep20_S_empty_rep_storageE @ 4655 DATA
	__fu278__ZNSs4_Rep20_S_empty_rep_storageE @ 4656 DATA
	__fu2790__ZNSs4_Rep20_S_empty_rep_storageE @ 4657 DATA
	__fu2791__ZNSs4_Rep20_S_empty_rep_storageE @ 4658 DATA
	__fu2792__ZNSs4_Rep20_S_empty_rep_storageE @ 4659 DATA
	__fu2793__ZNSs4_Rep20_S_empty_rep_storageE @ 4660 DATA
	__fu2794__ZNSs4_Rep20_S_empty_rep_storageE @ 4661 DATA
	__fu2795__ZNSs4_Rep20_S_empty_rep_storageE @ 4662 DATA
	__fu2796__ZNSs4_Rep20_S_empty_rep_storageE @ 4663 DATA
	__fu2797__ZNSs4_Rep20_S_empty_rep_storageE @ 4664 DATA
	__fu2798__ZNSs4_Rep20_S_empty_rep_storageE @ 4665 DATA
	__fu2799__ZNSs4_Rep20_S_empty_rep_storageE @ 4666 DATA
	__fu279__ZNSs4_Rep20_S_empty_rep_storageE @ 4667 DATA
	__fu27__ZNSs4_Rep20_S_empty_rep_storageE @ 4668 DATA
	__fu2800__ZNSs4_Rep20_S_empty_rep_storageE @ 4669 DATA
	__fu2801__ZNSs4_Rep20_S_empty_rep_storageE @ 4670 DATA
	__fu2802__ZTVN10__cxxabiv120__si_class_type_infoE @ 4671 DATA
	__fu2803__ZTVN10__cxxabiv120__si_class_type_infoE @ 4672 DATA
	__fu2804__ZTVN10__cxxabiv120__si_class_type_infoE @ 4673 DATA
	__fu2805__ZTVN10__cxxabiv120__si_class_type_infoE @ 4674 DATA
	__fu2806__ZTVN10__cxxabiv120__si_class_type_infoE @ 4675 DATA
	__fu2807__ZTVN10__cxxabiv120__si_class_type_infoE @ 4676 DATA
	__fu2808__ZTVN10__cxxabiv120__si_class_type_infoE @ 4677 DATA
	__fu2809__ZTVN10__cxxabiv120__si_class_type_infoE @ 4678 DATA
	__fu280__ZNSs4_Rep20_S_empty_rep_storageE @ 4679 DATA
	__fu2810__ZTVN10__cxxabiv120__si_class_type_infoE @ 4680 DATA
	__fu2811__ZTVN10__cxxabiv120__si_class_type_infoE @ 4681 DATA
	__fu2812__ZTVN10__cxxabiv120__si_class_type_infoE @ 4682 DATA
	__fu2813__ZTVN10__cxxabiv120__si_class_type_infoE @ 4683 DATA
	__fu2814__ZTVN10__cxxabiv120__si_class_type_infoE @ 4684 DATA
	__fu2815__ZTVN10__cxxabiv120__si_class_type_infoE @ 4685 DATA
	__fu2816__ZTVN10__cxxabiv120__si_class_type_infoE @ 4686 DATA
	__fu2817__ZTVN10__cxxabiv120__si_class_type_infoE @ 4687 DATA
	__fu2818__ZTVN10__cxxabiv120__si_class_type_infoE @ 4688 DATA
	__fu2819__ZTVN10__cxxabiv120__si_class_type_infoE @ 4689 DATA
	__fu281__ZNSs4_Rep20_S_empty_rep_storageE @ 4690 DATA
	__fu2820__ZTVN10__cxxabiv120__si_class_type_infoE @ 4691 DATA
	__fu2821__ZTVN10__cxxabiv120__si_class_type_infoE @ 4692 DATA
	__fu2822__ZTVN10__cxxabiv117__class_type_infoE @ 4693 DATA
	__fu2823__ZTVN10__cxxabiv117__class_type_infoE @ 4694 DATA
	__fu2824__ZTVN10__cxxabiv117__class_type_infoE @ 4695 DATA
	__fu2825__ZTVN10__cxxabiv117__class_type_infoE @ 4696 DATA
	__fu2826__ZTVN10__cxxabiv117__class_type_infoE @ 4697 DATA
	__fu2827__ZTVN10__cxxabiv117__class_type_infoE @ 4698 DATA
	__fu2828__ZTVN10__cxxabiv117__class_type_infoE @ 4699 DATA
	__fu2829__ZTVN10__cxxabiv117__class_type_infoE @ 4700 DATA
	__fu282__ZNSs4_Rep20_S_empty_rep_storageE @ 4701 DATA
	__fu2830__ZTVN10__cxxabiv117__class_type_infoE @ 4702 DATA
	__fu2831__ZTVN10__cxxabiv117__class_type_infoE @ 4703 DATA
	__fu2832__ZSt4cout @ 4704 DATA
	__fu2833__ZSt4cout @ 4705 DATA
	__fu2834__ZSt4cout @ 4706 DATA
	__fu2835__ZSt4cout @ 4707 DATA
	__fu2836__ZSt4cout @ 4708 DATA
	__fu2837__ZSt4cout @ 4709 DATA
	__fu2838__ZSt4cout @ 4710 DATA
	__fu2839__ZSt4cout @ 4711 DATA
	__fu283__ZNSs4_Rep20_S_empty_rep_storageE @ 4712 DATA
	__fu2840__ZSt4cout @ 4713 DATA
	__fu2841__ZSt4cout @ 4714 DATA
	__fu2842__ZSt4cout @ 4715 DATA
	__fu2843__ZSt4cout @ 4716 DATA
	__fu2844__ZSt4cout @ 4717 DATA
	__fu2845__ZSt4cout @ 4718 DATA
	__fu2846__ZSt4cout @ 4719 DATA
	__fu2847__ZTTSt18basic_stringstreamIcSt11char_traitsIcESaIcEE @ 4720 DATA
	__fu2848__ZTTSt18basic_stringstreamIcSt11char_traitsIcESaIcEE @ 4721 DATA
	__fu2849__ZTTSt18basic_stringstreamIcSt11char_traitsIcESaIcEE @ 4722 DATA
	__fu284__ZNSs4_Rep20_S_empty_rep_storageE @ 4723 DATA
	__fu2850__ZTTSt18basic_stringstreamIcSt11char_traitsIcESaIcEE @ 4724 DATA
	__fu2851__ZTTSt18basic_stringstreamIcSt11char_traitsIcESaIcEE @ 4725 DATA
	__fu2852__ZTTSt18basic_stringstreamIcSt11char_traitsIcESaIcEE @ 4726 DATA
	__fu2853__ZTTSt18basic_stringstreamIcSt11char_traitsIcESaIcEE @ 4727 DATA
	__fu2854__ZTTSt18basic_stringstreamIcSt11char_traitsIcESaIcEE @ 4728 DATA
	__fu2855__ZTTSt18basic_stringstreamIcSt11char_traitsIcESaIcEE @ 4729 DATA
	__fu2856__ZTTSt18basic_stringstreamIcSt11char_traitsIcESaIcEE @ 4730 DATA
	__fu2857__ZTTSt18basic_stringstreamIcSt11char_traitsIcESaIcEE @ 4731 DATA
	__fu2858__ZTTSt18basic_stringstreamIcSt11char_traitsIcESaIcEE @ 4732 DATA
	__fu2859__ZTTSt18basic_stringstreamIcSt11char_traitsIcESaIcEE @ 4733 DATA
	__fu285__ZNSs4_Rep20_S_empty_rep_storageE @ 4734 DATA
	__fu2860__ZTTSt18basic_stringstreamIcSt11char_traitsIcESaIcEE @ 4735 DATA
	__fu2861__ZTTSt18basic_stringstreamIcSt11char_traitsIcESaIcEE @ 4736 DATA
	__fu2862__ZTTSt18basic_stringstreamIcSt11char_traitsIcESaIcEE @ 4737 DATA
	__fu2863__ZTTSt18basic_stringstreamIcSt11char_traitsIcESaIcEE @ 4738 DATA
	__fu2864__ZTTSt18basic_stringstreamIcSt11char_traitsIcESaIcEE @ 4739 DATA
	__fu2865__ZTTSt18basic_stringstreamIcSt11char_traitsIcESaIcEE @ 4740 DATA
	__fu2866__ZTTSt18basic_stringstreamIcSt11char_traitsIcESaIcEE @ 4741 DATA
	__fu2867__ZTTSt18basic_stringstreamIcSt11char_traitsIcESaIcEE @ 4742 DATA
	__fu2868__ZTTSt18basic_stringstreamIcSt11char_traitsIcESaIcEE @ 4743 DATA
	__fu2869__ZTTSt18basic_stringstreamIcSt11char_traitsIcESaIcEE @ 4744 DATA
	__fu286__ZNSs4_Rep20_S_empty_rep_storageE @ 4745 DATA
	__fu2870__ZTTSt18basic_stringstreamIcSt11char_traitsIcESaIcEE @ 4746 DATA
	__fu2871__ZTTSt18basic_stringstreamIcSt11char_traitsIcESaIcEE @ 4747 DATA
	__fu2872__ZTTSt18basic_stringstreamIcSt11char_traitsIcESaIcEE @ 4748 DATA
	__fu2873__ZTTSt18basic_stringstreamIcSt11char_traitsIcESaIcEE @ 4749 DATA
	__fu2874__ZTTSt18basic_stringstreamIcSt11char_traitsIcESaIcEE @ 4750 DATA
	__fu2875__ZTTSt18basic_stringstreamIcSt11char_traitsIcESaIcEE @ 4751 DATA
	__fu2876__ZTTSt18basic_stringstreamIcSt11char_traitsIcESaIcEE @ 4752 DATA
	__fu2877__ZTTSt18basic_stringstreamIcSt11char_traitsIcESaIcEE @ 4753 DATA
	__fu2878__ZTTSt18basic_stringstreamIcSt11char_traitsIcESaIcEE @ 4754 DATA
	__fu2879__ZTTSt18basic_stringstreamIcSt11char_traitsIcESaIcEE @ 4755 DATA
	__fu287__ZNSs4_Rep20_S_empty_rep_storageE @ 4756 DATA
	__fu2880__ZTTSt18basic_stringstreamIcSt11char_traitsIcESaIcEE @ 4757 DATA
	__fu2881__ZTTSt18basic_stringstreamIcSt11char_traitsIcESaIcEE @ 4758 DATA
	__fu2882__ZTTSt18basic_stringstreamIcSt11char_traitsIcESaIcEE @ 4759 DATA
	__fu2883__ZTTSt18basic_stringstreamIcSt11char_traitsIcESaIcEE @ 4760 DATA
	__fu2884__ZTTSt18basic_stringstreamIcSt11char_traitsIcESaIcEE @ 4761 DATA
	__fu2885__ZTTSt18basic_stringstreamIcSt11char_traitsIcESaIcEE @ 4762 DATA
	__fu2886__ZTTSt18basic_stringstreamIcSt11char_traitsIcESaIcEE @ 4763 DATA
	__fu2887__ZTTSt18basic_stringstreamIcSt11char_traitsIcESaIcEE @ 4764 DATA
	__fu2888__ZTTSt18basic_stringstreamIcSt11char_traitsIcESaIcEE @ 4765 DATA
	__fu2889__ZTTSt18basic_stringstreamIcSt11char_traitsIcESaIcEE @ 4766 DATA
	__fu288__ZNSs4_Rep20_S_empty_rep_storageE @ 4767 DATA
	__fu2890__ZTTSt18basic_stringstreamIcSt11char_traitsIcESaIcEE @ 4768 DATA
	__fu2891__ZTTSt18basic_stringstreamIcSt11char_traitsIcESaIcEE @ 4769 DATA
	__fu2892__ZTTSt18basic_stringstreamIcSt11char_traitsIcESaIcEE @ 4770 DATA
	__fu2893__ZTTSt18basic_stringstreamIcSt11char_traitsIcESaIcEE @ 4771 DATA
	__fu2894__ZTTSt18basic_stringstreamIcSt11char_traitsIcESaIcEE @ 4772 DATA
	__fu2895__ZTTSt18basic_stringstreamIcSt11char_traitsIcESaIcEE @ 4773 DATA
	__fu2896__ZTTSt18basic_stringstreamIcSt11char_traitsIcESaIcEE @ 4774 DATA
	__fu2897__ZTTSt18basic_stringstreamIcSt11char_traitsIcESaIcEE @ 4775 DATA
	__fu2898__ZTTSt18basic_stringstreamIcSt11char_traitsIcESaIcEE @ 4776 DATA
	__fu2899__ZTTSt18basic_stringstreamIcSt11char_traitsIcESaIcEE @ 4777 DATA
	__fu289__ZNSs4_Rep20_S_empty_rep_storageE @ 4778 DATA
	__fu28__ZNSs4_Rep20_S_empty_rep_storageE @ 4779 DATA
	__fu2900__ZTTSt18basic_stringstreamIcSt11char_traitsIcESaIcEE @ 4780 DATA
	__fu2901__ZTTSt18basic_stringstreamIcSt11char_traitsIcESaIcEE @ 4781 DATA
	__fu2902__ZTTSt18basic_stringstreamIcSt11char_traitsIcESaIcEE @ 4782 DATA
	__fu2903__ZTTSt18basic_stringstreamIcSt11char_traitsIcESaIcEE @ 4783 DATA
	__fu2904__ZTTSt18basic_stringstreamIcSt11char_traitsIcESaIcEE @ 4784 DATA
	__fu2905__ZTTSt18basic_stringstreamIcSt11char_traitsIcESaIcEE @ 4785 DATA
	__fu2906__ZTTSt18basic_stringstreamIcSt11char_traitsIcESaIcEE @ 4786 DATA
	__fu2907__ZTTSt18basic_stringstreamIcSt11char_traitsIcESaIcEE @ 4787 DATA
	__fu2908__ZTTSt18basic_stringstreamIcSt11char_traitsIcESaIcEE @ 4788 DATA
	__fu2909__ZTTSt18basic_stringstreamIcSt11char_traitsIcESaIcEE @ 4789 DATA
	__fu290__ZNSs4_Rep20_S_empty_rep_storageE @ 4790 DATA
	__fu2910__ZTTSt18basic_stringstreamIcSt11char_traitsIcESaIcEE @ 4791 DATA
	__fu2911__ZTTSt18basic_stringstreamIcSt11char_traitsIcESaIcEE @ 4792 DATA
	__fu2912__ZTTSt18basic_stringstreamIcSt11char_traitsIcESaIcEE @ 4793 DATA
	__fu2913__ZTTSt18basic_stringstreamIcSt11char_traitsIcESaIcEE @ 4794 DATA
	__fu2914__ZTTSt18basic_stringstreamIcSt11char_traitsIcESaIcEE @ 4795 DATA
	__fu2915__ZTTSt18basic_stringstreamIcSt11char_traitsIcESaIcEE @ 4796 DATA
	__fu2916__ZTTSt18basic_stringstreamIcSt11char_traitsIcESaIcEE @ 4797 DATA
	__fu2917__ZTTSt18basic_stringstreamIcSt11char_traitsIcESaIcEE @ 4798 DATA
	__fu2918__ZTTSt18basic_stringstreamIcSt11char_traitsIcESaIcEE @ 4799 DATA
	__fu2919__ZTTSt18basic_stringstreamIcSt11char_traitsIcESaIcEE @ 4800 DATA
	__fu291__ZNSs4_Rep20_S_empty_rep_storageE @ 4801 DATA
	__fu2920__ZTTSt18basic_stringstreamIcSt11char_traitsIcESaIcEE @ 4802 DATA
	__fu2921__ZTTSt18basic_stringstreamIcSt11char_traitsIcESaIcEE @ 4803 DATA
	__fu2922__ZTTSt18basic_stringstreamIcSt11char_traitsIcESaIcEE @ 4804 DATA
	__fu2923__ZTTSt18basic_stringstreamIcSt11char_traitsIcESaIcEE @ 4805 DATA
	__fu2924__ZTTSt18basic_stringstreamIcSt11char_traitsIcESaIcEE @ 4806 DATA
	__fu2925__ZTTSt18basic_stringstreamIcSt11char_traitsIcESaIcEE @ 4807 DATA
	__fu2926__ZTTSt18basic_stringstreamIcSt11char_traitsIcESaIcEE @ 4808 DATA
	__fu2927__ZTVSt9basic_iosIcSt11char_traitsIcEE @ 4809 DATA
	__fu2928__ZTVSt9basic_iosIcSt11char_traitsIcEE @ 4810 DATA
	__fu2929__ZTVSt9basic_iosIcSt11char_traitsIcEE @ 4811 DATA
	__fu292__ZNSs4_Rep20_S_empty_rep_storageE @ 4812 DATA
	__fu2930__ZTVSt9basic_iosIcSt11char_traitsIcEE @ 4813 DATA
	__fu2931__ZTVSt9basic_iosIcSt11char_traitsIcEE @ 4814 DATA
	__fu2932__ZTVSt9basic_iosIcSt11char_traitsIcEE @ 4815 DATA
	__fu2933__ZTVSt9basic_iosIcSt11char_traitsIcEE @ 4816 DATA
	__fu2934__ZTVSt9basic_iosIcSt11char_traitsIcEE @ 4817 DATA
	__fu2935__ZTVSt9basic_iosIcSt11char_traitsIcEE @ 4818 DATA
	__fu2936__ZTVSt9basic_iosIcSt11char_traitsIcEE @ 4819 DATA
	__fu2937__ZTVSt18basic_stringstreamIcSt11char_traitsIcESaIcEE @ 4820 DATA
	__fu2938__ZTVSt18basic_stringstreamIcSt11char_traitsIcESaIcEE @ 4821 DATA
	__fu2939__ZTVSt18basic_stringstreamIcSt11char_traitsIcESaIcEE @ 4822 DATA
	__fu293__ZNSs4_Rep20_S_empty_rep_storageE @ 4823 DATA
	__fu2940__ZTVSt18basic_stringstreamIcSt11char_traitsIcESaIcEE @ 4824 DATA
	__fu2941__ZTVSt18basic_stringstreamIcSt11char_traitsIcESaIcEE @ 4825 DATA
	__fu2942__ZTVSt18basic_stringstreamIcSt11char_traitsIcESaIcEE @ 4826 DATA
	__fu2943__ZTVSt18basic_stringstreamIcSt11char_traitsIcESaIcEE @ 4827 DATA
	__fu2944__ZTVSt18basic_stringstreamIcSt11char_traitsIcESaIcEE @ 4828 DATA
	__fu2945__ZTVSt18basic_stringstreamIcSt11char_traitsIcESaIcEE @ 4829 DATA
	__fu2946__ZTVSt18basic_stringstreamIcSt11char_traitsIcESaIcEE @ 4830 DATA
	__fu2947__ZTVSt18basic_stringstreamIcSt11char_traitsIcESaIcEE @ 4831 DATA
	__fu2948__ZTVSt18basic_stringstreamIcSt11char_traitsIcESaIcEE @ 4832 DATA
	__fu2949__ZTVSt18basic_stringstreamIcSt11char_traitsIcESaIcEE @ 4833 DATA
	__fu294__ZNSs4_Rep20_S_empty_rep_storageE @ 4834 DATA
	__fu2950__ZTVSt18basic_stringstreamIcSt11char_traitsIcESaIcEE @ 4835 DATA
	__fu2951__ZTVSt18basic_stringstreamIcSt11char_traitsIcESaIcEE @ 4836 DATA
	__fu2952__ZTVSt18basic_stringstreamIcSt11char_traitsIcESaIcEE @ 4837 DATA
	__fu2953__ZTVSt18basic_stringstreamIcSt11char_traitsIcESaIcEE @ 4838 DATA
	__fu2954__ZTVSt18basic_stringstreamIcSt11char_traitsIcESaIcEE @ 4839 DATA
	__fu2955__ZTVSt18basic_stringstreamIcSt11char_traitsIcESaIcEE @ 4840 DATA
	__fu2956__ZTVSt18basic_stringstreamIcSt11char_traitsIcESaIcEE @ 4841 DATA
	__fu2957__ZTVSt18basic_stringstreamIcSt11char_traitsIcESaIcEE @ 4842 DATA
	__fu2958__ZTVSt18basic_stringstreamIcSt11char_traitsIcESaIcEE @ 4843 DATA
	__fu2959__ZTVSt18basic_stringstreamIcSt11char_traitsIcESaIcEE @ 4844 DATA
	__fu295__ZNSs4_Rep20_S_empty_rep_storageE @ 4845 DATA
	__fu2960__ZTVSt18basic_stringstreamIcSt11char_traitsIcESaIcEE @ 4846 DATA
	__fu2961__ZTVSt18basic_stringstreamIcSt11char_traitsIcESaIcEE @ 4847 DATA
	__fu2962__ZTVSt18basic_stringstreamIcSt11char_traitsIcESaIcEE @ 4848 DATA
	__fu2963__ZTVSt18basic_stringstreamIcSt11char_traitsIcESaIcEE @ 4849 DATA
	__fu2964__ZTVSt18basic_stringstreamIcSt11char_traitsIcESaIcEE @ 4850 DATA
	__fu2965__ZTVSt18basic_stringstreamIcSt11char_traitsIcESaIcEE @ 4851 DATA
	__fu2966__ZTVSt18basic_stringstreamIcSt11char_traitsIcESaIcEE @ 4852 DATA
	__fu2967__ZTVSt15basic_streambufIcSt11char_traitsIcEE @ 4853 DATA
	__fu2968__ZTVSt15basic_streambufIcSt11char_traitsIcEE @ 4854 DATA
	__fu2969__ZTVSt15basic_streambufIcSt11char_traitsIcEE @ 4855 DATA
	__fu296__ZNSs4_Rep20_S_empty_rep_storageE @ 4856 DATA
	__fu2970__ZTVSt15basic_streambufIcSt11char_traitsIcEE @ 4857 DATA
	__fu2971__ZTVSt15basic_streambufIcSt11char_traitsIcEE @ 4858 DATA
	__fu2972__ZTVSt15basic_streambufIcSt11char_traitsIcEE @ 4859 DATA
	__fu2973__ZTVSt15basic_streambufIcSt11char_traitsIcEE @ 4860 DATA
	__fu2974__ZTVSt15basic_streambufIcSt11char_traitsIcEE @ 4861 DATA
	__fu2975__ZTVSt15basic_streambufIcSt11char_traitsIcEE @ 4862 DATA
	__fu2976__ZTVSt15basic_streambufIcSt11char_traitsIcEE @ 4863 DATA
	__fu2977__ZTVSt15basic_streambufIcSt11char_traitsIcEE @ 4864 DATA
	__fu2978__ZTVSt15basic_streambufIcSt11char_traitsIcEE @ 4865 DATA
	__fu2979__ZTVSt15basic_streambufIcSt11char_traitsIcEE @ 4866 DATA
	__fu297__ZNSs4_Rep20_S_empty_rep_storageE @ 4867 DATA
	__fu2980__ZTVSt15basic_streambufIcSt11char_traitsIcEE @ 4868 DATA
	__fu2981__ZTVSt15basic_streambufIcSt11char_traitsIcEE @ 4869 DATA
	__fu2982__ZTVSt15basic_stringbufIcSt11char_traitsIcESaIcEE @ 4870 DATA
	__fu2983__ZTVSt15basic_stringbufIcSt11char_traitsIcESaIcEE @ 4871 DATA
	__fu2984__ZTVSt15basic_stringbufIcSt11char_traitsIcESaIcEE @ 4872 DATA
	__fu2985__ZTVSt15basic_stringbufIcSt11char_traitsIcESaIcEE @ 4873 DATA
	__fu2986__ZTVSt15basic_stringbufIcSt11char_traitsIcESaIcEE @ 4874 DATA
	__fu2987__ZTVSt15basic_stringbufIcSt11char_traitsIcESaIcEE @ 4875 DATA
	__fu2988__ZTVSt15basic_stringbufIcSt11char_traitsIcESaIcEE @ 4876 DATA
	__fu2989__ZTVSt15basic_stringbufIcSt11char_traitsIcESaIcEE @ 4877 DATA
	__fu298__ZNSs4_Rep20_S_empty_rep_storageE @ 4878 DATA
	__fu2990__ZTVSt15basic_stringbufIcSt11char_traitsIcESaIcEE @ 4879 DATA
	__fu2991__ZTVSt15basic_stringbufIcSt11char_traitsIcESaIcEE @ 4880 DATA
	__fu2992__ZTVSt15basic_stringbufIcSt11char_traitsIcESaIcEE @ 4881 DATA
	__fu2993__ZTVSt15basic_stringbufIcSt11char_traitsIcESaIcEE @ 4882 DATA
	__fu2994__ZTVSt15basic_stringbufIcSt11char_traitsIcESaIcEE @ 4883 DATA
	__fu2995__ZTVSt15basic_stringbufIcSt11char_traitsIcESaIcEE @ 4884 DATA
	__fu2996__ZTVSt15basic_stringbufIcSt11char_traitsIcESaIcEE @ 4885 DATA
	__fu2997__ZSt4cerr @ 4886 DATA
	__fu2998__ZSt4cerr @ 4887 DATA
	__fu2999__ZSt4cerr @ 4888 DATA
	__fu299__ZNSs4_Rep20_S_empty_rep_storageE @ 4889 DATA
	__fu29__ZNSs4_Rep20_S_empty_rep_storageE @ 4890 DATA
	__fu2__ZNSs4_Rep20_S_empty_rep_storageE @ 4891 DATA
	__fu3000__ZSt4cerr @ 4892 DATA
	__fu3001__ZSt4cerr @ 4893 DATA
	__fu3002__ZSt4cerr @ 4894 DATA
	__fu3003__ZSt4cerr @ 4895 DATA
	__fu3004__ZSt4cerr @ 4896 DATA
	__fu3005__ZSt4cerr @ 4897 DATA
	__fu3006__ZSt4cerr @ 4898 DATA
	__fu3007__ZSt4cerr @ 4899 DATA
	__fu3008__ZSt4cerr @ 4900 DATA
	__fu3009__ZSt4cerr @ 4901 DATA
	__fu300__ZNSs4_Rep20_S_empty_rep_storageE @ 4902 DATA
	__fu3010__ZSt4cerr @ 4903 DATA
	__fu3011__ZSt4cerr @ 4904 DATA
	__fu3012__ZSt4cerr @ 4905 DATA
	__fu3013__ZSt4cerr @ 4906 DATA
	__fu3014__ZNSbIwSt11char_traitsIwESaIwEE4_Rep20_S_empty_rep_storageE @ 4907 DATA
	__fu301__ZNSs4_Rep20_S_empty_rep_storageE @ 4908 DATA
	__fu302__ZNSs4_Rep20_S_empty_rep_storageE @ 4909 DATA
	__fu303__ZNSs4_Rep20_S_empty_rep_storageE @ 4910 DATA
	__fu304__ZNSs4_Rep20_S_empty_rep_storageE @ 4911 DATA
	__fu305__ZNSs4_Rep20_S_empty_rep_storageE @ 4912 DATA
	__fu306__ZNSs4_Rep20_S_empty_rep_storageE @ 4913 DATA
	__fu307__ZNSs4_Rep20_S_empty_rep_storageE @ 4914 DATA
	__fu308__ZNSs4_Rep20_S_empty_rep_storageE @ 4915 DATA
	__fu309__ZNSs4_Rep20_S_empty_rep_storageE @ 4916 DATA
	__fu30__ZNSs4_Rep20_S_empty_rep_storageE @ 4917 DATA
	__fu310__ZNSs4_Rep20_S_empty_rep_storageE @ 4918 DATA
	__fu311__ZNSs4_Rep20_S_empty_rep_storageE @ 4919 DATA
	__fu312__ZNSs4_Rep20_S_empty_rep_storageE @ 4920 DATA
	__fu313__ZNSs4_Rep20_S_empty_rep_storageE @ 4921 DATA
	__fu314__ZNSs4_Rep20_S_empty_rep_storageE @ 4922 DATA
	__fu315__ZNSs4_Rep20_S_empty_rep_storageE @ 4923 DATA
	__fu316__ZNSs4_Rep20_S_empty_rep_storageE @ 4924 DATA
	__fu317__ZNSs4_Rep20_S_empty_rep_storageE @ 4925 DATA
	__fu318__ZNSs4_Rep20_S_empty_rep_storageE @ 4926 DATA
	__fu319__ZNSs4_Rep20_S_empty_rep_storageE @ 4927 DATA
	__fu31__ZNSs4_Rep20_S_empty_rep_storageE @ 4928 DATA
	__fu320__ZNSs4_Rep20_S_empty_rep_storageE @ 4929 DATA
	__fu321__ZNSs4_Rep20_S_empty_rep_storageE @ 4930 DATA
	__fu322__ZNSs4_Rep20_S_empty_rep_storageE @ 4931 DATA
	__fu323__ZNSs4_Rep20_S_empty_rep_storageE @ 4932 DATA
	__fu324__ZNSs4_Rep20_S_empty_rep_storageE @ 4933 DATA
	__fu325__ZNSs4_Rep20_S_empty_rep_storageE @ 4934 DATA
	__fu326__ZNSs4_Rep20_S_empty_rep_storageE @ 4935 DATA
	__fu327__ZNSs4_Rep20_S_empty_rep_storageE @ 4936 DATA
	__fu328__ZNSs4_Rep20_S_empty_rep_storageE @ 4937 DATA
	__fu329__ZNSs4_Rep20_S_empty_rep_storageE @ 4938 DATA
	__fu32__ZNSs4_Rep20_S_empty_rep_storageE @ 4939 DATA
	__fu330__ZNSs4_Rep20_S_empty_rep_storageE @ 4940 DATA
	__fu331__ZNSs4_Rep20_S_empty_rep_storageE @ 4941 DATA
	__fu332__ZNSs4_Rep20_S_empty_rep_storageE @ 4942 DATA
	__fu333__ZNSs4_Rep20_S_empty_rep_storageE @ 4943 DATA
	__fu334__ZNSs4_Rep20_S_empty_rep_storageE @ 4944 DATA
	__fu335__ZNSs4_Rep20_S_empty_rep_storageE @ 4945 DATA
	__fu336__ZNSs4_Rep20_S_empty_rep_storageE @ 4946 DATA
	__fu337__ZNSs4_Rep20_S_empty_rep_storageE @ 4947 DATA
	__fu338__ZNSs4_Rep20_S_empty_rep_storageE @ 4948 DATA
	__fu339__ZNSs4_Rep20_S_empty_rep_storageE @ 4949 DATA
	__fu33__ZNSs4_Rep20_S_empty_rep_storageE @ 4950 DATA
	__fu340__ZNSs4_Rep20_S_empty_rep_storageE @ 4951 DATA
	__fu341__ZNSs4_Rep20_S_empty_rep_storageE @ 4952 DATA
	__fu342__ZNSs4_Rep20_S_empty_rep_storageE @ 4953 DATA
	__fu343__ZNSs4_Rep20_S_empty_rep_storageE @ 4954 DATA
	__fu344__ZNSs4_Rep20_S_empty_rep_storageE @ 4955 DATA
	__fu345__ZNSs4_Rep20_S_empty_rep_storageE @ 4956 DATA
	__fu346__ZNSs4_Rep20_S_empty_rep_storageE @ 4957 DATA
	__fu347__ZNSs4_Rep20_S_empty_rep_storageE @ 4958 DATA
	__fu348__ZNSs4_Rep20_S_empty_rep_storageE @ 4959 DATA
	__fu349__ZNSs4_Rep20_S_empty_rep_storageE @ 4960 DATA
	__fu34__ZNSs4_Rep20_S_empty_rep_storageE @ 4961 DATA
	__fu350__ZNSs4_Rep20_S_empty_rep_storageE @ 4962 DATA
	__fu351__ZNSs4_Rep20_S_empty_rep_storageE @ 4963 DATA
	__fu352__ZNSs4_Rep20_S_empty_rep_storageE @ 4964 DATA
	__fu353__ZNSs4_Rep20_S_empty_rep_storageE @ 4965 DATA
	__fu354__ZNSs4_Rep20_S_empty_rep_storageE @ 4966 DATA
	__fu355__ZNSs4_Rep20_S_empty_rep_storageE @ 4967 DATA
	__fu356__ZNSs4_Rep20_S_empty_rep_storageE @ 4968 DATA
	__fu357__ZNSs4_Rep20_S_empty_rep_storageE @ 4969 DATA
	__fu358__ZNSs4_Rep20_S_empty_rep_storageE @ 4970 DATA
	__fu359__ZNSs4_Rep20_S_empty_rep_storageE @ 4971 DATA
	__fu35__ZNSs4_Rep20_S_empty_rep_storageE @ 4972 DATA
	__fu360__ZNSs4_Rep20_S_empty_rep_storageE @ 4973 DATA
	__fu361__ZNSs4_Rep20_S_empty_rep_storageE @ 4974 DATA
	__fu362__ZNSs4_Rep20_S_empty_rep_storageE @ 4975 DATA
	__fu363__ZNSs4_Rep20_S_empty_rep_storageE @ 4976 DATA
	__fu364__ZNSs4_Rep20_S_empty_rep_storageE @ 4977 DATA
	__fu365__ZNSs4_Rep20_S_empty_rep_storageE @ 4978 DATA
	__fu366__ZNSs4_Rep20_S_empty_rep_storageE @ 4979 DATA
	__fu367__ZNSs4_Rep20_S_empty_rep_storageE @ 4980 DATA
	__fu368__ZNSs4_Rep20_S_empty_rep_storageE @ 4981 DATA
	__fu369__ZNSs4_Rep20_S_empty_rep_storageE @ 4982 DATA
	__fu36__ZNSs4_Rep20_S_empty_rep_storageE @ 4983 DATA
	__fu370__ZNSs4_Rep20_S_empty_rep_storageE @ 4984 DATA
	__fu371__ZNSs4_Rep20_S_empty_rep_storageE @ 4985 DATA
	__fu372__ZNSs4_Rep20_S_empty_rep_storageE @ 4986 DATA
	__fu373__ZNSs4_Rep20_S_empty_rep_storageE @ 4987 DATA
	__fu374__ZNSs4_Rep20_S_empty_rep_storageE @ 4988 DATA
	__fu375__ZNSs4_Rep20_S_empty_rep_storageE @ 4989 DATA
	__fu376__ZNSs4_Rep20_S_empty_rep_storageE @ 4990 DATA
	__fu377__ZNSs4_Rep20_S_empty_rep_storageE @ 4991 DATA
	__fu378__ZNSs4_Rep20_S_empty_rep_storageE @ 4992 DATA
	__fu379__ZNSs4_Rep20_S_empty_rep_storageE @ 4993 DATA
	__fu37__ZNSs4_Rep20_S_empty_rep_storageE @ 4994 DATA
	__fu380__ZNSs4_Rep20_S_empty_rep_storageE @ 4995 DATA
	__fu381__ZNSs4_Rep20_S_empty_rep_storageE @ 4996 DATA
	__fu382__ZNSs4_Rep20_S_empty_rep_storageE @ 4997 DATA
	__fu383__ZNSs4_Rep20_S_empty_rep_storageE @ 4998 DATA
	__fu384__ZNSs4_Rep20_S_empty_rep_storageE @ 4999 DATA
	__fu385__ZNSs4_Rep20_S_empty_rep_storageE @ 5000 DATA
	__fu386__ZNSs4_Rep20_S_empty_rep_storageE @ 5001 DATA
	__fu387__ZNSs4_Rep20_S_empty_rep_storageE @ 5002 DATA
	__fu388__ZNSs4_Rep20_S_empty_rep_storageE @ 5003 DATA
	__fu389__ZNSs4_Rep20_S_empty_rep_storageE @ 5004 DATA
	__fu38__ZNSs4_Rep20_S_empty_rep_storageE @ 5005 DATA
	__fu390__ZNSs4_Rep20_S_empty_rep_storageE @ 5006 DATA
	__fu391__ZNSs4_Rep20_S_empty_rep_storageE @ 5007 DATA
	__fu392__ZNSs4_Rep20_S_empty_rep_storageE @ 5008 DATA
	__fu393__ZNSs4_Rep20_S_empty_rep_storageE @ 5009 DATA
	__fu394__ZNSs4_Rep20_S_empty_rep_storageE @ 5010 DATA
	__fu395__ZNSs4_Rep20_S_empty_rep_storageE @ 5011 DATA
	__fu396__ZNSs4_Rep20_S_empty_rep_storageE @ 5012 DATA
	__fu397__ZNSs4_Rep20_S_empty_rep_storageE @ 5013 DATA
	__fu398__ZNSs4_Rep20_S_empty_rep_storageE @ 5014 DATA
	__fu399__ZNSs4_Rep20_S_empty_rep_storageE @ 5015 DATA
	__fu39__ZNSs4_Rep20_S_empty_rep_storageE @ 5016 DATA
	__fu3__ZNSs4_Rep20_S_empty_rep_storageE @ 5017 DATA
	__fu400__ZNSs4_Rep20_S_empty_rep_storageE @ 5018 DATA
	__fu401__ZNSs4_Rep20_S_empty_rep_storageE @ 5019 DATA
	__fu402__ZNSs4_Rep20_S_empty_rep_storageE @ 5020 DATA
	__fu403__ZNSs4_Rep20_S_empty_rep_storageE @ 5021 DATA
	__fu404__ZNSs4_Rep20_S_empty_rep_storageE @ 5022 DATA
	__fu405__ZNSs4_Rep20_S_empty_rep_storageE @ 5023 DATA
	__fu406__ZNSs4_Rep20_S_empty_rep_storageE @ 5024 DATA
	__fu407__ZNSs4_Rep20_S_empty_rep_storageE @ 5025 DATA
	__fu408__ZNSs4_Rep20_S_empty_rep_storageE @ 5026 DATA
	__fu409__ZNSs4_Rep20_S_empty_rep_storageE @ 5027 DATA
	__fu40__ZNSs4_Rep20_S_empty_rep_storageE @ 5028 DATA
	__fu410__ZNSs4_Rep20_S_empty_rep_storageE @ 5029 DATA
	__fu411__ZNSs4_Rep20_S_empty_rep_storageE @ 5030 DATA
	__fu412__ZNSs4_Rep20_S_empty_rep_storageE @ 5031 DATA
	__fu413__ZNSs4_Rep20_S_empty_rep_storageE @ 5032 DATA
	__fu414__ZNSs4_Rep20_S_empty_rep_storageE @ 5033 DATA
	__fu415__ZNSs4_Rep20_S_empty_rep_storageE @ 5034 DATA
	__fu416__ZNSs4_Rep20_S_empty_rep_storageE @ 5035 DATA
	__fu417__ZNSs4_Rep20_S_empty_rep_storageE @ 5036 DATA
	__fu418__ZNSs4_Rep20_S_empty_rep_storageE @ 5037 DATA
	__fu419__ZNSs4_Rep20_S_empty_rep_storageE @ 5038 DATA
	__fu41__ZNSs4_Rep20_S_empty_rep_storageE @ 5039 DATA
	__fu420__ZNSs4_Rep20_S_empty_rep_storageE @ 5040 DATA
	__fu421__ZNSs4_Rep20_S_empty_rep_storageE @ 5041 DATA
	__fu422__ZNSs4_Rep20_S_empty_rep_storageE @ 5042 DATA
	__fu423__ZNSs4_Rep20_S_empty_rep_storageE @ 5043 DATA
	__fu424__ZNSs4_Rep20_S_empty_rep_storageE @ 5044 DATA
	__fu425__ZNSs4_Rep20_S_empty_rep_storageE @ 5045 DATA
	__fu426__ZNSs4_Rep20_S_empty_rep_storageE @ 5046 DATA
	__fu427__ZNSs4_Rep20_S_empty_rep_storageE @ 5047 DATA
	__fu428__ZNSs4_Rep20_S_empty_rep_storageE @ 5048 DATA
	__fu429__ZNSs4_Rep20_S_empty_rep_storageE @ 5049 DATA
	__fu42__ZNSs4_Rep20_S_empty_rep_storageE @ 5050 DATA
	__fu430__ZNSs4_Rep20_S_empty_rep_storageE @ 5051 DATA
	__fu431__ZNSs4_Rep20_S_empty_rep_storageE @ 5052 DATA
	__fu432__ZNSs4_Rep20_S_empty_rep_storageE @ 5053 DATA
	__fu433__ZNSs4_Rep20_S_empty_rep_storageE @ 5054 DATA
	__fu434__ZNSs4_Rep20_S_empty_rep_storageE @ 5055 DATA
	__fu435__ZNSs4_Rep20_S_empty_rep_storageE @ 5056 DATA
	__fu436__ZNSs4_Rep20_S_empty_rep_storageE @ 5057 DATA
	__fu437__ZNSs4_Rep20_S_empty_rep_storageE @ 5058 DATA
	__fu438__ZNSs4_Rep20_S_empty_rep_storageE @ 5059 DATA
	__fu439__ZNSs4_Rep20_S_empty_rep_storageE @ 5060 DATA
	__fu43__ZNSs4_Rep20_S_empty_rep_storageE @ 5061 DATA
	__fu440__ZNSs4_Rep20_S_empty_rep_storageE @ 5062 DATA
	__fu441__ZNSs4_Rep20_S_empty_rep_storageE @ 5063 DATA
	__fu442__ZNSs4_Rep20_S_empty_rep_storageE @ 5064 DATA
	__fu443__ZNSs4_Rep20_S_empty_rep_storageE @ 5065 DATA
	__fu444__ZNSs4_Rep20_S_empty_rep_storageE @ 5066 DATA
	__fu445__ZNSs4_Rep20_S_empty_rep_storageE @ 5067 DATA
	__fu446__ZNSs4_Rep20_S_empty_rep_storageE @ 5068 DATA
	__fu447__ZNSs4_Rep20_S_empty_rep_storageE @ 5069 DATA
	__fu448__ZNSs4_Rep20_S_empty_rep_storageE @ 5070 DATA
	__fu449__ZNSs4_Rep20_S_empty_rep_storageE @ 5071 DATA
	__fu44__ZNSs4_Rep20_S_empty_rep_storageE @ 5072 DATA
	__fu450__ZNSs4_Rep20_S_empty_rep_storageE @ 5073 DATA
	__fu451__ZNSs4_Rep20_S_empty_rep_storageE @ 5074 DATA
	__fu452__ZNSs4_Rep20_S_empty_rep_storageE @ 5075 DATA
	__fu453__ZNSs4_Rep20_S_empty_rep_storageE @ 5076 DATA
	__fu454__ZNSs4_Rep20_S_empty_rep_storageE @ 5077 DATA
	__fu455__ZNSs4_Rep20_S_empty_rep_storageE @ 5078 DATA
	__fu456__ZNSs4_Rep20_S_empty_rep_storageE @ 5079 DATA
	__fu457__ZNSs4_Rep20_S_empty_rep_storageE @ 5080 DATA
	__fu458__ZNSs4_Rep20_S_empty_rep_storageE @ 5081 DATA
	__fu459__ZNSs4_Rep20_S_empty_rep_storageE @ 5082 DATA
	__fu45__ZNSs4_Rep20_S_empty_rep_storageE @ 5083 DATA
	__fu460__ZNSs4_Rep20_S_empty_rep_storageE @ 5084 DATA
	__fu461__ZNSs4_Rep20_S_empty_rep_storageE @ 5085 DATA
	__fu462__ZNSs4_Rep20_S_empty_rep_storageE @ 5086 DATA
	__fu463__ZNSs4_Rep20_S_empty_rep_storageE @ 5087 DATA
	__fu464__ZNSs4_Rep20_S_empty_rep_storageE @ 5088 DATA
	__fu465__ZNSs4_Rep20_S_empty_rep_storageE @ 5089 DATA
	__fu466__ZNSs4_Rep20_S_empty_rep_storageE @ 5090 DATA
	__fu467__ZNSs4_Rep20_S_empty_rep_storageE @ 5091 DATA
	__fu468__ZNSs4_Rep20_S_empty_rep_storageE @ 5092 DATA
	__fu469__ZNSs4_Rep20_S_empty_rep_storageE @ 5093 DATA
	__fu46__ZNSs4_Rep20_S_empty_rep_storageE @ 5094 DATA
	__fu470__ZNSs4_Rep20_S_empty_rep_storageE @ 5095 DATA
	__fu471__ZNSs4_Rep20_S_empty_rep_storageE @ 5096 DATA
	__fu472__ZNSs4_Rep20_S_empty_rep_storageE @ 5097 DATA
	__fu473__ZNSs4_Rep20_S_empty_rep_storageE @ 5098 DATA
	__fu474__ZNSs4_Rep20_S_empty_rep_storageE @ 5099 DATA
	__fu475__ZNSs4_Rep20_S_empty_rep_storageE @ 5100 DATA
	__fu476__ZNSs4_Rep20_S_empty_rep_storageE @ 5101 DATA
	__fu477__ZNSs4_Rep20_S_empty_rep_storageE @ 5102 DATA
	__fu478__ZNSs4_Rep20_S_empty_rep_storageE @ 5103 DATA
	__fu479__ZNSs4_Rep20_S_empty_rep_storageE @ 5104 DATA
	__fu47__ZNSs4_Rep20_S_empty_rep_storageE @ 5105 DATA
	__fu480__ZNSs4_Rep20_S_empty_rep_storageE @ 5106 DATA
	__fu481__ZNSs4_Rep20_S_empty_rep_storageE @ 5107 DATA
	__fu482__ZNSs4_Rep20_S_empty_rep_storageE @ 5108 DATA
	__fu483__ZNSs4_Rep20_S_empty_rep_storageE @ 5109 DATA
	__fu484__ZNSs4_Rep20_S_empty_rep_storageE @ 5110 DATA
	__fu485__ZNSs4_Rep20_S_empty_rep_storageE @ 5111 DATA
	__fu486__ZNSs4_Rep20_S_empty_rep_storageE @ 5112 DATA
	__fu487__ZNSs4_Rep20_S_empty_rep_storageE @ 5113 DATA
	__fu488__ZNSs4_Rep20_S_empty_rep_storageE @ 5114 DATA
	__fu489__ZNSs4_Rep20_S_empty_rep_storageE @ 5115 DATA
	__fu48__ZNSs4_Rep20_S_empty_rep_storageE @ 5116 DATA
	__fu490__ZNSs4_Rep20_S_empty_rep_storageE @ 5117 DATA
	__fu491__ZNSs4_Rep20_S_empty_rep_storageE @ 5118 DATA
	__fu492__ZNSs4_Rep20_S_empty_rep_storageE @ 5119 DATA
	__fu493__ZNSs4_Rep20_S_empty_rep_storageE @ 5120 DATA
	__fu494__ZNSs4_Rep20_S_empty_rep_storageE @ 5121 DATA
	__fu495__ZNSs4_Rep20_S_empty_rep_storageE @ 5122 DATA
	__fu496__ZNSs4_Rep20_S_empty_rep_storageE @ 5123 DATA
	__fu497__ZNSs4_Rep20_S_empty_rep_storageE @ 5124 DATA
	__fu498__ZNSs4_Rep20_S_empty_rep_storageE @ 5125 DATA
	__fu499__ZNSs4_Rep20_S_empty_rep_storageE @ 5126 DATA
	__fu49__ZNSs4_Rep20_S_empty_rep_storageE @ 5127 DATA
	__fu4__ZNSs4_Rep20_S_empty_rep_storageE @ 5128 DATA
	__fu500__ZNSs4_Rep20_S_empty_rep_storageE @ 5129 DATA
	__fu501__ZNSs4_Rep20_S_empty_rep_storageE @ 5130 DATA
	__fu502__ZNSs4_Rep20_S_empty_rep_storageE @ 5131 DATA
	__fu503__ZNSs4_Rep20_S_empty_rep_storageE @ 5132 DATA
	__fu504__ZNSs4_Rep20_S_empty_rep_storageE @ 5133 DATA
	__fu505__ZNSs4_Rep20_S_empty_rep_storageE @ 5134 DATA
	__fu506__ZNSs4_Rep20_S_empty_rep_storageE @ 5135 DATA
	__fu507__ZNSs4_Rep20_S_empty_rep_storageE @ 5136 DATA
	__fu508__ZNSs4_Rep20_S_empty_rep_storageE @ 5137 DATA
	__fu509__ZNSs4_Rep20_S_empty_rep_storageE @ 5138 DATA
	__fu50__ZNSs4_Rep20_S_empty_rep_storageE @ 5139 DATA
	__fu510__ZNSs4_Rep20_S_empty_rep_storageE @ 5140 DATA
	__fu511__ZNSs4_Rep20_S_empty_rep_storageE @ 5141 DATA
	__fu512__ZNSs4_Rep20_S_empty_rep_storageE @ 5142 DATA
	__fu513__ZNSs4_Rep20_S_empty_rep_storageE @ 5143 DATA
	__fu514__ZNSs4_Rep20_S_empty_rep_storageE @ 5144 DATA
	__fu515__ZNSs4_Rep20_S_empty_rep_storageE @ 5145 DATA
	__fu516__ZNSs4_Rep20_S_empty_rep_storageE @ 5146 DATA
	__fu517__ZNSs4_Rep20_S_empty_rep_storageE @ 5147 DATA
	__fu518__ZNSs4_Rep20_S_empty_rep_storageE @ 5148 DATA
	__fu519__ZNSs4_Rep20_S_empty_rep_storageE @ 5149 DATA
	__fu51__ZNSs4_Rep20_S_empty_rep_storageE @ 5150 DATA
	__fu520__ZNSs4_Rep20_S_empty_rep_storageE @ 5151 DATA
	__fu521__ZNSs4_Rep20_S_empty_rep_storageE @ 5152 DATA
	__fu522__ZNSs4_Rep20_S_empty_rep_storageE @ 5153 DATA
	__fu523__ZNSs4_Rep20_S_empty_rep_storageE @ 5154 DATA
	__fu524__ZNSs4_Rep20_S_empty_rep_storageE @ 5155 DATA
	__fu525__ZNSs4_Rep20_S_empty_rep_storageE @ 5156 DATA
	__fu526__ZNSs4_Rep20_S_empty_rep_storageE @ 5157 DATA
	__fu527__ZNSs4_Rep20_S_empty_rep_storageE @ 5158 DATA
	__fu528__ZNSs4_Rep20_S_empty_rep_storageE @ 5159 DATA
	__fu529__ZNSs4_Rep20_S_empty_rep_storageE @ 5160 DATA
	__fu52__ZNSs4_Rep20_S_empty_rep_storageE @ 5161 DATA
	__fu530__ZNSs4_Rep20_S_empty_rep_storageE @ 5162 DATA
	__fu531__ZNSs4_Rep20_S_empty_rep_storageE @ 5163 DATA
	__fu532__ZNSs4_Rep20_S_empty_rep_storageE @ 5164 DATA
	__fu533__ZNSs4_Rep20_S_empty_rep_storageE @ 5165 DATA
	__fu534__ZNSs4_Rep20_S_empty_rep_storageE @ 5166 DATA
	__fu535__ZNSs4_Rep20_S_empty_rep_storageE @ 5167 DATA
	__fu536__ZNSs4_Rep20_S_empty_rep_storageE @ 5168 DATA
	__fu537__ZNSs4_Rep20_S_empty_rep_storageE @ 5169 DATA
	__fu538__ZNSs4_Rep20_S_empty_rep_storageE @ 5170 DATA
	__fu539__ZNSs4_Rep20_S_empty_rep_storageE @ 5171 DATA
	__fu53__ZNSs4_Rep20_S_empty_rep_storageE @ 5172 DATA
	__fu540__ZNSs4_Rep20_S_empty_rep_storageE @ 5173 DATA
	__fu541__ZNSs4_Rep20_S_empty_rep_storageE @ 5174 DATA
	__fu542__ZNSs4_Rep20_S_empty_rep_storageE @ 5175 DATA
	__fu543__ZNSs4_Rep20_S_empty_rep_storageE @ 5176 DATA
	__fu544__ZNSs4_Rep20_S_empty_rep_storageE @ 5177 DATA
	__fu545__ZNSs4_Rep20_S_empty_rep_storageE @ 5178 DATA
	__fu546__ZNSs4_Rep20_S_empty_rep_storageE @ 5179 DATA
	__fu547__ZNSs4_Rep20_S_empty_rep_storageE @ 5180 DATA
	__fu548__ZNSs4_Rep20_S_empty_rep_storageE @ 5181 DATA
	__fu549__ZNSs4_Rep20_S_empty_rep_storageE @ 5182 DATA
	__fu54__ZNSs4_Rep20_S_empty_rep_storageE @ 5183 DATA
	__fu550__ZNSs4_Rep20_S_empty_rep_storageE @ 5184 DATA
	__fu551__ZNSs4_Rep20_S_empty_rep_storageE @ 5185 DATA
	__fu552__ZNSs4_Rep20_S_empty_rep_storageE @ 5186 DATA
	__fu553__ZNSs4_Rep20_S_empty_rep_storageE @ 5187 DATA
	__fu554__ZNSs4_Rep20_S_empty_rep_storageE @ 5188 DATA
	__fu555__ZNSs4_Rep20_S_empty_rep_storageE @ 5189 DATA
	__fu556__ZNSs4_Rep20_S_empty_rep_storageE @ 5190 DATA
	__fu557__ZNSs4_Rep20_S_empty_rep_storageE @ 5191 DATA
	__fu558__ZNSs4_Rep20_S_empty_rep_storageE @ 5192 DATA
	__fu559__ZNSs4_Rep20_S_empty_rep_storageE @ 5193 DATA
	__fu55__ZNSs4_Rep20_S_empty_rep_storageE @ 5194 DATA
	__fu560__ZNSs4_Rep20_S_empty_rep_storageE @ 5195 DATA
	__fu561__ZNSs4_Rep20_S_empty_rep_storageE @ 5196 DATA
	__fu562__ZNSs4_Rep20_S_empty_rep_storageE @ 5197 DATA
	__fu563__ZNSs4_Rep20_S_empty_rep_storageE @ 5198 DATA
	__fu564__ZNSs4_Rep20_S_empty_rep_storageE @ 5199 DATA
	__fu565__ZNSs4_Rep20_S_empty_rep_storageE @ 5200 DATA
	__fu566__ZNSs4_Rep20_S_empty_rep_storageE @ 5201 DATA
	__fu567__ZNSs4_Rep20_S_empty_rep_storageE @ 5202 DATA
	__fu568__ZNSs4_Rep20_S_empty_rep_storageE @ 5203 DATA
	__fu569__ZNSs4_Rep20_S_empty_rep_storageE @ 5204 DATA
	__fu56__ZNSs4_Rep20_S_empty_rep_storageE @ 5205 DATA
	__fu570__ZNSs4_Rep20_S_empty_rep_storageE @ 5206 DATA
	__fu571__ZNSs4_Rep20_S_empty_rep_storageE @ 5207 DATA
	__fu572__ZNSs4_Rep20_S_empty_rep_storageE @ 5208 DATA
	__fu573__ZNSs4_Rep20_S_empty_rep_storageE @ 5209 DATA
	__fu574__ZNSs4_Rep20_S_empty_rep_storageE @ 5210 DATA
	__fu575__ZNSs4_Rep20_S_empty_rep_storageE @ 5211 DATA
	__fu576__ZNSs4_Rep20_S_empty_rep_storageE @ 5212 DATA
	__fu577__ZNSs4_Rep20_S_empty_rep_storageE @ 5213 DATA
	__fu578__ZNSs4_Rep20_S_empty_rep_storageE @ 5214 DATA
	__fu579__ZNSs4_Rep20_S_empty_rep_storageE @ 5215 DATA
	__fu57__ZNSs4_Rep20_S_empty_rep_storageE @ 5216 DATA
	__fu580__ZNSs4_Rep20_S_empty_rep_storageE @ 5217 DATA
	__fu581__ZNSs4_Rep20_S_empty_rep_storageE @ 5218 DATA
	__fu582__ZNSs4_Rep20_S_empty_rep_storageE @ 5219 DATA
	__fu583__ZNSs4_Rep20_S_empty_rep_storageE @ 5220 DATA
	__fu584__ZNSs4_Rep20_S_empty_rep_storageE @ 5221 DATA
	__fu585__ZNSs4_Rep20_S_empty_rep_storageE @ 5222 DATA
	__fu586__ZNSs4_Rep20_S_empty_rep_storageE @ 5223 DATA
	__fu587__ZNSs4_Rep20_S_empty_rep_storageE @ 5224 DATA
	__fu588__ZNSs4_Rep20_S_empty_rep_storageE @ 5225 DATA
	__fu589__ZNSs4_Rep20_S_empty_rep_storageE @ 5226 DATA
	__fu58__ZNSs4_Rep20_S_empty_rep_storageE @ 5227 DATA
	__fu590__ZNSs4_Rep20_S_empty_rep_storageE @ 5228 DATA
	__fu591__ZNSs4_Rep20_S_empty_rep_storageE @ 5229 DATA
	__fu592__ZNSs4_Rep20_S_empty_rep_storageE @ 5230 DATA
	__fu593__ZNSs4_Rep20_S_empty_rep_storageE @ 5231 DATA
	__fu594__ZNSs4_Rep20_S_empty_rep_storageE @ 5232 DATA
	__fu595__ZNSs4_Rep20_S_empty_rep_storageE @ 5233 DATA
	__fu596__ZNSs4_Rep20_S_empty_rep_storageE @ 5234 DATA
	__fu597__ZNSs4_Rep20_S_empty_rep_storageE @ 5235 DATA
	__fu598__ZNSs4_Rep20_S_empty_rep_storageE @ 5236 DATA
	__fu599__ZNSs4_Rep20_S_empty_rep_storageE @ 5237 DATA
	__fu59__ZNSs4_Rep20_S_empty_rep_storageE @ 5238 DATA
	__fu5__ZNSs4_Rep20_S_empty_rep_storageE @ 5239 DATA
	__fu600__ZNSs4_Rep20_S_empty_rep_storageE @ 5240 DATA
	__fu601__ZNSs4_Rep20_S_empty_rep_storageE @ 5241 DATA
	__fu602__ZNSs4_Rep20_S_empty_rep_storageE @ 5242 DATA
	__fu603__ZNSs4_Rep20_S_empty_rep_storageE @ 5243 DATA
	__fu604__ZNSs4_Rep20_S_empty_rep_storageE @ 5244 DATA
	__fu605__ZNSs4_Rep20_S_empty_rep_storageE @ 5245 DATA
	__fu606__ZNSs4_Rep20_S_empty_rep_storageE @ 5246 DATA
	__fu607__ZNSs4_Rep20_S_empty_rep_storageE @ 5247 DATA
	__fu608__ZNSs4_Rep20_S_empty_rep_storageE @ 5248 DATA
	__fu609__ZNSs4_Rep20_S_empty_rep_storageE @ 5249 DATA
	__fu60__ZNSs4_Rep20_S_empty_rep_storageE @ 5250 DATA
	__fu610__ZNSs4_Rep20_S_empty_rep_storageE @ 5251 DATA
	__fu611__ZNSs4_Rep20_S_empty_rep_storageE @ 5252 DATA
	__fu612__ZNSs4_Rep20_S_empty_rep_storageE @ 5253 DATA
	__fu613__ZNSs4_Rep20_S_empty_rep_storageE @ 5254 DATA
	__fu614__ZNSs4_Rep20_S_empty_rep_storageE @ 5255 DATA
	__fu615__ZNSs4_Rep20_S_empty_rep_storageE @ 5256 DATA
	__fu616__ZNSs4_Rep20_S_empty_rep_storageE @ 5257 DATA
	__fu617__ZNSs4_Rep20_S_empty_rep_storageE @ 5258 DATA
	__fu618__ZNSs4_Rep20_S_empty_rep_storageE @ 5259 DATA
	__fu619__ZNSs4_Rep20_S_empty_rep_storageE @ 5260 DATA
	__fu61__ZNSs4_Rep20_S_empty_rep_storageE @ 5261 DATA
	__fu620__ZNSs4_Rep20_S_empty_rep_storageE @ 5262 DATA
	__fu621__ZNSs4_Rep20_S_empty_rep_storageE @ 5263 DATA
	__fu622__ZNSs4_Rep20_S_empty_rep_storageE @ 5264 DATA
	__fu623__ZNSs4_Rep20_S_empty_rep_storageE @ 5265 DATA
	__fu624__ZNSs4_Rep20_S_empty_rep_storageE @ 5266 DATA
	__fu625__ZNSs4_Rep20_S_empty_rep_storageE @ 5267 DATA
	__fu626__ZNSs4_Rep20_S_empty_rep_storageE @ 5268 DATA
	__fu627__ZNSs4_Rep20_S_empty_rep_storageE @ 5269 DATA
	__fu628__ZNSs4_Rep20_S_empty_rep_storageE @ 5270 DATA
	__fu629__ZNSs4_Rep20_S_empty_rep_storageE @ 5271 DATA
	__fu62__ZNSs4_Rep20_S_empty_rep_storageE @ 5272 DATA
	__fu630__ZNSs4_Rep20_S_empty_rep_storageE @ 5273 DATA
	__fu631__ZNSs4_Rep20_S_empty_rep_storageE @ 5274 DATA
	__fu632__ZNSs4_Rep20_S_empty_rep_storageE @ 5275 DATA
	__fu633__ZNSs4_Rep20_S_empty_rep_storageE @ 5276 DATA
	__fu634__ZNSs4_Rep20_S_empty_rep_storageE @ 5277 DATA
	__fu635__ZNSs4_Rep20_S_empty_rep_storageE @ 5278 DATA
	__fu636__ZNSs4_Rep20_S_empty_rep_storageE @ 5279 DATA
	__fu637__ZNSs4_Rep20_S_empty_rep_storageE @ 5280 DATA
	__fu638__ZNSs4_Rep20_S_empty_rep_storageE @ 5281 DATA
	__fu639__ZNSs4_Rep20_S_empty_rep_storageE @ 5282 DATA
	__fu63__ZNSs4_Rep20_S_empty_rep_storageE @ 5283 DATA
	__fu640__ZNSs4_Rep20_S_empty_rep_storageE @ 5284 DATA
	__fu641__ZNSs4_Rep20_S_empty_rep_storageE @ 5285 DATA
	__fu642__ZNSs4_Rep20_S_empty_rep_storageE @ 5286 DATA
	__fu643__ZNSs4_Rep20_S_empty_rep_storageE @ 5287 DATA
	__fu644__ZNSs4_Rep20_S_empty_rep_storageE @ 5288 DATA
	__fu645__ZNSs4_Rep20_S_empty_rep_storageE @ 5289 DATA
	__fu646__ZNSs4_Rep20_S_empty_rep_storageE @ 5290 DATA
	__fu647__ZNSs4_Rep20_S_empty_rep_storageE @ 5291 DATA
	__fu648__ZNSs4_Rep20_S_empty_rep_storageE @ 5292 DATA
	__fu649__ZNSs4_Rep20_S_empty_rep_storageE @ 5293 DATA
	__fu64__ZNSs4_Rep20_S_empty_rep_storageE @ 5294 DATA
	__fu650__ZNSs4_Rep20_S_empty_rep_storageE @ 5295 DATA
	__fu651__ZNSs4_Rep20_S_empty_rep_storageE @ 5296 DATA
	__fu652__ZNSs4_Rep20_S_empty_rep_storageE @ 5297 DATA
	__fu653__ZNSs4_Rep20_S_empty_rep_storageE @ 5298 DATA
	__fu654__ZNSs4_Rep20_S_empty_rep_storageE @ 5299 DATA
	__fu655__ZNSs4_Rep20_S_empty_rep_storageE @ 5300 DATA
	__fu656__ZNSs4_Rep20_S_empty_rep_storageE @ 5301 DATA
	__fu657__ZNSs4_Rep20_S_empty_rep_storageE @ 5302 DATA
	__fu658__ZNSs4_Rep20_S_empty_rep_storageE @ 5303 DATA
	__fu659__ZNSs4_Rep20_S_empty_rep_storageE @ 5304 DATA
	__fu65__ZNSs4_Rep20_S_empty_rep_storageE @ 5305 DATA
	__fu660__ZNSs4_Rep20_S_empty_rep_storageE @ 5306 DATA
	__fu661__ZNSs4_Rep20_S_empty_rep_storageE @ 5307 DATA
	__fu662__ZNSs4_Rep20_S_empty_rep_storageE @ 5308 DATA
	__fu663__ZNSs4_Rep20_S_empty_rep_storageE @ 5309 DATA
	__fu664__ZNSs4_Rep20_S_empty_rep_storageE @ 5310 DATA
	__fu665__ZNSs4_Rep20_S_empty_rep_storageE @ 5311 DATA
	__fu666__ZNSs4_Rep20_S_empty_rep_storageE @ 5312 DATA
	__fu667__ZNSs4_Rep20_S_empty_rep_storageE @ 5313 DATA
	__fu668__ZNSs4_Rep20_S_empty_rep_storageE @ 5314 DATA
	__fu669__ZNSs4_Rep20_S_empty_rep_storageE @ 5315 DATA
	__fu66__ZNSs4_Rep20_S_empty_rep_storageE @ 5316 DATA
	__fu670__ZNSs4_Rep20_S_empty_rep_storageE @ 5317 DATA
	__fu671__ZNSs4_Rep20_S_empty_rep_storageE @ 5318 DATA
	__fu672__ZNSs4_Rep20_S_empty_rep_storageE @ 5319 DATA
	__fu673__ZNSs4_Rep20_S_empty_rep_storageE @ 5320 DATA
	__fu674__ZNSs4_Rep20_S_empty_rep_storageE @ 5321 DATA
	__fu675__ZNSs4_Rep20_S_empty_rep_storageE @ 5322 DATA
	__fu676__ZNSs4_Rep20_S_empty_rep_storageE @ 5323 DATA
	__fu677__ZNSs4_Rep20_S_empty_rep_storageE @ 5324 DATA
	__fu678__ZNSs4_Rep20_S_empty_rep_storageE @ 5325 DATA
	__fu679__ZNSs4_Rep20_S_empty_rep_storageE @ 5326 DATA
	__fu67__ZNSs4_Rep20_S_empty_rep_storageE @ 5327 DATA
	__fu680__ZNSs4_Rep20_S_empty_rep_storageE @ 5328 DATA
	__fu681__ZNSs4_Rep20_S_empty_rep_storageE @ 5329 DATA
	__fu682__ZNSs4_Rep20_S_empty_rep_storageE @ 5330 DATA
	__fu683__ZNSs4_Rep20_S_empty_rep_storageE @ 5331 DATA
	__fu684__ZNSs4_Rep20_S_empty_rep_storageE @ 5332 DATA
	__fu685__ZNSs4_Rep20_S_empty_rep_storageE @ 5333 DATA
	__fu686__ZNSs4_Rep20_S_empty_rep_storageE @ 5334 DATA
	__fu687__ZNSs4_Rep20_S_empty_rep_storageE @ 5335 DATA
	__fu688__ZNSs4_Rep20_S_empty_rep_storageE @ 5336 DATA
	__fu689__ZNSs4_Rep20_S_empty_rep_storageE @ 5337 DATA
	__fu68__ZNSs4_Rep20_S_empty_rep_storageE @ 5338 DATA
	__fu690__ZNSs4_Rep20_S_empty_rep_storageE @ 5339 DATA
	__fu691__ZNSs4_Rep20_S_empty_rep_storageE @ 5340 DATA
	__fu692__ZNSs4_Rep20_S_empty_rep_storageE @ 5341 DATA
	__fu693__ZNSs4_Rep20_S_empty_rep_storageE @ 5342 DATA
	__fu694__ZNSs4_Rep20_S_empty_rep_storageE @ 5343 DATA
	__fu695__ZNSs4_Rep20_S_empty_rep_storageE @ 5344 DATA
	__fu696__ZNSs4_Rep20_S_empty_rep_storageE @ 5345 DATA
	__fu697__ZNSs4_Rep20_S_empty_rep_storageE @ 5346 DATA
	__fu698__ZNSs4_Rep20_S_empty_rep_storageE @ 5347 DATA
	__fu699__ZNSs4_Rep20_S_empty_rep_storageE @ 5348 DATA
	__fu69__ZNSs4_Rep20_S_empty_rep_storageE @ 5349 DATA
	__fu6__ZNSs4_Rep20_S_empty_rep_storageE @ 5350 DATA
	__fu700__ZNSs4_Rep20_S_empty_rep_storageE @ 5351 DATA
	__fu701__ZNSs4_Rep20_S_empty_rep_storageE @ 5352 DATA
	__fu702__ZNSs4_Rep20_S_empty_rep_storageE @ 5353 DATA
	__fu703__ZNSs4_Rep20_S_empty_rep_storageE @ 5354 DATA
	__fu704__ZNSs4_Rep20_S_empty_rep_storageE @ 5355 DATA
	__fu705__ZNSs4_Rep20_S_empty_rep_storageE @ 5356 DATA
	__fu706__ZNSs4_Rep20_S_empty_rep_storageE @ 5357 DATA
	__fu707__ZNSs4_Rep20_S_empty_rep_storageE @ 5358 DATA
	__fu708__ZNSs4_Rep20_S_empty_rep_storageE @ 5359 DATA
	__fu709__ZNSs4_Rep20_S_empty_rep_storageE @ 5360 DATA
	__fu70__ZNSs4_Rep20_S_empty_rep_storageE @ 5361 DATA
	__fu710__ZNSs4_Rep20_S_empty_rep_storageE @ 5362 DATA
	__fu711__ZNSs4_Rep20_S_empty_rep_storageE @ 5363 DATA
	__fu712__ZNSs4_Rep20_S_empty_rep_storageE @ 5364 DATA
	__fu713__ZNSs4_Rep20_S_empty_rep_storageE @ 5365 DATA
	__fu714__ZNSs4_Rep20_S_empty_rep_storageE @ 5366 DATA
	__fu715__ZNSs4_Rep20_S_empty_rep_storageE @ 5367 DATA
	__fu716__ZNSs4_Rep20_S_empty_rep_storageE @ 5368 DATA
	__fu717__ZNSs4_Rep20_S_empty_rep_storageE @ 5369 DATA
	__fu718__ZNSs4_Rep20_S_empty_rep_storageE @ 5370 DATA
	__fu719__ZNSs4_Rep20_S_empty_rep_storageE @ 5371 DATA
	__fu71__ZNSs4_Rep20_S_empty_rep_storageE @ 5372 DATA
	__fu720__ZNSs4_Rep20_S_empty_rep_storageE @ 5373 DATA
	__fu721__ZNSs4_Rep20_S_empty_rep_storageE @ 5374 DATA
	__fu722__ZNSs4_Rep20_S_empty_rep_storageE @ 5375 DATA
	__fu723__ZNSs4_Rep20_S_empty_rep_storageE @ 5376 DATA
	__fu724__ZNSs4_Rep20_S_empty_rep_storageE @ 5377 DATA
	__fu725__ZNSs4_Rep20_S_empty_rep_storageE @ 5378 DATA
	__fu726__ZNSs4_Rep20_S_empty_rep_storageE @ 5379 DATA
	__fu727__ZNSs4_Rep20_S_empty_rep_storageE @ 5380 DATA
	__fu728__ZNSs4_Rep20_S_empty_rep_storageE @ 5381 DATA
	__fu729__ZNSs4_Rep20_S_empty_rep_storageE @ 5382 DATA
	__fu72__ZNSs4_Rep20_S_empty_rep_storageE @ 5383 DATA
	__fu730__ZNSs4_Rep20_S_empty_rep_storageE @ 5384 DATA
	__fu731__ZNSs4_Rep20_S_empty_rep_storageE @ 5385 DATA
	__fu732__ZNSs4_Rep20_S_empty_rep_storageE @ 5386 DATA
	__fu733__ZNSs4_Rep20_S_empty_rep_storageE @ 5387 DATA
	__fu734__ZNSs4_Rep20_S_empty_rep_storageE @ 5388 DATA
	__fu735__ZNSs4_Rep20_S_empty_rep_storageE @ 5389 DATA
	__fu736__ZNSs4_Rep20_S_empty_rep_storageE @ 5390 DATA
	__fu737__ZNSs4_Rep20_S_empty_rep_storageE @ 5391 DATA
	__fu738__ZNSs4_Rep20_S_empty_rep_storageE @ 5392 DATA
	__fu739__ZNSs4_Rep20_S_empty_rep_storageE @ 5393 DATA
	__fu73__ZNSs4_Rep20_S_empty_rep_storageE @ 5394 DATA
	__fu740__ZNSs4_Rep20_S_empty_rep_storageE @ 5395 DATA
	__fu741__ZNSs4_Rep20_S_empty_rep_storageE @ 5396 DATA
	__fu742__ZNSs4_Rep20_S_empty_rep_storageE @ 5397 DATA
	__fu743__ZNSs4_Rep20_S_empty_rep_storageE @ 5398 DATA
	__fu744__ZNSs4_Rep20_S_empty_rep_storageE @ 5399 DATA
	__fu745__ZNSs4_Rep20_S_empty_rep_storageE @ 5400 DATA
	__fu746__ZNSs4_Rep20_S_empty_rep_storageE @ 5401 DATA
	__fu747__ZNSs4_Rep20_S_empty_rep_storageE @ 5402 DATA
	__fu748__ZNSs4_Rep20_S_empty_rep_storageE @ 5403 DATA
	__fu749__ZNSs4_Rep20_S_empty_rep_storageE @ 5404 DATA
	__fu74__ZNSs4_Rep20_S_empty_rep_storageE @ 5405 DATA
	__fu750__ZNSs4_Rep20_S_empty_rep_storageE @ 5406 DATA
	__fu751__ZNSs4_Rep20_S_empty_rep_storageE @ 5407 DATA
	__fu752__ZNSs4_Rep20_S_empty_rep_storageE @ 5408 DATA
	__fu753__ZNSs4_Rep20_S_empty_rep_storageE @ 5409 DATA
	__fu754__ZNSs4_Rep20_S_empty_rep_storageE @ 5410 DATA
	__fu755__ZNSs4_Rep20_S_empty_rep_storageE @ 5411 DATA
	__fu756__ZNSs4_Rep20_S_empty_rep_storageE @ 5412 DATA
	__fu757__ZNSs4_Rep20_S_empty_rep_storageE @ 5413 DATA
	__fu758__ZNSs4_Rep20_S_empty_rep_storageE @ 5414 DATA
	__fu759__ZNSs4_Rep20_S_empty_rep_storageE @ 5415 DATA
	__fu75__ZNSs4_Rep20_S_empty_rep_storageE @ 5416 DATA
	__fu760__ZNSs4_Rep20_S_empty_rep_storageE @ 5417 DATA
	__fu761__ZNSs4_Rep20_S_empty_rep_storageE @ 5418 DATA
	__fu762__ZNSs4_Rep20_S_empty_rep_storageE @ 5419 DATA
	__fu763__ZNSs4_Rep20_S_empty_rep_storageE @ 5420 DATA
	__fu764__ZNSs4_Rep20_S_empty_rep_storageE @ 5421 DATA
	__fu765__ZNSs4_Rep20_S_empty_rep_storageE @ 5422 DATA
	__fu766__ZNSs4_Rep20_S_empty_rep_storageE @ 5423 DATA
	__fu767__ZNSs4_Rep20_S_empty_rep_storageE @ 5424 DATA
	__fu768__ZNSs4_Rep20_S_empty_rep_storageE @ 5425 DATA
	__fu769__ZNSs4_Rep20_S_empty_rep_storageE @ 5426 DATA
	__fu76__ZNSs4_Rep20_S_empty_rep_storageE @ 5427 DATA
	__fu770__ZNSs4_Rep20_S_empty_rep_storageE @ 5428 DATA
	__fu771__ZNSs4_Rep20_S_empty_rep_storageE @ 5429 DATA
	__fu772__ZNSs4_Rep20_S_empty_rep_storageE @ 5430 DATA
	__fu773__ZNSs4_Rep20_S_empty_rep_storageE @ 5431 DATA
	__fu774__ZNSs4_Rep20_S_empty_rep_storageE @ 5432 DATA
	__fu775__ZNSs4_Rep20_S_empty_rep_storageE @ 5433 DATA
	__fu776__ZNSs4_Rep20_S_empty_rep_storageE @ 5434 DATA
	__fu777__ZNSs4_Rep20_S_empty_rep_storageE @ 5435 DATA
	__fu778__ZNSs4_Rep20_S_empty_rep_storageE @ 5436 DATA
	__fu779__ZNSs4_Rep20_S_empty_rep_storageE @ 5437 DATA
	__fu77__ZNSs4_Rep20_S_empty_rep_storageE @ 5438 DATA
	__fu780__ZNSs4_Rep20_S_empty_rep_storageE @ 5439 DATA
	__fu781__ZNSs4_Rep20_S_empty_rep_storageE @ 5440 DATA
	__fu782__ZNSs4_Rep20_S_empty_rep_storageE @ 5441 DATA
	__fu783__ZNSs4_Rep20_S_empty_rep_storageE @ 5442 DATA
	__fu784__ZNSs4_Rep20_S_empty_rep_storageE @ 5443 DATA
	__fu785__ZNSs4_Rep20_S_empty_rep_storageE @ 5444 DATA
	__fu786__ZNSs4_Rep20_S_empty_rep_storageE @ 5445 DATA
	__fu787__ZNSs4_Rep20_S_empty_rep_storageE @ 5446 DATA
	__fu788__ZNSs4_Rep20_S_empty_rep_storageE @ 5447 DATA
	__fu789__ZNSs4_Rep20_S_empty_rep_storageE @ 5448 DATA
	__fu78__ZNSs4_Rep20_S_empty_rep_storageE @ 5449 DATA
	__fu790__ZNSs4_Rep20_S_empty_rep_storageE @ 5450 DATA
	__fu791__ZNSs4_Rep20_S_empty_rep_storageE @ 5451 DATA
	__fu792__ZNSs4_Rep20_S_empty_rep_storageE @ 5452 DATA
	__fu793__ZNSs4_Rep20_S_empty_rep_storageE @ 5453 DATA
	__fu794__ZNSs4_Rep20_S_empty_rep_storageE @ 5454 DATA
	__fu795__ZNSs4_Rep20_S_empty_rep_storageE @ 5455 DATA
	__fu796__ZNSs4_Rep20_S_empty_rep_storageE @ 5456 DATA
	__fu797__ZNSs4_Rep20_S_empty_rep_storageE @ 5457 DATA
	__fu798__ZNSs4_Rep20_S_empty_rep_storageE @ 5458 DATA
	__fu799__ZNSs4_Rep20_S_empty_rep_storageE @ 5459 DATA
	__fu79__ZNSs4_Rep20_S_empty_rep_storageE @ 5460 DATA
	__fu7__ZNSs4_Rep20_S_empty_rep_storageE @ 5461 DATA
	__fu800__ZNSs4_Rep20_S_empty_rep_storageE @ 5462 DATA
	__fu801__ZNSs4_Rep20_S_empty_rep_storageE @ 5463 DATA
	__fu802__ZNSs4_Rep20_S_empty_rep_storageE @ 5464 DATA
	__fu803__ZNSs4_Rep20_S_empty_rep_storageE @ 5465 DATA
	__fu804__ZNSs4_Rep20_S_empty_rep_storageE @ 5466 DATA
	__fu805__ZNSs4_Rep20_S_empty_rep_storageE @ 5467 DATA
	__fu806__ZNSs4_Rep20_S_empty_rep_storageE @ 5468 DATA
	__fu807__ZNSs4_Rep20_S_empty_rep_storageE @ 5469 DATA
	__fu808__ZNSs4_Rep20_S_empty_rep_storageE @ 5470 DATA
	__fu809__ZNSs4_Rep20_S_empty_rep_storageE @ 5471 DATA
	__fu80__ZNSs4_Rep20_S_empty_rep_storageE @ 5472 DATA
	__fu810__ZNSs4_Rep20_S_empty_rep_storageE @ 5473 DATA
	__fu811__ZNSs4_Rep20_S_empty_rep_storageE @ 5474 DATA
	__fu812__ZNSs4_Rep20_S_empty_rep_storageE @ 5475 DATA
	__fu813__ZNSs4_Rep20_S_empty_rep_storageE @ 5476 DATA
	__fu814__ZNSs4_Rep20_S_empty_rep_storageE @ 5477 DATA
	__fu815__ZNSs4_Rep20_S_empty_rep_storageE @ 5478 DATA
	__fu816__ZNSs4_Rep20_S_empty_rep_storageE @ 5479 DATA
	__fu817__ZNSs4_Rep20_S_empty_rep_storageE @ 5480 DATA
	__fu818__ZNSs4_Rep20_S_empty_rep_storageE @ 5481 DATA
	__fu819__ZNSs4_Rep20_S_empty_rep_storageE @ 5482 DATA
	__fu81__ZNSs4_Rep20_S_empty_rep_storageE @ 5483 DATA
	__fu820__ZNSs4_Rep20_S_empty_rep_storageE @ 5484 DATA
	__fu821__ZNSs4_Rep20_S_empty_rep_storageE @ 5485 DATA
	__fu822__ZNSs4_Rep20_S_empty_rep_storageE @ 5486 DATA
	__fu823__ZNSs4_Rep20_S_empty_rep_storageE @ 5487 DATA
	__fu824__ZNSs4_Rep20_S_empty_rep_storageE @ 5488 DATA
	__fu825__ZNSs4_Rep20_S_empty_rep_storageE @ 5489 DATA
	__fu826__ZNSs4_Rep20_S_empty_rep_storageE @ 5490 DATA
	__fu827__ZNSs4_Rep20_S_empty_rep_storageE @ 5491 DATA
	__fu828__ZNSs4_Rep20_S_empty_rep_storageE @ 5492 DATA
	__fu829__ZNSs4_Rep20_S_empty_rep_storageE @ 5493 DATA
	__fu82__ZNSs4_Rep20_S_empty_rep_storageE @ 5494 DATA
	__fu830__ZNSs4_Rep20_S_empty_rep_storageE @ 5495 DATA
	__fu831__ZNSs4_Rep20_S_empty_rep_storageE @ 5496 DATA
	__fu832__ZNSs4_Rep20_S_empty_rep_storageE @ 5497 DATA
	__fu833__ZNSs4_Rep20_S_empty_rep_storageE @ 5498 DATA
	__fu834__ZNSs4_Rep20_S_empty_rep_storageE @ 5499 DATA
	__fu835__ZNSs4_Rep20_S_empty_rep_storageE @ 5500 DATA
	__fu836__ZNSs4_Rep20_S_empty_rep_storageE @ 5501 DATA
	__fu837__ZNSs4_Rep20_S_empty_rep_storageE @ 5502 DATA
	__fu838__ZNSs4_Rep20_S_empty_rep_storageE @ 5503 DATA
	__fu839__ZNSs4_Rep20_S_empty_rep_storageE @ 5504 DATA
	__fu83__ZNSs4_Rep20_S_empty_rep_storageE @ 5505 DATA
	__fu840__ZNSs4_Rep20_S_empty_rep_storageE @ 5506 DATA
	__fu841__ZNSs4_Rep20_S_empty_rep_storageE @ 5507 DATA
	__fu842__ZNSs4_Rep20_S_empty_rep_storageE @ 5508 DATA
	__fu843__ZNSs4_Rep20_S_empty_rep_storageE @ 5509 DATA
	__fu844__ZNSs4_Rep20_S_empty_rep_storageE @ 5510 DATA
	__fu845__ZNSs4_Rep20_S_empty_rep_storageE @ 5511 DATA
	__fu846__ZNSs4_Rep20_S_empty_rep_storageE @ 5512 DATA
	__fu847__ZNSs4_Rep20_S_empty_rep_storageE @ 5513 DATA
	__fu848__ZNSs4_Rep20_S_empty_rep_storageE @ 5514 DATA
	__fu849__ZNSs4_Rep20_S_empty_rep_storageE @ 5515 DATA
	__fu84__ZNSs4_Rep20_S_empty_rep_storageE @ 5516 DATA
	__fu850__ZNSs4_Rep20_S_empty_rep_storageE @ 5517 DATA
	__fu851__ZNSs4_Rep20_S_empty_rep_storageE @ 5518 DATA
	__fu852__ZNSs4_Rep20_S_empty_rep_storageE @ 5519 DATA
	__fu853__ZNSs4_Rep20_S_empty_rep_storageE @ 5520 DATA
	__fu854__ZNSs4_Rep20_S_empty_rep_storageE @ 5521 DATA
	__fu855__ZNSs4_Rep20_S_empty_rep_storageE @ 5522 DATA
	__fu856__ZNSs4_Rep20_S_empty_rep_storageE @ 5523 DATA
	__fu857__ZNSs4_Rep20_S_empty_rep_storageE @ 5524 DATA
	__fu858__ZNSs4_Rep20_S_empty_rep_storageE @ 5525 DATA
	__fu859__ZNSs4_Rep20_S_empty_rep_storageE @ 5526 DATA
	__fu85__ZNSs4_Rep20_S_empty_rep_storageE @ 5527 DATA
	__fu860__ZNSs4_Rep20_S_empty_rep_storageE @ 5528 DATA
	__fu861__ZNSs4_Rep20_S_empty_rep_storageE @ 5529 DATA
	__fu862__ZNSs4_Rep20_S_empty_rep_storageE @ 5530 DATA
	__fu863__ZNSs4_Rep20_S_empty_rep_storageE @ 5531 DATA
	__fu864__ZNSs4_Rep20_S_empty_rep_storageE @ 5532 DATA
	__fu865__ZNSs4_Rep20_S_empty_rep_storageE @ 5533 DATA
	__fu866__ZNSs4_Rep20_S_empty_rep_storageE @ 5534 DATA
	__fu867__ZNSs4_Rep20_S_empty_rep_storageE @ 5535 DATA
	__fu868__ZNSs4_Rep20_S_empty_rep_storageE @ 5536 DATA
	__fu869__ZNSs4_Rep20_S_empty_rep_storageE @ 5537 DATA
	__fu86__ZNSs4_Rep20_S_empty_rep_storageE @ 5538 DATA
	__fu870__ZNSs4_Rep20_S_empty_rep_storageE @ 5539 DATA
	__fu871__ZNSs4_Rep20_S_empty_rep_storageE @ 5540 DATA
	__fu872__ZNSs4_Rep20_S_empty_rep_storageE @ 5541 DATA
	__fu873__ZNSs4_Rep20_S_empty_rep_storageE @ 5542 DATA
	__fu874__ZNSs4_Rep20_S_empty_rep_storageE @ 5543 DATA
	__fu875__ZNSs4_Rep20_S_empty_rep_storageE @ 5544 DATA
	__fu876__ZNSs4_Rep20_S_empty_rep_storageE @ 5545 DATA
	__fu877__ZNSs4_Rep20_S_empty_rep_storageE @ 5546 DATA
	__fu878__ZNSs4_Rep20_S_empty_rep_storageE @ 5547 DATA
	__fu879__ZNSs4_Rep20_S_empty_rep_storageE @ 5548 DATA
	__fu87__ZNSs4_Rep20_S_empty_rep_storageE @ 5549 DATA
	__fu880__ZNSs4_Rep20_S_empty_rep_storageE @ 5550 DATA
	__fu881__ZNSs4_Rep20_S_empty_rep_storageE @ 5551 DATA
	__fu882__ZNSs4_Rep20_S_empty_rep_storageE @ 5552 DATA
	__fu883__ZNSs4_Rep20_S_empty_rep_storageE @ 5553 DATA
	__fu884__ZNSs4_Rep20_S_empty_rep_storageE @ 5554 DATA
	__fu885__ZNSs4_Rep20_S_empty_rep_storageE @ 5555 DATA
	__fu886__ZNSs4_Rep20_S_empty_rep_storageE @ 5556 DATA
	__fu887__ZNSs4_Rep20_S_empty_rep_storageE @ 5557 DATA
	__fu888__ZNSs4_Rep20_S_empty_rep_storageE @ 5558 DATA
	__fu889__ZNSs4_Rep20_S_empty_rep_storageE @ 5559 DATA
	__fu88__ZNSs4_Rep20_S_empty_rep_storageE @ 5560 DATA
	__fu890__ZNSs4_Rep20_S_empty_rep_storageE @ 5561 DATA
	__fu891__ZNSs4_Rep20_S_empty_rep_storageE @ 5562 DATA
	__fu892__ZNSs4_Rep20_S_empty_rep_storageE @ 5563 DATA
	__fu893__ZNSs4_Rep20_S_empty_rep_storageE @ 5564 DATA
	__fu894__ZNSs4_Rep20_S_empty_rep_storageE @ 5565 DATA
	__fu895__ZNSs4_Rep20_S_empty_rep_storageE @ 5566 DATA
	__fu896__ZNSs4_Rep20_S_empty_rep_storageE @ 5567 DATA
	__fu897__ZNSs4_Rep20_S_empty_rep_storageE @ 5568 DATA
	__fu898__ZNSs4_Rep20_S_empty_rep_storageE @ 5569 DATA
	__fu899__ZNSs4_Rep20_S_empty_rep_storageE @ 5570 DATA
	__fu89__ZNSs4_Rep20_S_empty_rep_storageE @ 5571 DATA
	__fu8__ZNSs4_Rep20_S_empty_rep_storageE @ 5572 DATA
	__fu900__ZNSs4_Rep20_S_empty_rep_storageE @ 5573 DATA
	__fu901__ZNSs4_Rep20_S_empty_rep_storageE @ 5574 DATA
	__fu902__ZNSs4_Rep20_S_empty_rep_storageE @ 5575 DATA
	__fu903__ZNSs4_Rep20_S_empty_rep_storageE @ 5576 DATA
	__fu904__ZNSs4_Rep20_S_empty_rep_storageE @ 5577 DATA
	__fu905__ZNSs4_Rep20_S_empty_rep_storageE @ 5578 DATA
	__fu906__ZNSs4_Rep20_S_empty_rep_storageE @ 5579 DATA
	__fu907__ZNSs4_Rep20_S_empty_rep_storageE @ 5580 DATA
	__fu908__ZNSs4_Rep20_S_empty_rep_storageE @ 5581 DATA
	__fu909__ZNSs4_Rep20_S_empty_rep_storageE @ 5582 DATA
	__fu90__ZNSs4_Rep20_S_empty_rep_storageE @ 5583 DATA
	__fu910__ZNSs4_Rep20_S_empty_rep_storageE @ 5584 DATA
	__fu911__ZNSs4_Rep20_S_empty_rep_storageE @ 5585 DATA
	__fu912__ZNSs4_Rep20_S_empty_rep_storageE @ 5586 DATA
	__fu913__ZNSs4_Rep20_S_empty_rep_storageE @ 5587 DATA
	__fu914__ZNSs4_Rep20_S_empty_rep_storageE @ 5588 DATA
	__fu915__ZNSs4_Rep20_S_empty_rep_storageE @ 5589 DATA
	__fu916__ZNSs4_Rep20_S_empty_rep_storageE @ 5590 DATA
	__fu917__ZNSs4_Rep20_S_empty_rep_storageE @ 5591 DATA
	__fu918__ZNSs4_Rep20_S_empty_rep_storageE @ 5592 DATA
	__fu919__ZNSs4_Rep20_S_empty_rep_storageE @ 5593 DATA
	__fu91__ZNSs4_Rep20_S_empty_rep_storageE @ 5594 DATA
	__fu920__ZNSs4_Rep20_S_empty_rep_storageE @ 5595 DATA
	__fu921__ZNSs4_Rep20_S_empty_rep_storageE @ 5596 DATA
	__fu922__ZNSs4_Rep20_S_empty_rep_storageE @ 5597 DATA
	__fu923__ZNSs4_Rep20_S_empty_rep_storageE @ 5598 DATA
	__fu924__ZNSs4_Rep20_S_empty_rep_storageE @ 5599 DATA
	__fu925__ZNSs4_Rep20_S_empty_rep_storageE @ 5600 DATA
	__fu926__ZNSs4_Rep20_S_empty_rep_storageE @ 5601 DATA
	__fu927__ZNSs4_Rep20_S_empty_rep_storageE @ 5602 DATA
	__fu928__ZNSs4_Rep20_S_empty_rep_storageE @ 5603 DATA
	__fu929__ZNSs4_Rep20_S_empty_rep_storageE @ 5604 DATA
	__fu92__ZNSs4_Rep20_S_empty_rep_storageE @ 5605 DATA
	__fu930__ZNSs4_Rep20_S_empty_rep_storageE @ 5606 DATA
	__fu931__ZNSs4_Rep20_S_empty_rep_storageE @ 5607 DATA
	__fu932__ZNSs4_Rep20_S_empty_rep_storageE @ 5608 DATA
	__fu933__ZNSs4_Rep20_S_empty_rep_storageE @ 5609 DATA
	__fu934__ZNSs4_Rep20_S_empty_rep_storageE @ 5610 DATA
	__fu935__ZNSs4_Rep20_S_empty_rep_storageE @ 5611 DATA
	__fu936__ZNSs4_Rep20_S_empty_rep_storageE @ 5612 DATA
	__fu937__ZNSs4_Rep20_S_empty_rep_storageE @ 5613 DATA
	__fu938__ZNSs4_Rep20_S_empty_rep_storageE @ 5614 DATA
	__fu939__ZNSs4_Rep20_S_empty_rep_storageE @ 5615 DATA
	__fu93__ZNSs4_Rep20_S_empty_rep_storageE @ 5616 DATA
	__fu940__ZNSs4_Rep20_S_empty_rep_storageE @ 5617 DATA
	__fu941__ZNSs4_Rep20_S_empty_rep_storageE @ 5618 DATA
	__fu942__ZNSs4_Rep20_S_empty_rep_storageE @ 5619 DATA
	__fu943__ZNSs4_Rep20_S_empty_rep_storageE @ 5620 DATA
	__fu944__ZNSs4_Rep20_S_empty_rep_storageE @ 5621 DATA
	__fu945__ZNSs4_Rep20_S_empty_rep_storageE @ 5622 DATA
	__fu946__ZNSs4_Rep20_S_empty_rep_storageE @ 5623 DATA
	__fu947__ZNSs4_Rep20_S_empty_rep_storageE @ 5624 DATA
	__fu948__ZNSs4_Rep20_S_empty_rep_storageE @ 5625 DATA
	__fu949__ZNSs4_Rep20_S_empty_rep_storageE @ 5626 DATA
	__fu94__ZNSs4_Rep20_S_empty_rep_storageE @ 5627 DATA
	__fu950__ZNSs4_Rep20_S_empty_rep_storageE @ 5628 DATA
	__fu951__ZNSs4_Rep20_S_empty_rep_storageE @ 5629 DATA
	__fu952__ZNSs4_Rep20_S_empty_rep_storageE @ 5630 DATA
	__fu953__ZNSs4_Rep20_S_empty_rep_storageE @ 5631 DATA
	__fu954__ZNSs4_Rep20_S_empty_rep_storageE @ 5632 DATA
	__fu955__ZNSs4_Rep20_S_empty_rep_storageE @ 5633 DATA
	__fu956__ZNSs4_Rep20_S_empty_rep_storageE @ 5634 DATA
	__fu957__ZNSs4_Rep20_S_empty_rep_storageE @ 5635 DATA
	__fu958__ZNSs4_Rep20_S_empty_rep_storageE @ 5636 DATA
	__fu959__ZNSs4_Rep20_S_empty_rep_storageE @ 5637 DATA
	__fu95__ZNSs4_Rep20_S_empty_rep_storageE @ 5638 DATA
	__fu960__ZNSs4_Rep20_S_empty_rep_storageE @ 5639 DATA
	__fu961__ZNSs4_Rep20_S_empty_rep_storageE @ 5640 DATA
	__fu962__ZNSs4_Rep20_S_empty_rep_storageE @ 5641 DATA
	__fu963__ZNSs4_Rep20_S_empty_rep_storageE @ 5642 DATA
	__fu964__ZNSs4_Rep20_S_empty_rep_storageE @ 5643 DATA
	__fu965__ZNSs4_Rep20_S_empty_rep_storageE @ 5644 DATA
	__fu966__ZNSs4_Rep20_S_empty_rep_storageE @ 5645 DATA
	__fu967__ZNSs4_Rep20_S_empty_rep_storageE @ 5646 DATA
	__fu968__ZNSs4_Rep20_S_empty_rep_storageE @ 5647 DATA
	__fu969__ZNSs4_Rep20_S_empty_rep_storageE @ 5648 DATA
	__fu96__ZNSs4_Rep20_S_empty_rep_storageE @ 5649 DATA
	__fu970__ZNSs4_Rep20_S_empty_rep_storageE @ 5650 DATA
	__fu971__ZNSs4_Rep20_S_empty_rep_storageE @ 5651 DATA
	__fu972__ZNSs4_Rep20_S_empty_rep_storageE @ 5652 DATA
	__fu973__ZNSs4_Rep20_S_empty_rep_storageE @ 5653 DATA
	__fu974__ZNSs4_Rep20_S_empty_rep_storageE @ 5654 DATA
	__fu975__ZNSs4_Rep20_S_empty_rep_storageE @ 5655 DATA
	__fu976__ZNSs4_Rep20_S_empty_rep_storageE @ 5656 DATA
	__fu977__ZNSs4_Rep20_S_empty_rep_storageE @ 5657 DATA
	__fu978__ZNSs4_Rep20_S_empty_rep_storageE @ 5658 DATA
	__fu979__ZNSs4_Rep20_S_empty_rep_storageE @ 5659 DATA
	__fu97__ZNSs4_Rep20_S_empty_rep_storageE @ 5660 DATA
	__fu980__ZNSs4_Rep20_S_empty_rep_storageE @ 5661 DATA
	__fu981__ZNSs4_Rep20_S_empty_rep_storageE @ 5662 DATA
	__fu982__ZNSs4_Rep20_S_empty_rep_storageE @ 5663 DATA
	__fu983__ZNSs4_Rep20_S_empty_rep_storageE @ 5664 DATA
	__fu984__ZNSs4_Rep20_S_empty_rep_storageE @ 5665 DATA
	__fu985__ZNSs4_Rep20_S_empty_rep_storageE @ 5666 DATA
	__fu986__ZNSs4_Rep20_S_empty_rep_storageE @ 5667 DATA
	__fu987__ZNSs4_Rep20_S_empty_rep_storageE @ 5668 DATA
	__fu988__ZNSs4_Rep20_S_empty_rep_storageE @ 5669 DATA
	__fu989__ZNSs4_Rep20_S_empty_rep_storageE @ 5670 DATA
	__fu98__ZNSs4_Rep20_S_empty_rep_storageE @ 5671 DATA
	__fu990__ZNSs4_Rep20_S_empty_rep_storageE @ 5672 DATA
	__fu991__ZNSs4_Rep20_S_empty_rep_storageE @ 5673 DATA
	__fu992__ZNSs4_Rep20_S_empty_rep_storageE @ 5674 DATA
	__fu993__ZNSs4_Rep20_S_empty_rep_storageE @ 5675 DATA
	__fu994__ZNSs4_Rep20_S_empty_rep_storageE @ 5676 DATA
	__fu995__ZNSs4_Rep20_S_empty_rep_storageE @ 5677 DATA
	__fu996__ZNSs4_Rep20_S_empty_rep_storageE @ 5678 DATA
	__fu997__ZNSs4_Rep20_S_empty_rep_storageE @ 5679 DATA
	__fu998__ZNSs4_Rep20_S_empty_rep_storageE @ 5680 DATA
	__fu999__ZNSs4_Rep20_S_empty_rep_storageE @ 5681 DATA
	__fu99__ZNSs4_Rep20_S_empty_rep_storageE @ 5682 DATA
	__fu9__ZNSs4_Rep20_S_empty_rep_storageE @ 5683 DATA
	__gdtoa @ 5684
	__gethex_D2A @ 5685
	__gxx_personality_sj0 @ 5686
	__hexdig_D2A @ 5687 DATA
	__hexnan_D2A @ 5688
	__i2b_D2A @ 5689
	__image_base__ @ 5690 DATA
	__imp_DeleteCriticalSection @ 5691 DATA
	__imp_DeleteFileA @ 5692 DATA
	__imp_EnterCriticalSection @ 5693 DATA
	__imp_GetCurrentProcess @ 5694 DATA
	__imp_GetCurrentProcessId @ 5695 DATA
	__imp_GetCurrentThreadId @ 5696 DATA
	__imp_GetLastError @ 5697 DATA
	__imp_GetModuleHandleA @ 5698 DATA
	__imp_GetProcAddress @ 5699 DATA
	__imp_GetSystemInfo @ 5700 DATA
	__imp_GetSystemTimeAsFileTime @ 5701 DATA
	__imp_GetTempFileNameA @ 5702 DATA
	__imp_GetTempPathA @ 5703 DATA
	__imp_GetTickCount @ 5704 DATA
	__imp_InitializeCriticalSection @ 5705 DATA
	__imp_IsDBCSLeadByteEx @ 5706 DATA
	__imp_LeaveCriticalSection @ 5707 DATA
	__imp_LoadLibraryW @ 5708 DATA
	__imp_MultiByteToWideChar @ 5709 DATA
	__imp_QueryPerformanceCounter @ 5710 DATA
	__imp_QueryPerformanceFrequency @ 5711 DATA
	__imp_RtlAddFunctionTable @ 5712 DATA
	__imp_RtlCaptureContext @ 5713 DATA
	__imp_RtlLookupFunctionEntry @ 5714 DATA
	__imp_RtlVirtualUnwind @ 5715 DATA
	__imp_SetUnhandledExceptionFilter @ 5716 DATA
	__imp_Sleep @ 5717 DATA
	__imp_TerminateProcess @ 5718 DATA
	__imp_TlsAlloc @ 5719 DATA
	__imp_TlsGetValue @ 5720 DATA
	__imp_TlsSetValue @ 5721 DATA
	__imp_TryEnterCriticalSection @ 5722 DATA
	__imp_UnhandledExceptionFilter @ 5723 DATA
	__imp_VirtualProtect @ 5724 DATA
	__imp_VirtualQuery @ 5725 DATA
	__imp_WideCharToMultiByte @ 5726 DATA
	__imp__Unwind_SjLj_Register @ 5727 DATA
	__imp__Unwind_SjLj_Resume @ 5728 DATA
	__imp__Unwind_SjLj_Unregister @ 5729 DATA
	__imp__ZNKSs4findEPKcyy @ 5730 DATA
	__imp__ZNKSs4findEcy @ 5731 DATA
	__imp__ZNKSs5rfindEcy @ 5732 DATA
	__imp__ZNKSs7compareEPKc @ 5733 DATA
	__imp__ZNKSt5ctypeIcE13_M_widen_initEv @ 5734 DATA
	__imp__ZNSbIwSt11char_traitsIwESaIwEE4_Rep20_S_empty_rep_storageE @ 5735 DATA
	__imp__ZNSbIwSt11char_traitsIwESaIwEEC1EPKwRKS1_ @ 5736 DATA
	__imp__ZNSdD2Ev @ 5737 DATA
	__imp__ZNSi10_M_extractIdEERSiRT_ @ 5738 DATA
	__imp__ZNSi10_M_extractIfEERSiRT_ @ 5739 DATA
	__imp__ZNSi10_M_extractIjEERSiRT_ @ 5740 DATA
	__imp__ZNSi10_M_extractIyEERSiRT_ @ 5741 DATA
	__imp__ZNSirsERi @ 5742 DATA
	__imp__ZNSo3putEc @ 5743 DATA
	__imp__ZNSo5flushEv @ 5744 DATA
	__imp__ZNSo9_M_insertIdEERSoT_ @ 5745 DATA
	__imp__ZNSolsEi @ 5746 DATA
	__imp__ZNSs12_M_leak_hardEv @ 5747 DATA
	__imp__ZNSs4_Rep10_M_destroyERKSaIcE @ 5748 DATA
	__imp__ZNSs4_Rep20_S_empty_rep_storageE @ 5749 DATA
	__imp__ZNSs5eraseEN9__gnu_cxx17__normal_iteratorIPcSsEES2_ @ 5750 DATA
	__imp__ZNSs6appendEPKcy @ 5751 DATA
	__imp__ZNSs6appendERKSs @ 5752 DATA
	__imp__ZNSs6appendEyc @ 5753 DATA
	__imp__ZNSs6assignEPKcy @ 5754 DATA
	__imp__ZNSs6assignERKSs @ 5755 DATA
	__imp__ZNSs6resizeEyc @ 5756 DATA
	__imp__ZNSs7reserveEy @ 5757 DATA
	__imp__ZNSs9_M_mutateEyyy @ 5758 DATA
	__imp__ZNSsC1EPKcRKSaIcE @ 5759 DATA
	__imp__ZNSsC1EPKcyRKSaIcE @ 5760 DATA
	__imp__ZNSsC1ERKSs @ 5761 DATA
	__imp__ZNSsC1ERKSsyy @ 5762 DATA
	__imp__ZNSsD1Ev @ 5763 DATA
	__imp__ZNSt15basic_streambufIcSt11char_traitsIcEED2Ev @ 5764 DATA
	__imp__ZNSt15basic_stringbufIcSt11char_traitsIcESaIcEE7_M_syncEPcyy @ 5765 DATA
	__imp__ZNSt18basic_stringstreamIcSt11char_traitsIcESaIcEED1Ev @ 5766 DATA
	__imp__ZNSt6localeC1Ev @ 5767 DATA
	__imp__ZNSt6localeD1Ev @ 5768 DATA
	__imp__ZNSt8ios_base4InitC1Ev @ 5769 DATA
	__imp__ZNSt8ios_base4InitD1Ev @ 5770 DATA
	__imp__ZNSt8ios_baseC2Ev @ 5771 DATA
	__imp__ZNSt8ios_baseD2Ev @ 5772 DATA
	__imp__ZNSt9basic_iosIcSt11char_traitsIcEE4initEPSt15basic_streambufIcS1_E @ 5773 DATA
	__imp__ZNSt9basic_iosIcSt11char_traitsIcEE5clearESt12_Ios_Iostate @ 5774 DATA
	__imp__ZNSt9basic_iosIcSt11char_traitsIcEED2Ev @ 5775 DATA
	__imp__ZNSt9exceptionD2Ev @ 5776 DATA
	__imp__ZSt16__ostream_insertIcSt11char_traitsIcEERSt13basic_ostreamIT_T0_ES6_PKS3_x @ 5777 DATA
	__imp__ZSt16__throw_bad_castv @ 5778 DATA
	__imp__ZSt17__throw_bad_allocv @ 5779 DATA
	__imp__ZSt18_Rb_tree_decrementPKSt18_Rb_tree_node_base @ 5780 DATA
	__imp__ZSt18_Rb_tree_decrementPSt18_Rb_tree_node_base @ 5781 DATA
	__imp__ZSt18_Rb_tree_incrementPKSt18_Rb_tree_node_base @ 5782 DATA
	__imp__ZSt18_Rb_tree_incrementPSt18_Rb_tree_node_base @ 5783 DATA
	__imp__ZSt18uncaught_exceptionv @ 5784 DATA
	__imp__ZSt20__throw_length_errorPKc @ 5785 DATA
	__imp__ZSt20__throw_out_of_rangePKc @ 5786 DATA
	__imp__ZSt29_Rb_tree_insert_and_rebalancebPSt18_Rb_tree_node_baseS0_RS_ @ 5787 DATA
	__imp__ZSt4cerr @ 5788 DATA
	__imp__ZSt4cout @ 5789 DATA
	__imp__ZSt9terminatev @ 5790 DATA
	__imp__ZTTSt18basic_stringstreamIcSt11char_traitsIcESaIcEE @ 5791 DATA
	__imp__ZTVN10__cxxabiv117__class_type_infoE @ 5792 DATA
	__imp__ZTVN10__cxxabiv120__si_class_type_infoE @ 5793 DATA
	__imp__ZTVSt15basic_streambufIcSt11char_traitsIcEE @ 5794 DATA
	__imp__ZTVSt15basic_stringbufIcSt11char_traitsIcESaIcEE @ 5795 DATA
	__imp__ZTVSt18basic_stringstreamIcSt11char_traitsIcESaIcEE @ 5796 DATA
	__imp__ZTVSt9basic_iosIcSt11char_traitsIcEE @ 5797 DATA
	__imp__ZdaPv @ 5798 DATA
	__imp__ZdlPv @ 5799 DATA
	__imp__Znay @ 5800 DATA
	__imp__Znwy @ 5801 DATA
	__imp___cxa_allocate_exception @ 5802 DATA
	__imp___cxa_begin_catch @ 5803 DATA
	__imp___cxa_end_catch @ 5804 DATA
	__imp___cxa_free_exception @ 5805 DATA
	__imp___cxa_guard_abort @ 5806 DATA
	__imp___cxa_guard_acquire @ 5807 DATA
	__imp___cxa_guard_release @ 5808 DATA
	__imp___cxa_pure_virtual @ 5809 DATA
	__imp___cxa_rethrow @ 5810 DATA
	__imp___cxa_throw @ 5811 DATA
	__imp___dllonexit @ 5812 DATA
	__imp___gxx_personality_sj0 @ 5813 DATA
	__imp___iob_func @ 5814 DATA
	__imp___mb_cur_max @ 5815 DATA
	__imp___setusermatherr @ 5816 DATA
	__imp__amsg_exit @ 5817 DATA
	__imp__errno @ 5818 DATA
	__imp__initterm @ 5819 DATA
	__imp__lock @ 5820 DATA
	__imp__lseeki64 @ 5821 DATA
	__imp__onexit @ 5822 DATA
	__imp__unlock @ 5823 DATA
	__imp__vsnprintf @ 5824 DATA
	__imp__wopen @ 5825 DATA
	__imp_abort @ 5826 DATA
	__imp_acos @ 5827 DATA
	__imp_atoi @ 5828 DATA
	__imp_calloc @ 5829 DATA
	__imp_close @ 5830 DATA
	__imp_fclose @ 5831 DATA
	__imp_feof @ 5832 DATA
	__imp_fflush @ 5833 DATA
	__imp_fgets @ 5834 DATA
	__imp_fopen @ 5835 DATA
	__imp_fprintf @ 5836 DATA
	__imp_fputc @ 5837 DATA
	__imp_fputs @ 5838 DATA
	__imp_free @ 5839 DATA
	__imp_fseek @ 5840 DATA
	__imp_ftell @ 5841 DATA
	__imp_getenv @ 5842 DATA
	__imp_isspace @ 5843 DATA
	__imp_isxdigit @ 5844 DATA
	__imp_localeconv @ 5845 DATA
	__imp_malloc @ 5846 DATA
	__imp_mbstowcs @ 5847 DATA
	__imp_memchr @ 5848 DATA
	__imp_memcmp @ 5849 DATA
	__imp_memcpy @ 5850 DATA
	__imp_memmove @ 5851 DATA
	__imp_memset @ 5852 DATA
	__imp_open @ 5853 DATA
	__imp_read @ 5854 DATA
	__imp_rewind @ 5855 DATA
	__imp_setlocale @ 5856 DATA
	__imp_signal @ 5857 DATA
	__imp_sprintf @ 5858 DATA
	__imp_strcat @ 5859 DATA
	__imp_strchr @ 5860 DATA
	__imp_strcmp @ 5861 DATA
	__imp_strcpy @ 5862 DATA
	__imp_strerror @ 5863 DATA
	__imp_strlen @ 5864 DATA
	__imp_strncmp @ 5865 DATA
	__imp_strncpy @ 5866 DATA
	__imp_strrchr @ 5867 DATA
	__imp_strstr @ 5868 DATA
	__imp_strtol @ 5869 DATA
	__imp_toupper @ 5870 DATA
	__imp_vsprintf @ 5871 DATA
	__imp_wcslen @ 5872 DATA
	__imp_wcstombs @ 5873 DATA
	__imp_write @ 5874 DATA
	__increment_D2A @ 5875
	__iob_func @ 5876
	__lc_codepage @ 5877 DATA
	__lib64_libkernel32_a_iname @ 5878 DATA
	__lib64_libmoldname_a_iname @ 5879 DATA
	__lib64_libmsvcrt_a_iname @ 5880 DATA
	__loader_flags__ @ 5881 DATA
	__logl_internal @ 5882
	__lshift_D2A @ 5883
	__main @ 5884
	__major_image_version__ @ 5885 DATA
	__major_os_version__ @ 5886 DATA
	__major_subsystem_version__ @ 5887 DATA
	__match_D2A @ 5888
	__mingw_GetSectionCount @ 5889
	__mingw_GetSectionForAddress @ 5890
	__mingw_SEH_error_handler @ 5891
	__mingw_TLScallback @ 5892
	__mingw_enum_import_library_names @ 5893
	__mingw_fprintf @ 5894
	__mingw_get_codepage @ 5895 DATA
	__mingw_get_msvcrt_handle @ 5896
	__mingw_get_output_format @ 5897
	__mingw_hexdig_init_D2A @ 5898
	__mingw_init_ehandler @ 5899
	__mingw_oldexcpt_handler @ 5900 DATA
	__mingw_pformat @ 5901
	__mingw_raise_matherr @ 5902
	__mingw_set_output_format @ 5903
	__mingw_setusermatherr @ 5904
	__mingw_vfprintf @ 5905
	__minor_image_version__ @ 5906 DATA
	__minor_os_version__ @ 5907 DATA
	__minor_subsystem_version__ @ 5908 DATA
	__mult_D2A @ 5909
	__multadd_D2A @ 5910
	__native_dllmain_reason @ 5911 DATA
	__native_startup_lock @ 5912 DATA
	__native_startup_state @ 5913 DATA
	__native_vcclrit_reason @ 5914 DATA
	__nm__ZNSbIwSt11char_traitsIwESaIwEE4_Rep20_S_empty_rep_storageE @ 5915 DATA
	__nm__ZNSs4_Rep20_S_empty_rep_storageE @ 5916 DATA
	__nm__ZSt4cerr @ 5917 DATA
	__nm__ZSt4cout @ 5918 DATA
	__nm__ZTTSt18basic_stringstreamIcSt11char_traitsIcESaIcEE @ 5919 DATA
	__nm__ZTVN10__cxxabiv117__class_type_infoE @ 5920 DATA
	__nm__ZTVN10__cxxabiv120__si_class_type_infoE @ 5921 DATA
	__nm__ZTVSt15basic_streambufIcSt11char_traitsIcEE @ 5922 DATA
	__nm__ZTVSt15basic_stringbufIcSt11char_traitsIcESaIcEE @ 5923 DATA
	__nm__ZTVSt18basic_stringstreamIcSt11char_traitsIcESaIcEE @ 5924 DATA
	__nm__ZTVSt9basic_iosIcSt11char_traitsIcEE @ 5925 DATA
	__nrv_alloc_D2A @ 5926
	__onexitbegin @ 5927 DATA
	__onexitend @ 5928 DATA
	__pow5mult_D2A @ 5929
	__powi @ 5930
	__quorem_D2A @ 5931
	__ratio_D2A @ 5932
	__report_gsfailure @ 5933
	__rshift_D2A @ 5934
	__rt_psrelocs_end @ 5935 DATA
	__rt_psrelocs_size @ 5936 DATA
	__rt_psrelocs_start @ 5937 DATA
	__rv_alloc_D2A @ 5938
	__s2b_D2A @ 5939
	__section_alignment__ @ 5940 DATA
	__security_cookie @ 5941 DATA
	__security_cookie_complement @ 5942 DATA
	__security_init_cookie @ 5943
	__set_ones_D2A @ 5944
	__setusermatherr @ 5945
	__sinl_internal @ 5946
	__size_of_heap_commit__ @ 5947 DATA
	__size_of_heap_reserve__ @ 5948 DATA
	__size_of_stack_commit__ @ 5949 DATA
	__size_of_stack_reserve__ @ 5950 DATA
	__strcp_D2A @ 5951
	__strtod @ 5952
	__strtodg @ 5953
	__subsystem__ @ 5954 DATA
	__sum_D2A @ 5955
	__tens_D2A @ 5956 DATA
	__tinytens_D2A @ 5957 DATA
	__tlregdtor @ 5958
	__trailz_D2A @ 5959
	__xc_a @ 5960 DATA
	__xc_z @ 5961 DATA
	__xi_a @ 5962 DATA
	__xi_z @ 5963 DATA
	__xl_a @ 5964 DATA
	__xl_c @ 5965 DATA
	__xl_d @ 5966 DATA
	__xl_z @ 5967 DATA
	_amsg_exit @ 5968
	_decode_pointer @ 5969
	_dist_code @ 5970 DATA
	_encode_pointer @ 5971
	_errno @ 5972
	_fpreset @ 5973
	_gnu_exception_handler @ 5974
	_head_lib64_libkernel32_a @ 5975 DATA
	_head_lib64_libmoldname_a @ 5976 DATA
	_head_lib64_libmsvcrt_a @ 5977 DATA
	_head_libgcc_s_sjlj_1_dll @ 5978 DATA
	_head_libstdc___6_dll @ 5979 DATA
	_initterm @ 5980
	_length_code @ 5981 DATA
	_lock @ 5982
	_lseeki64 @ 5983
	_matherr @ 5984
	_onexit @ 5985 DATA
	_pei386_runtime_relocator @ 5986
	_tls_end @ 5987 DATA
	_tls_index @ 5988 DATA
	_tls_start @ 5989 DATA
	_tls_used @ 5990 DATA
	_tr_align @ 5991
	_tr_flush_bits @ 5992
	_tr_flush_block @ 5993
	_tr_init @ 5994
	_tr_stored_block @ 5995
	_tr_tally @ 5996
	_unlock @ 5997
	_vsnprintf @ 5998 DATA
	_wopen @ 5999 DATA
	abort @ 6000
	acos @ 6001
	adler32 @ 6002
	adler32_combine @ 6003
	adler32_combine64 @ 6004
	atexit @ 6005
	atoi @ 6006
	calloc @ 6007
	close @ 6008
	cos @ 6009
	crc32 @ 6010
	crc32_combine @ 6011
	crc32_combine64 @ 6012
	cvAbsDiff @ 6013
	cvAbsDiffS @ 6014
	cvAdd @ 6015
	cvAddS @ 6016
	cvAddWeighted @ 6017
	cvAlloc @ 6018
	cvAnd @ 6019
	cvAndS @ 6020
	cvAttrValue @ 6021
	cvAvg @ 6022
	cvAvgSdv @ 6023
	cvBackProjectPCA @ 6024
	cvCalcCovarMatrix @ 6025
	cvCalcPCA @ 6026
	cvCartToPolar @ 6027
	cvCbrt @ 6028
	cvChangeSeqBlock @ 6029
	cvCheckArr @ 6030
	cvCheckHardwareSupport @ 6031
	cvCheckTermCriteria @ 6032
	cvCircle @ 6033
	cvClearGraph @ 6034
	cvClearMemStorage @ 6035
	cvClearND @ 6036
	cvClearSeq @ 6037
	cvClearSet @ 6038
	cvClipLine @ 6039
	cvClone @ 6040
	cvCloneGraph @ 6041
	cvCloneImage @ 6042
	cvCloneMat @ 6043
	cvCloneMatND @ 6044
	cvCloneSparseMat @ 6045
	cvCmp @ 6046
	cvCmpS @ 6047
	cvColorToScalar @ 6048
	cvCompleteSymm @ 6049
	cvConvertScale @ 6050
	cvConvertScaleAbs @ 6051
	cvCopy @ 6052
	cvCountNonZero @ 6053
	cvCreateChildMemStorage @ 6054
	cvCreateData @ 6055
	cvCreateGraph @ 6056
	cvCreateGraphScanner @ 6057
	cvCreateImage @ 6058
	cvCreateImageHeader @ 6059
	cvCreateMat @ 6060
	cvCreateMatHeader @ 6061
	cvCreateMatND @ 6062
	cvCreateMatNDHeader @ 6063
	cvCreateMemStorage @ 6064
	cvCreateSeq @ 6065
	cvCreateSeqBlock @ 6066
	cvCreateSet @ 6067
	cvCreateSparseMat @ 6068
	cvCrossProduct @ 6069
	cvCvtSeqToArray @ 6070
	cvDCT @ 6071
	cvDFT @ 6072
	cvDet @ 6073
	cvDiv @ 6074
	cvDotProduct @ 6075
	cvDrawContours @ 6076
	cvEigenVV @ 6077
	cvEllipse @ 6078
	cvEllipse2Poly @ 6079
	cvEndWriteSeq @ 6080
	cvEndWriteStruct @ 6081
	cvError @ 6082
	cvErrorFromIppStatus @ 6083
	cvErrorStr @ 6084
	cvExp @ 6085
	cvFastArctan @ 6086
	cvFillConvexPoly @ 6087
	cvFillPoly @ 6088
	cvFindGraphEdge @ 6089
	cvFindGraphEdgeByPtr @ 6090
	cvFindType @ 6091
	cvFirstType @ 6092
	cvFlip @ 6093
	cvFlushSeqWriter @ 6094
	cvFree_ @ 6095
	cvGEMM @ 6096
	cvGet1D @ 6097
	cvGet2D @ 6098
	cvGet3D @ 6099
	cvGetCols @ 6100
	cvGetDiag @ 6101
	cvGetDimSize @ 6102
	cvGetDims @ 6103
	cvGetElemType @ 6104
	cvGetErrInfo @ 6105
	cvGetErrMode @ 6106
	cvGetErrStatus @ 6107
	cvGetFileNode @ 6108
	cvGetFileNodeByName @ 6109
	cvGetFileNodeName @ 6110
	cvGetHashedKey @ 6111
	cvGetImage @ 6112
	cvGetImageCOI @ 6113
	cvGetImageROI @ 6114
	cvGetMat @ 6115
	cvGetModuleInfo @ 6116
	cvGetND @ 6117
	cvGetNumThreads @ 6118
	cvGetOptimalDFTSize @ 6119
	cvGetRawData @ 6120
	cvGetReal1D @ 6121
	cvGetReal2D @ 6122
	cvGetReal3D @ 6123
	cvGetRealND @ 6124
	cvGetRootFileNode @ 6125
	cvGetRows @ 6126
	cvGetSeqElem @ 6127
	cvGetSeqReaderPos @ 6128
	cvGetSize @ 6129
	cvGetSubRect @ 6130
	cvGetTextSize @ 6131
	cvGetThreadNum @ 6132
	cvGetTickCount @ 6133
	cvGetTickFrequency @ 6134
	cvGraphAddEdge @ 6135
	cvGraphAddEdgeByPtr @ 6136
	cvGraphAddVtx @ 6137
	cvGraphRemoveEdge @ 6138
	cvGraphRemoveEdgeByPtr @ 6139
	cvGraphRemoveVtx @ 6140
	cvGraphRemoveVtxByPtr @ 6141
	cvGraphVtxDegree @ 6142
	cvGraphVtxDegreeByPtr @ 6143
	cvGuiBoxReport @ 6144
	cvInRange @ 6145
	cvInRangeS @ 6146
	cvInitFont @ 6147
	cvInitImageHeader @ 6148
	cvInitLineIterator @ 6149
	cvInitMatHeader @ 6150
	cvInitMatNDHeader @ 6151
	cvInitNArrayIterator @ 6152
	cvInitSparseMatIterator @ 6153
	cvInitTreeNodeIterator @ 6154
	cvInsertNodeIntoTree @ 6155
	cvInvert @ 6156
	cvKMeans2 @ 6157
	cvLUT @ 6158
	cvLine @ 6159
	cvLoad @ 6160
	cvLog @ 6161
	cvMahalanobis @ 6162
	cvMakeSeqHeaderForArray @ 6163
	cvMax @ 6164
	cvMaxS @ 6165
	cvMemStorageAlloc @ 6166
	cvMemStorageAllocString @ 6167
	cvMerge @ 6168
	cvMin @ 6169
	cvMinMaxLoc @ 6170
	cvMinS @ 6171
	cvMixChannels @ 6172
	cvMul @ 6173
	cvMulSpectrums @ 6174
	cvMulTransposed @ 6175
	cvNextGraphItem @ 6176
	cvNextNArraySlice @ 6177
	cvNextTreeNode @ 6178
	cvNorm @ 6179
	cvNormalize @ 6180
	cvNot @ 6181
	cvNulDevReport @ 6182
	cvOpenFileStorage @ 6183
	cvOr @ 6184
	cvOrS @ 6185
	cvPerspectiveTransform @ 6186
	cvPolarToCart @ 6187
	cvPolyLine @ 6188
	cvPow @ 6189
	cvPrevTreeNode @ 6190
	cvProjectPCA @ 6191
	cvPtr1D @ 6192
	cvPtr2D @ 6193
	cvPtr3D @ 6194
	cvPtrND @ 6195
	cvPutText @ 6196
	cvRandArr @ 6197
	cvRandShuffle @ 6198
	cvRange @ 6199
	cvRawDataToScalar @ 6200
	cvRead @ 6201
	cvReadRawData @ 6202
	cvReadRawDataSlice @ 6203
	cvRectangle @ 6204
	cvRectangleR @ 6205
	cvRedirectError @ 6206
	cvReduce @ 6207
	cvRegisterModule @ 6208
	cvRegisterType @ 6209
	cvRelease @ 6210
	cvReleaseData @ 6211
	cvReleaseFileStorage @ 6212
	cvReleaseGraphScanner @ 6213
	cvReleaseImage @ 6214
	cvReleaseImageHeader @ 6215
	cvReleaseMat @ 6216
	cvReleaseMatND @ 6217
	cvReleaseMemStorage @ 6218
	cvReleaseSparseMat @ 6219
	cvRemoveNodeFromTree @ 6220
	cvRepeat @ 6221
	cvResetImageROI @ 6222
	cvReshape @ 6223
	cvReshapeMatND @ 6224
	cvRestoreMemStoragePos @ 6225
	cvSVBkSb @ 6226
	cvSVD @ 6227
	cvSave @ 6228
	cvSaveMemStoragePos @ 6229
	cvScalarToRawData @ 6230
	cvScaleAdd @ 6231
	cvSeqElemIdx @ 6232
	cvSeqInsert @ 6233
	cvSeqInsertSlice @ 6234
	cvSeqInvert @ 6235
	cvSeqPartition @ 6236
	cvSeqPop @ 6237
	cvSeqPopFront @ 6238
	cvSeqPopMulti @ 6239
	cvSeqPush @ 6240
	cvSeqPushFront @ 6241
	cvSeqPushMulti @ 6242
	cvSeqRemove @ 6243
	cvSeqRemoveSlice @ 6244
	cvSeqSearch @ 6245
	cvSeqSlice @ 6246
	cvSeqSort @ 6247
	cvSet @ 6248
	cvSet1D @ 6249
	cvSet2D @ 6250
	cvSet3D @ 6251
	cvSetAdd @ 6252
	cvSetData @ 6253
	cvSetErrMode @ 6254
	cvSetErrStatus @ 6255
	cvSetIPLAllocators @ 6256
	cvSetIdentity @ 6257
	cvSetImageCOI @ 6258
	cvSetImageROI @ 6259
	cvSetMemoryManager @ 6260
	cvSetND @ 6261
	cvSetNumThreads @ 6262
	cvSetReal1D @ 6263
	cvSetReal2D @ 6264
	cvSetReal3D @ 6265
	cvSetRealND @ 6266
	cvSetRemove @ 6267
	cvSetSeqBlockSize @ 6268
	cvSetSeqReaderPos @ 6269
	cvSetZero @ 6270
	cvSliceLength @ 6271
	cvSolve @ 6272
	cvSolveCubic @ 6273
	cvSolvePoly @ 6274
	cvSort @ 6275
	cvSplit @ 6276
	cvStartAppendToSeq @ 6277
	cvStartNextStream @ 6278
	cvStartReadRawData @ 6279
	cvStartReadSeq @ 6280
	cvStartWriteSeq @ 6281
	cvStartWriteStruct @ 6282
	cvStdErrReport @ 6283
	cvSub @ 6284
	cvSubRS @ 6285
	cvSum @ 6286
	cvTrace @ 6287
	cvTransform @ 6288
	cvTranspose @ 6289
	cvTreeToNodeSeq @ 6290
	cvTypeOf @ 6291
	cvUnregisterType @ 6292
	cvUseOptimized @ 6293
	cvWrite @ 6294
	cvWriteComment @ 6295
	cvWriteFileNode @ 6296
	cvWriteInt @ 6297
	cvWriteRawData @ 6298
	cvWriteReal @ 6299
	cvWriteString @ 6300
	cvXor @ 6301
	cvXorS @ 6302
	cxcore_module @ 6303 DATA
	deflate @ 6304
	deflateBound @ 6305
	deflateCopy @ 6306
	deflateEnd @ 6307
	deflateInit2_ @ 6308
	deflateInit_ @ 6309
	deflateParams @ 6310
	deflatePending @ 6311
	deflatePrime @ 6312
	deflateReset @ 6313
	deflateResetKeep @ 6314
	deflateSetDictionary @ 6315
	deflateSetHeader @ 6316
	deflateTune @ 6317
	deflate_copyright @ 6318 DATA
	exp @ 6319
	exp2l @ 6320
	fclose @ 6321
	feof @ 6322
	fflush @ 6323
	fgets @ 6324
	fopen @ 6325
	fpreset @ 6326
	fprintf @ 6327
	fputc @ 6328
	fputs @ 6329
	free @ 6330
	fseek @ 6331
	ftell @ 6332
	get_crc_table @ 6333
	getenv @ 6334
	gz_error @ 6335
	gzbuffer @ 6336
	gzclearerr @ 6337
	gzclose @ 6338
	gzclose_r @ 6339
	gzclose_w @ 6340
	gzdirect @ 6341
	gzdopen @ 6342
	gzeof @ 6343
	gzerror @ 6344
	gzflush @ 6345
	gzgetc @ 6346
	gzgetc_ @ 6347
	gzgets @ 6348
	gzoffset @ 6349
	gzoffset64 @ 6350
	gzopen @ 6351
	gzopen64 @ 6352
	gzopen_w @ 6353
	gzprintf @ 6354
	gzputc @ 6355
	gzputs @ 6356
	gzread @ 6357
	gzrewind @ 6358
	gzseek @ 6359
	gzseek64 @ 6360
	gzsetparams @ 6361
	gztell @ 6362
	gztell64 @ 6363
	gzungetc @ 6364
	gzwrite @ 6365
	image_type @ 6366 DATA
	inflate @ 6367
	inflateCopy @ 6368
	inflateEnd @ 6369
	inflateGetHeader @ 6370
	inflateInit2_ @ 6371
	inflateInit_ @ 6372
	inflateMark @ 6373
	inflatePrime @ 6374
	inflateReset @ 6375
	inflateReset2 @ 6376
	inflateResetKeep @ 6377
	inflateSetDictionary @ 6378
	inflateSync @ 6379
	inflateSyncPoint @ 6380
	inflateUndermine @ 6381
	inflate_copyright @ 6382 DATA
	inflate_fast @ 6383
	inflate_table @ 6384
	isspace @ 6385 DATA
	isxdigit @ 6386 DATA
	ldexp @ 6387
	libgcc_s_sjlj_1_dll_iname @ 6388 DATA
	libstdc___6_dll_iname @ 6389 DATA
	localeconv @ 6390
	log @ 6391
	log2l @ 6392
	logf @ 6393
	malloc @ 6394
	mat_type @ 6395 DATA
	matnd_type @ 6396 DATA
	mbrlen @ 6397
	mbrtowc @ 6398
	mbsrtowcs @ 6399
	mbstowcs @ 6400
	memchr @ 6401
	memcmp @ 6402
	memcpy @ 6403
	memmove @ 6404
	memset @ 6405
	mingw_app_type @ 6406 DATA
	mingw_initltsdrot_force @ 6407 DATA
	mingw_initltsdyn_force @ 6408 DATA
	mingw_initltssuo_force @ 6409 DATA
	mingw_onexit @ 6410
	open @ 6411
	pcinit @ 6412 DATA
	pow @ 6413
	read @ 6414
	rewind @ 6415
	seq_graph_type @ 6416 DATA
	seq_tree_type @ 6417 DATA
	seq_type @ 6418 DATA
	setlocale @ 6419
	signal @ 6420
	sin @ 6421
	sparse_mat_type @ 6422 DATA
	sprintf @ 6423
	sqrt @ 6424
	sqrtf @ 6425
	strcat @ 6426
	strchr @ 6427
	strcmp @ 6428
	strcpy @ 6429
	strerror @ 6430
	strlen @ 6431
	strncmp @ 6432
	strncpy @ 6433
	strrchr @ 6434
	strstr @ 6435
	strtol @ 6436
	toupper @ 6437 DATA
	vsprintf @ 6438
	wcrtomb @ 6439
	wcslen @ 6440
	wcsrtombs @ 6441
	wcstombs @ 6442
	write @ 6443
	zError @ 6444
	z_errmsg @ 6445 DATA
	zcalloc @ 6446
	zcfree @ 6447
	zlibCompileFlags @ 6448
	zlibVersion @ 6449
