LIBRARY libtesseract-3.dll
EXPORTS
CharNormDesc DATA
ExtractorDefs DATA
FeatureDisplayWindow DATA
GeoFeatDesc DATA
IntFeatDesc DATA
IntMatchWindow DATA
MicroFeatureDesc DATA
OutlineFeatDesc DATA
PicoFeatDesc DATA
PicoFeatureLength DATA
ProtoDisplayWindow DATA
TessBaseAPIAdaptToWordStr
TessBaseAPIAllWordConfidences
TessBaseAPIAnalyseLayout
TessBaseAPIClear
TessBaseAPIClearAdaptiveClassifier
TessBaseAPIClearPersistentCache
TessBaseAPICreate
TessBaseAPIDelete
TessBaseAPIDetectOS
TessBaseAPIDumpPGM
TessBaseAPIEnd
TessBaseAPIFindLinesCreateBlockList
TessBaseAPIGetAvailableLanguagesAsVector
TessBaseAPIGetBoolVariable
TessBaseAPIGetBoxText
TessBaseAPIGetComponentImages
TessBaseAPIGetComponentImages1
TessBaseAPIGetConnectedComponents
TessBaseAPIGetCubeRecoContext
TessBaseAPIGetDatapath
TessBaseAPIGetDawg
TessBaseAPIGetDoubleVariable
TessBaseAPIGetFeaturesForBlob
TessBaseAPIGetHOCRText
TessBaseAPIGetInitLanguagesAsString
TessBaseAPIGetInputImage
TessBaseAPIGetInputName
TessBaseAPIGetIntVariable
TessBaseAPIGetIterator
TessBaseAPIGetLoadedLanguagesAsVector
TessBaseAPIGetMutableIterator
TessBaseAPIGetOpenCLDevice
TessBaseAPIGetPageSegMode
TessBaseAPIGetRegions
TessBaseAPIGetSourceYResolution
TessBaseAPIGetStringVariable
TessBaseAPIGetStrips
TessBaseAPIGetTextDirection
TessBaseAPIGetTextlines
TessBaseAPIGetTextlines1
TessBaseAPIGetThresholdedImage
TessBaseAPIGetThresholdedImageScaleFactor
TessBaseAPIGetUNLVText
TessBaseAPIGetUTF8Text
TessBaseAPIGetUnichar
TessBaseAPIGetVariableAsString
TessBaseAPIGetWords
TessBaseAPIInit1
TessBaseAPIInit2
TessBaseAPIInit3
TessBaseAPIInit4
TessBaseAPIInitForAnalysePage
TessBaseAPIInitLangMod
TessBaseAPIInitTruthCallback
TessBaseAPIIsValidWord
TessBaseAPIMeanTextConf
TessBaseAPINumDawgs
TessBaseAPIOem
TessBaseAPIPrintVariables
TessBaseAPIPrintVariablesToFile
TessBaseAPIProcessPage
TessBaseAPIProcessPage1
TessBaseAPIProcessPages
TessBaseAPIProcessPages1
TessBaseAPIReadConfigFile
TessBaseAPIReadDebugConfigFile
TessBaseAPIRecognize
TessBaseAPIRecognizeForChopTest
TessBaseAPIRect
TessBaseAPIRunAdaptiveClassifier
TessBaseAPISetDebugVariable
TessBaseAPISetDictFunc
TessBaseAPISetImage
TessBaseAPISetImage2
TessBaseAPISetInputImage
TessBaseAPISetInputName
TessBaseAPISetMinOrientationMargin
TessBaseAPISetOutputName
TessBaseAPISetPageSegMode
TessBaseAPISetProbabilityInContextFunc
TessBaseAPISetRectangle
TessBaseAPISetSourceResolution
TessBaseAPISetThresholder
TessBaseAPISetVariable
TessBaseGetBlockTextOrientations
TessBoxTextRendererCreate
TessDeleteBlockList
TessDeleteIntArray
TessDeleteResultRenderer
TessDeleteText
TessDeleteTextArray
TessFindRowForBox
TessHOcrRendererCreate
TessMakeTBLOB
TessMakeTessOCRRow
TessNormalizeTBLOB
TessPDFRendererCreate
TessPageIteratorBaseline
TessPageIteratorBegin
TessPageIteratorBlockType
TessPageIteratorBoundingBox
TessPageIteratorCopy
TessPageIteratorDelete
TessPageIteratorGetBinaryImage
TessPageIteratorGetImage
TessPageIteratorIsAtBeginningOf
TessPageIteratorIsAtFinalElement
TessPageIteratorNext
TessPageIteratorOrientation
TessResultIteratorConfidence
TessResultIteratorCopy
TessResultIteratorDelete
TessResultIteratorGetPageIterator
TessResultIteratorGetPageIteratorConst
TessResultIteratorGetUTF8Text
TessResultIteratorSymbolIsDropcap
TessResultIteratorSymbolIsSubscript
TessResultIteratorSymbolIsSuperscript
TessResultIteratorWordFontAttributes
TessResultIteratorWordIsFromDictionary
TessResultIteratorWordIsNumeric
TessResultRendererAddError
TessResultRendererAddImage
TessResultRendererBeginDocument
TessResultRendererEndDocument
TessResultRendererExtention
TessResultRendererGetOutput
TessResultRendererImageNum
TessResultRendererInsert
TessResultRendererNext
TessResultRendererTitle
TessResultRendererTypename
TessTextRendererCreate
TessUnlvRendererCreate
TessVersion
TrainingData DATA
_Z10AddFeatureP18FEATURE_SET_STRUCTP14FEATURE_STRUCT
_Z10AlphaMatchPvS_
_Z10CopyMatrixP9MATRIX_2DS0_
_Z10FillerDoneP12TABLE_FILLER
_Z10FreeKDNodeP6KDNODE
_Z10FreeKDTreeP6KDTREE
_Z10GetBucketsP9CLUSTERER12DISTRIBUTIONjd
_Z10InitMatrixP9MATRIX_2D
_Z10LeftMarginP14ICOORDELT_LISTiPi
_Z10MakeKDNodeP6KDTREEPfPvi
_Z10MakeKDTreesPK10PARAM_DESC
_Z10MakeSampleP9CLUSTERERPKfi
_Z10NewFeaturePK19FEATURE_DESC_STRUCT
_Z10NextSamplePP8list_rec
_Z10ROW_zapperP10ELIST_LINK
_Z10apply_seamP5TBLOBS0_bP4SEAM
_Z10check_blobP5TBLOB
_Z10get_ydiffsP4TBOXiP7QSPLINEPf
_Z10join_edgesP9CRACKEDGES0_PS0_P12C_OUTLINE_IT
_Z10line_edgesssshPhPP9CRACKEDGES2_P12C_OUTLINE_IT
_Z10make_wordsPN9tesseract7TextordE6ICOORDfP10BLOCK_LISTP13TO_BLOCK_LIST
_Z10mark_splitP12split_record
_Z10memreallocPvii
_Z10print_seamPKcP4SEAM
_Z10row_words2P8TO_BLOCKP6TO_ROWi6FCOORDh
_Z10show_pointP8PAGE_RESff
_Z11AddIntClassP20INT_TEMPLATES_STRUCTiP16INT_CLASS_STRUCT
_Z11AddIntProtoP16INT_CLASS_STRUCT
_Z11BucketStartifi
_Z11ConvertBlobP5TBLOB
_Z11FillBucketsP7BUCKETSP6sampletP10PARAM_DESCff
_Z11FreeBucketsP7BUCKETS
_Z11FreeClusterP6sample
_Z11FreeFeatureP14FEATURE_STRUCT
_Z11FreeSubTreeP6KDNODE
_Z11GetNextFillP12TABLE_FILLERP9FILL_SPEC
_Z11IndependentP10PARAM_DESCsPff
_Z11InitBucketsP7BUCKETS
_Z11InsertNodesP6KDTREEP6KDNODE
_Z11MakeBuckets12DISTRIBUTIONjd
_Z11NewIntClassii
_Z11OpenBoxFileRK6STRING
_Z11PARA_zapperP10ELIST_LINK
_Z11PrintProtosP12CLASS_STRUCT
_Z11ReadFeatureP6_iobufPK19FEATURE_DESC_STRUCT
_Z11ReadNFloatsP6_iobuftPf
_Z11ReadNextBoxPiP6_iobufP6STRINGP4TBOX
_Z11ReadNextBoxiPiP6_iobufP6STRINGP4TBOX
_Z11RightMarginP14ICOORDELT_LISTiPi
_Z11ScaleMatrixP9MATRIX_2Dff
_Z11WERD_zapperP11ELIST2_LINK
_Z11blob_originP5TBLOBP6TPOINT
_Z11block_edgesP3PixP5PDBLKP12C_OUTLINE_IT
_Z11exists_filePKc
_Z11expand_rows6ICOORDP8TO_BLOCKf6FCOORDih
_Z11free_stringPc
_Z11free_structPviPKc
_Z11insert_seamPK5TWERDiP4SEAMP13GenericVectorIS3_E
_Z11join_piecesRK13GenericVectorIP4SEAMEiiP5TWERD
_Z11make_edgeptiiP6EDGEPTS0_
_Z11plot_to_rowP6TO_ROWN10ScrollView5ColorE6FCOORD
_Z11print_seamsPKcRK13GenericVectorIP4SEAME
_Z11print_splitP12split_record
_Z11render_blobPvP5TBLOB5C_COL
_Z11reveal_seamP4SEAM
_Z11row_y_orderPKvS0_
_Z11signal_exiti
_Z11sort_floatsPKvS0_
_Z11window_waitP10ScrollView
_Z12AddIntConfigP16INT_CLASS_STRUCT
_Z12BLOCK_zapperP10ELIST_LINK
_Z12FreeOutlinesP8list_rec
_Z12GlobalParamsv
_Z12InvertMatrixPKfiPf
_Z12NewBitVectori
_Z12NewChiStructtd
_Z12NewEdgePointv
_Z12NewTempProtov
_Z12NormalBucketP10PARAM_DESCfff
_Z12RotateMatrixP9MATRIX_2Df
_Z12WriteFeatureP6_iobufP14FEATURE_STRUCT
_Z12WriteNFloatsP6_iobuftPf
_Z12alloc_stringi
_Z12alloc_structiPKc
_Z12blob_x_orderPKvS0_
_Z12blob_y_orderPvS_
_Z12break_piecesRK13GenericVectorIP4SEAMEiiP5TWERD
_Z12clear_fx_winv
_Z12close_to_winv
_Z12delete_splitP12split_record
_Z12display_blobP5TBLOB5C_COL
_Z12divide_blobsP5TBLOBS0_bRK6TPOINT
_Z12fill_bucketsP14C_OUTLINE_LISTP10OL_BUCKETS
_Z12fill_heightsP6TO_ROWfiiP5STATSS2_
_Z12fit_lms_lineP6TO_ROW
_Z12fixspace_dbgP8WERD_RES
_Z12free_big_memPv
_Z12is_same_nodePvS_
_Z12make_marginsP5PDBLKP13BLOCK_LINE_ITPhhsss
_Z12mark_outlineP6EDGEPT
_Z12pgeditor_msgPKc
_Z12plot_fp_wordP8TO_BLOCKff
_Z12swap_entriesPvyii
_Z13AdjustBucketsP7BUCKETSj
_Z13C_BLOB_zapperP10ELIST_LINK
_Z13CircBucketForffi
_Z13ConvertConfigPjiP16INT_CLASS_STRUCT
_Z13ExtractMicrosP5TBLOBRK6DENORMS3_RK20INT_FX_RESULT_STRUCT
_Z13ExtractorStubv
_Z13FreeBitVectorPj
_Z13FreeClustererP9CLUSTERER
_Z13FreeMFOutlinePv
_Z13FreeProtoListPP8list_rec
_Z13FreePrototypePv
_Z13FreeTempProtoPv
_Z13FullPageBlockiiP10BLOCK_LIST
_Z13InitIntegerFXv
_Z13MakeClusterersPK10PARAM_DESC
_Z13MakeDimRandomtP9PROTOTYPEP10PARAM_DESC
_Z13MakePrototypeP9CLUSTERERP13CLUSTERCONFIGP6sample
_Z13MergeClusterssP10PARAM_DESCiiPfS1_S1_
_Z13NewFeatureSeti
_Z13NewMixedProtosP6sampleP10STATISTICS
_Z13NewTempConfigii
_Z13NextExtremityP8list_rec
_Z13NormalDensityi
_Z13ReadParamDescP6_iobuft
_Z13ReadPrototypeP6_iobuft
_Z13ScoredUnicharP13ADAPT_RESULTSi
_Z13TO_ROW_zapperP11ELIST2_LINK
_Z13TruncateParamfiiPc
_Z13UniformBucketP10PARAM_DESCfff
_Z13combine_seamsP4SEAMS0_
_Z13complete_edgeP9CRACKEDGEP12C_OUTLINE_IT
_Z13create_fx_winv
_Z13create_to_win6ICOORD
_Z13crotate_cblobP6C_BLOB6FCOORD
_Z13destroy_nodesP8list_recPFvPvE
_Z13draw_raw_edgeP10ScrollViewP9CRACKEDGENS_5ColorE
_Z13empty_bucketsP5BLOCKP10OL_BUCKETS
_Z13extract_edgesP3PixP5BLOCK
_Z13fix_row_pitchP6TO_ROWP8TO_BLOCKP13TO_BLOCK_LISTii
_Z13join_segmentsP14C_OUTLINE_FRAGS0_
_Z13pick_x_heightP6TO_ROWPiS1_S1_P5STATSi
_Z13pixels_to_ptsii
_Z13plot_box_listP10ScrollViewP13BLOBNBOX_LISTNS_5ColorE
_Z13plot_fp_cellsP10ScrollViewNS_5ColorEP11BLOBNBOX_ITssP5STATSssf
_Z13point_in_seamPK4SEAMP12split_record
_Z13reject_blanksP8WERD_RES
_Z13remove_edgeptP6EDGEPT
_Z13split_outlineP6EDGEPTS0_
_Z13split_to_blobP8BLOBNBOXsfP14C_OUTLINE_LISTS2_
_Z13truncate_pathPKcP6STRING
_Z13try_doc_fixed6ICOORDP13TO_BLOCK_LISTf
_Z14ClusterSamplesP9CLUSTERERP13CLUSTERCONFIG
_Z14ConvertOutlineP8TESSLINE
_Z14DistributionOKP7BUCKETS
_Z14ExtractIntFeatRK5TBLOBbP18INT_FEATURE_STRUCTS3_P20INT_FX_RESULT_STRUCT
_Z14FPSEGPT_zapperP10ELIST_LINK
_Z14FreeFeatureSetP18FEATURE_SET_STRUCT
_Z14FreePermConfigP18PERM_CONFIG_STRUCT
_Z14FreeStatisticsP10STATISTICS
_Z14FreeTempConfigP18TEMP_CONFIG_STRUCT
_Z14ListEntryMatchPvS_
_Z14MakeBoxFileStrPKcRK4TBOXiP6STRING
_Z14MakeDimUniformtP9PROTOTYPEP10STATISTICS
_Z14MakeMixedProtoP9CLUSTERERP6sampleP10STATISTICSP7BUCKETSd
_Z14MakeNewClusterP9CLUSTERERP11TEMPCLUSTER
_Z14NewSimpleProtosP6sample
_Z14NormEvidenceOfd
_Z14NormalizePicoXP18FEATURE_SET_STRUCT
_Z14PrintNormMatchP6_iobufiP9PROTOTYPEP14FEATURE_STRUCT
_Z14ROW_RES_zapperP10ELIST_LINK
_Z14ReadFeatureSetP6_iobufPK19FEATURE_DESC_STRUCT
_Z14ReadPermConfigP6_iobuf
_Z14ReadProtoStyleP6_iobuf
_Z14ReadSampleSizeP6_iobuf
_Z14ReadTempConfigP6_iobuf
_Z14RenderIntProtoP10ScrollViewP16INT_CLASS_STRUCTsNS_5ColorE
_Z14UniformDensityi
_Z14WriteParamDescP6_iobuftP10PARAM_DESC
_Z14WriteProtoListP6_iobuftP10PARAM_DESCP8list_rechh
_Z14WritePrototypeP6_iobuftP9PROTOTYPE
_Z14account_splitsPK4SEAMPK5TWERDii
_Z14c_clear_windowPv
_Z14c_make_currentPv
_Z14divisible_blobP5TBLOBbP6TPOINT
_Z14draw_meanlinesP8TO_BLOCKfiN10ScrollView5ColorE6FCOORD
_Z14find_row_pitchP6TO_ROWiiP8TO_BLOCKiih
_Z14find_top_modesP5STATSiPii
_Z14form_two_blobsP5TBLOBS0_bRK6TPOINT
_Z14free_int_classP16INT_CLASS_STRUCT
_Z14hide_edge_pairP6EDGEPTS0_
_Z14join_two_seamsPK4SEAMS1_
_Z14make_real_wordP11BLOBNBOX_ITihh
_Z14make_rep_wordsP6TO_ROWP8TO_BLOCK
_Z14os_detect_blobP8BLOBNBOXP19OrientationDetectorP14ScriptDetectorP9OSResultsPN9tesseract9TesseractE
_Z14partition_lineP4TBOXiPiPcS1_P7QSPLINEfPf
_Z14plot_blob_listP10ScrollViewP13BLOBNBOX_LISTNS_5ColorES3_
_Z14plot_fp_cells2P10ScrollViewNS_5ColorEP6TO_ROWP12FPSEGPT_LIST
_Z14plot_row_cellsP10ScrollViewNS_5ColorEP6TO_ROWfP14ICOORDELT_LIST
_Z14point_in_splitP12split_recordP6EDGEPTS2_
_Z14print_pitch_sdP6TO_ROWP5STATSssff
_Z14read_unlv_file6STRINGiiP10BLOCK_LIST
_Z14render_edgeptsPvP6EDGEPT5C_COL
_Z14render_outlinePvP8TESSLINE5C_COL
_Z14segment_splineP4TBOXiPiS1_iiS1_
_Z14set_row_spacesP8TO_BLOCK6FCOORDh
_Z14test_underlinehP6C_BLOBss
_Z14try_rows_fixedP8TO_BLOCKih
_Z14tune_row_pitchP6TO_ROWP5STATSssfRfS3_RsP14ICOORDELT_LISTh
_Z15AddAdaptedClassP22ADAPT_TEMPLATES_STRUCTP18ADAPT_CLASS_STRUCTi
_Z15AddProtoToClassP12CLASS_STRUCT
_Z15BLOBNBOX_zapperP10ELIST_LINK
_Z15ChangeDirectionP8list_recS0_9DIRECTION
_Z15CompareByRatingPKvS0_
_Z15ComputeDistanceiP10PARAM_DESCPfS1_
_Z15ConvertOutlinesP8TESSLINEP8list_rec11OUTLINETYPE
_Z15DisplayIntProtoP16INT_CLASS_STRUCTsf
_Z15DistanceBetween6FPOINTS_
_Z15DistanceSquarediP10PARAM_DESCPfS1_
_Z15ExpandBitVectorPji
_Z15FreeClassFieldsP12CLASS_STRUCT
_Z15InitFeatureDefsP19FEATURE_DEFS_STRUCT
_Z15InitTableFillerfffP12PROTO_STRUCTP12TABLE_FILLER
_Z15MirrorMatrixInXP9MATRIX_2D
_Z15MirrorMatrixInYP9MATRIX_2D
_Z15NewAdaptedClassv
_Z15NewIntTemplatesv
_Z15NewMicroFeaturev
_Z15NumBucketsMatchPvS_
_Z15PDBLK_c1_zapperPv
_Z15ParseBoxFileStrPKcPiP6STRINGP4TBOX
_Z15SavePixForCrashiP3Pix
_Z15SetupExtractorsP19FEATURE_DEFS_STRUCT
_Z15TO_BLOCK_zapperP10ELIST_LINK
_Z15TranslateMatrixP9MATRIX_2Dff
_Z15WERD_RES_zapperP10ELIST_LINK
_Z15WriteFeatureSetP6_iobufP18FEATURE_SET_STRUCT
_Z15WritePermConfigP6_iobufP18PERM_CONFIG_STRUCT
_Z15WriteProtoStyleP6_iobuf10PROTOSTYLE
_Z15WriteTempConfigP6_iobufP18TEMP_CONFIG_STRUCT
_Z15alloc_big_zerosi
_Z15c_create_windowPKcssssdddd
_Z15choose_nth_itemiPfi
_Z15choose_nth_itemiPviyPFiPKvS1_E
_Z15display_edgeptsP8list_rec
_Z15draw_blob_edgesP5TBLOB
_Z15draw_occupationiiiiPiS_
_Z15fixed_pitch_rowP6TO_ROWP5BLOCKi
_Z15free_crackedgesP9CRACKEDGE
_Z15get_blob_coordsP6TO_ROWiP4TBOXRhRi
_Z15make_real_wordsPN9tesseract7TextordEP8TO_BLOCK6FCOORD
_Z15make_single_row6ICOORDP8TO_BLOCKP13TO_BLOCK_LIST
_Z15os_detect_blobsPK13GenericVectorIiEP14BLOBNBOX_CLISTP9OSResultsPN9tesseract9TesseractE
_Z15restore_outlineP6EDGEPT
_Z15row_pitch_statsP6TO_ROWih
_Z15start_seam_listP5TWERDP13GenericVectorIP4SEAME
_Z15try_block_fixedP8TO_BLOCKi
_Z15tune_row_pitch2P6TO_ROWP5STATSssfRfS3_RsP14ICOORDELT_LISTh
_Z15word_comparatorPKvS0_
_Z16AddConfigToClassP12CLASS_STRUCT
_Z16BLOCK_RES_zapperP10ELIST_LINK
_Z16C_OUTLINE_zapperP10ELIST_LINK
_Z16ClassProtoLengthP12CLASS_STRUCT
_Z16ComputeDirectionP8MFEDGEPTS0_ff
_Z16DegreesOfFreedom12DISTRIBUTIONt
_Z16EDGEPT_c1_zapperPv
_Z16FeatureDirectionh
_Z16FillPPLinearBitsPA2_jiffb
_Z16GetMatchColorForf
_Z16ICOORDELT_zapperP10ELIST_LINK
_Z16InitOutlineStatsP13OUTLINE_STATS
_Z16MirrorMatrixInXYP9MATRIX_2D
_Z16NormalizeOutlineP8list_recf
_Z16ReadAdaptedClassP6_iobuf
_Z16RenderIntFeatureP10ScrollViewPK18INT_FEATURE_STRUCTNS_5ColorE
_Z16STRING_c1_zapperPv
_Z16add_frag_to_listP14C_OUTLINE_FRAGP19C_OUTLINE_FRAG_LIST
_Z16capture_childrenP10OL_BUCKETSP9C_BLOB_ITP12C_OUTLINE_IT
_Z16check_path_legalP9CRACKEDGE
_Z16check_pitch_syncP11BLOBNBOX_ITsssP5STATSP12FPSEGPT_LIST
_Z16check_seam_orderP5TBLOBP4SEAM
_Z16choose_partitionfPfifS_S_Pi
_Z16compute_pitch_sdP6TO_ROWP5STATSssffRfRsP14ICOORDELT_LISThss
_Z16fit_parallel_lmsfP6TO_ROW
_Z16fixed_chop_cblobP6C_BLOBsfP14C_OUTLINE_LISTS2_
_Z16make_pseudo_wordP8PAGE_RESRK4TBOXRP5BLOCKRP3ROW
_Z16make_single_wordbP11TO_ROW_LISTP8ROW_LIST
_Z16make_split_blobsP5TBLOBS0_bP4SEAM
_Z16partition_coordsP4TBOXiPciPiS2_
_Z16preserve_outlineP6EDGEPT
_Z16reveal_edge_pairP6EDGEPTS0_
_Z16segment_baselineP6TO_ROWP8TO_BLOCKRiPi
_Z16test_insert_seamRK13GenericVectorIP4SEAMEP5TWERDi
_Z16tprintf_internalPKcz
_Z16unsplit_outlinesP6EDGEPTS0_
_Z17BlobMicroFeaturesP5TBLOBRK6DENORMS3_RK20INT_FX_RESULT_STRUCT
_Z17ClassConfigLengthP12CLASS_STRUCTPj
_Z17ComputeChiSquaredtd
_Z17ComputePrototypesP9CLUSTERERP13CLUSTERCONFIG
_Z17ComputeStatisticssP10PARAM_DESCP6sample
_Z17CreateClusterTreeP9CLUSTERER
_Z17DisplayIntFeaturePK18INT_FEATURE_STRUCTf
_Z17FindScoredUnicharP13ADAPT_RESULTSi
_Z17FreeMicroFeaturesP8list_rec
_Z17GetCPPadsForLeveliPfS_S_
_Z17MakeTempProtoPermPvS_
_Z17NewSphericalPrototP6sampleP10STATISTICS
_Z17NormalizeOutlineXP18FEATURE_SET_STRUCT
_Z17RotateOutlineListRK6FCOORDP14C_OUTLINE_LIST
_Z17StandardDeviationP9PROTOTYPEt
_Z17WriteAdaptedClassP6_iobufP18ADAPT_CLASS_STRUCTi
_Z17WriteOldParamDescP6_iobufPK19FEATURE_DESC_STRUCT
_Z17add_repeated_wordP7WERD_ITRsS1_RhfS0_
_Z17adjust_row_limitsP8TO_BLOCK
_Z17c_blob_comparatorPKvS0_
_Z17check_pitch_sync2P11BLOBNBOX_ITsssP5STATSssfRsP12FPSEGPT_LISTss
_Z17check_pitch_sync3sssssP5STATSfRsP12FPSEGPT_LISTss
_Z17compute_page_skewP13TO_BLOCK_LISTRfS1_
_Z17compute_pitch_sd2P6TO_ROWP5STATSssfRsS3_P14ICOORDELT_LISThss
_Z17compute_row_statsP8TO_BLOCKh
_Z17count_block_votesP8TO_BLOCKRiS1_S1_S1_S1_S1_S1_
_Z17count_pitch_statsP6TO_ROWP5STATSS2_ffhhi
_Z17display_bln_linesP10ScrollViewNS_5ColorEffff
_Z17find_cblob_limitsP6C_BLOBff6FCOORDRfS2_
_Z17find_lesser_partsP6TO_ROWP4TBOXiPcPiii
_Z17fit_parallel_rowsP8TO_BLOCKf6FCOORDih
_Z17fixed_pitch_wordsP6TO_ROW6FCOORD
_Z17initialise_searchR13WERD_RES_LISTS0_
_Z17loop_bounding_boxRP9CRACKEDGER6ICOORDS3_
_Z17make_double_splitP5TBLOBS0_bP4SEAM
_Z17make_single_splitP8TESSLINEP12split_record
_Z17make_triple_splitP5TBLOBS0_bP4SEAM
_Z17merge_oldbl_partsP4TBOXiPcPiif
_Z17old_first_xheightP6TO_ROWP4TBOXiiP7QSPLINEf
_Z17outlines_to_blobsP5BLOCK6ICOORDS1_P14C_OUTLINE_LIST
_Z17plot_parallel_rowP6TO_ROWfiN10ScrollView5ColorE6FCOORD
_Z17reject_whole_pageR11PAGE_RES_IT
_Z17row_spacing_orderPKvS0_
_Z17total_containmentP5TBLOBS0_
_Z17undo_single_splitP5TBLOBP12split_record
_Z18ApproximateOutlinebP9C_OUTLINE
_Z18BLOB_CHOICE_zapperP10ELIST_LINK
_Z18ComputeOrientationP8MFEDGEPTS0_
_Z18FillPPCircularBitsPA2_jiffb
_Z18FindMatchingChoiceiP16BLOB_CHOICE_LIST
_Z18FinishOutlineStatsP13OUTLINE_STATS
_Z18MakeSphericalProtoP9CLUSTERERP6sampleP10STATISTICSP7BUCKETS
_Z18NewCharDescriptionRK19FEATURE_DEFS_STRUCT
_Z18NewEllipticalProtosP6sampleP10STATISTICS
_Z18SetBlobStrokeWidthP3PixP8BLOBNBOX
_Z18UpdateMatchDisplayv
_Z18UpdateOutlineStatsP13OUTLINE_STATSffff
_Z18WERD_CHOICE_zapperP10ELIST_LINK
_Z18build_image_windowii
_Z18c_line_color_indexPv5C_COL
_Z18compute_rows_pitchP8TO_BLOCKih
_Z18correct_blob_orderP5TBLOBS0_
_Z18create_fxdebug_winv
_Z18find_cblob_hlimitsP6C_BLOBffRfS1_
_Z18find_cblob_vlimitsP6C_BLOBffRfS1_
_Z18find_split_in_blobP12split_recordP5TBLOB
_Z18free_adapted_classP18ADAPT_CLASS_STRUCT
_Z18free_int_templatesP20INT_TEMPLATES_STRUCT
_Z18make_first_xheightP6TO_ROWP4TBOXiiiP7QSPLINEf
_Z18point_used_by_seamP4SEAMP6EDGEPT
_Z18print_block_countsP8TO_BLOCKi
_Z18print_ratings_listPKcP16BLOB_CHOICE_LISTRK10UNICHARSET
_Z18tweak_row_baselineP3ROWdd
_Z19ActualOutlineLengthP14FEATURE_STRUCT
_Z19BLOCK_RES_c1_zapperPv
_Z19ExtractBlobFeaturesRK19FEATURE_DEFS_STRUCTRK6DENORMS4_RK20INT_FX_RESULT_STRUCTP5TBLOB
_Z19ExtractFlexFeaturesRK19FEATURE_DEFS_STRUCTP5TBLOBRK6DENORMS6_RK20INT_FX_RESULT_STRUCT
_Z19ExtractMicroFeatureP8list_recS0_
_Z19FindNearestNeighborP6KDTREEP6samplePf
_Z19FreeCharDescriptionP16CHAR_DESC_STRUCT
_Z19MakeDegeneratePrototP6sampleP10STATISTICS10PROTOSTYLEi
_Z19MakeEllipticalProtoP9CLUSTERERP6sampleP10STATISTICSP7BUCKETS
_Z19MakeRowFromSubBlobsP8TO_BLOCKP6C_BLOBP9TO_ROW_IT
_Z19MultipleCharSamplesP9CLUSTERERP6samplef
_Z19NextDirectionChangeP8list_rec
_Z19NormalizedAngleFromP6FPOINTS0_f
_Z19ParamContent_zapperP10ELIST_LINK
_Z19ReadCharDescriptionRK19FEATURE_DEFS_STRUCTP6_iobuf
_Z19SORTED_FLOAT_zapperP10ELIST_LINK
_Z19TestEllipticalProtoP9CLUSTERERP13CLUSTERCONFIGP6sampleP10STATISTICS
_Z19cleanup_rows_making6ICOORDP8TO_BLOCKf6FCOORDih
_Z19compute_block_pitchP8TO_BLOCK6FCOORDih
_Z19compute_fixed_pitch6ICOORDP13TO_BLOCK_LISTf6FCOORDh
_Z19correct_row_xheightP6TO_ROWfff
_Z19create_edges_window6ICOORD
_Z19deskew_block_coordsP8TO_BLOCKf
_Z19find_repeated_charsP8TO_BLOCKh
_Z19fixed_chop_coutlineP9C_OUTLINEsfP19C_OUTLINE_FRAG_LISTS2_
_Z19insert_spline_pointPiiiiRi
_Z19make_first_baselineP4TBOXiPiS1_P7QSPLINES3_f
_Z19make_holed_baselineP4TBOXiP7QSPLINES2_f
_Z19mark_repeated_charsP6TO_ROW
_Z19pgeditor_show_pointP7SVEvent
_Z19plot_word_decisionsP10ScrollViewsP6TO_ROW
_Z19point_used_by_splitP12split_recordP6EDGEPT
_Z19pre_associate_blobs6ICOORDP8TO_BLOCK6FCOORDh
_Z19reject_poor_matchesP8WERD_RES
_Z19save_chop_cfragments6ICOORDsS_P9C_OUTLINEP19C_OUTLINE_FRAG_LIST
_Z19separate_underlinesP8TO_BLOCKf6FCOORDh
_Z19set_global_loc_codei
_Z19setup_blob_outlinesP5TBLOB
_Z19shared_split_pointsPK4SEAMS1_
_Z20CharNormalizeOutlineP8list_recRK6DENORM
_Z20ExtractIntCNFeaturesP5TBLOBRK6DENORMS3_RK20INT_FX_RESULT_STRUCT
_Z20FindDirectionChangesP8list_recff
_Z20IMDebugConfigurationithPjj
_Z20MarkDirectionChangesP8list_rec
_Z20OrientationIdToValueRKi
_Z20ValidCharDescriptionRK19FEATURE_DEFS_STRUCTP16CHAR_DESC_STRUCT
_Z20WriteCharDescriptionRK19FEATURE_DEFS_STRUCTP6_iobufP16CHAR_DESC_STRUCT
_Z20assign_blobs_to_rowsP8TO_BLOCKPfihhh
_Z20box_next_pre_choppedP11BLOBNBOX_IT
_Z20compute_height_modesP5STATSiiPii
_Z20compute_row_descdropP6TO_ROWfiP5STATS
_Z20decreasing_top_orderPKvS0_
_Z20edgesteps_to_edgeptsP9C_OUTLINEP6EDGEPT
_Z20fixed_split_coutlineP9C_OUTLINEsfP12C_OUTLINE_ITS2_
_Z20make_baseline_splineP6TO_ROWP8TO_BLOCK
_Z20make_illegal_segmentP12FPSEGPT_LIST4TBOX11BLOBNBOX_ITsssS0_
_Z20most_overlapping_rowP11TO_ROW_LISTP8BLOBNBOX
_Z20most_overlapping_rowP9TO_ROW_ITRP6TO_ROWfffh
_Z20restore_outline_treeP8TESSLINE
_Z20split_stepped_splineP7QSPLINEfPiS1_Ri
_Z21AddProtoToClassPrunerP12PROTO_STRUCTiP20INT_TEMPLATES_STRUCT
_Z21AddProtoToProtoPrunerP12PROTO_STRUCTiP16INT_CLASS_STRUCTb
_Z21C_OUTLINE_FRAG_zapperP10ELIST_LINK
_Z21ExtractIntGeoFeaturesP5TBLOBRK6DENORMS3_RK20INT_FX_RESULT_STRUCT
_Z21MakePotentialClustersP17ClusteringContextP6samplei
_Z21find_best_dropout_rowP6TO_ROWifiP9TO_ROW_ITh
_Z21find_underlined_blobsP8BLOBNBOXP7QSPLINEffP14ICOORDELT_LIST
_Z21make_initial_textrows6ICOORDP8TO_BLOCK6FCOORDh
_Z21preserve_outline_treeP8TESSLINE
_Z22AddOutlineFeatureToSetP6FPOINTS0_P18FEATURE_SET_STRUCT
_Z22ConvertToMicroFeaturesP8list_recS0_
_Z22ConvertToPicoFeatures2P8list_recP18FEATURE_SET_STRUCT
_Z22FPSEGPT_LIST_c1_zapperPv
_Z22MedianOfCircularValuesIdET_S0_P13GenericVectorIS0_E
_Z22OptimumNumberOfBucketsj
_Z22PrintSegmentationStatsP10BLOCK_LIST
_Z22ShortNameToFeatureTypeRK19FEATURE_DEFS_STRUCTPKc
_Z22bln_word_window_handlev
_Z22determine_newline_typeP4WERDP5BLOCKS0_S2_
_Z22free_adapted_templatesP22ADAPT_TEMPLATES_STRUCT
_Z22join_chopped_fragmentsP14C_OUTLINE_FRAGS0_
_Z22linear_spline_baselineP6TO_ROWP8TO_BLOCKRiPi
_Z22remove_nontext_regionsPN9tesseract9TesseractEP10BLOCK_LISTP13TO_BLOCK_LIST
_Z22set_global_subloc_codei
_Z22transform_to_next_permR13WERD_RES_LIST
_Z22vigorous_noise_removalP8TO_BLOCK
_Z23ExtractCharNormFeaturesP5TBLOBRK6DENORMS3_RK20INT_FX_RESULT_STRUCT
_Z23IMDebugConfigurationSumiPhi
_Z23KDNearestNeighborSearchP6KDTREEPfifPiPPvS1_
_Z23any_shared_split_pointsRK13GenericVectorIP4SEAMES1_
_Z23assign_blobs_to_blocks2P3PixP10BLOCK_LISTP13TO_BLOCK_LIST
_Z23compute_fixed_pitch_cjk6ICOORDP13TO_BLOCK_LIST
_Z23compute_line_occupationP8TO_BLOCKfiiPiS1_
_Z23delete_non_dropout_rowsP8TO_BLOCKf6FCOORDih
_Z24ConvertSegmentToPicoFeatP6FPOINTS0_P18FEATURE_SET_STRUCT
_Z24ConvertToOutlineFeaturesP8list_recP18FEATURE_SET_STRUCT
_Z24CreateFeatureSpaceWindowPKcii
_Z24InitIntMatchWindowIfReqdv
_Z24close_chopped_cfragmentsP19C_OUTLINE_FRAG_LISTP14C_OUTLINE_LISTfP12C_OUTLINE_IT
_Z24compute_reject_thresholdP11WERD_CHOICE
_Z24restore_underlined_blobsP8TO_BLOCK
_Z25compute_dropout_distancesPiS_i
_Z25set_global_subsubloc_codei
_Z25vertical_cblob_projectionP6C_BLOBP5STATS
_Z26compute_xheight_from_modesP5STATSS0_biiPfS1_
_Z28ExtractBlobsFromSegmentationP10BLOCK_LISTP11C_BLOB_LIST
_Z28InitProtoDisplayWindowIfReqdv
_Z28RefreshWordBlobsFromNewBlobsP10BLOCK_LISTP11C_BLOB_LISTS2_
_Z28compute_occupation_thresholdiiiPiS_
_Z28eliminate_duplicate_outlinesP5TBLOB
_Z28vertical_coutline_projectionP9C_OUTLINEP5STATS
_Z30InitFeatureDisplayWindowIfReqdv
_Z30vertical_cunderline_projectionP9C_OUTLINEP7QSPLINEffP5STATSS4_S4_
_Z32orientation_and_script_detectionR6STRINGP9OSResultsPN9tesseract9TesseractE
_Z33EqualIgnoringCaseAndTerminalPunctRK11WERD_CHOICES1_
_Z3popP8list_rec
_Z4MapXP9MATRIX_2Dff
_Z4MapYP9MATRIX_2Dff
_Z4MeanP9PROTOTYPEt
_Z4WalkP6KDTREEPFvzEPvP6KDNODEi
_Z4fix2P6EDGEPTi
_Z4joinP8list_recS0_
_Z4lastP8list_rec
_Z4pushP8list_recPv
_Z5EfreePv
_Z5MapDxP9MATRIX_2Dff
_Z5MapDyP9MATRIX_2Dff
_Z5SolvePFdP9CHISTRUCTdEPvdd
_Z5countP8list_rec
_Z5poly2P6EDGEPTi
_Z6DoFillP9FILL_SPECP19CLASS_PRUNER_STRUCTjjj
_Z6EfopenPKcS0_
_Z6KDWalkP6KDTREEPFvzEPv
_Z6c_drawPvdd
_Z6c_movePvdd
_Z6h_edgeiP9CRACKEDGEP8CrackPos
_Z6insertP8list_recPv
_Z6searchP8list_recPvP19TessResultCallback2IiS1_S1_E
_Z6searchP8list_recPvPFiS1_S1_E
_Z6v_edgeiP9CRACKEDGEP8CrackPos
_Z7ChiAreaP9CHISTRUCTd
_Z7DoErroriPKc
_Z7Emalloci
_Z7FillABCP12PROTO_STRUCT
_Z7KDStoreP6KDTREEPfPv
_Z7cprintfPKcz
_Z7cutlineP6EDGEPTS0_i
_Z7destroyP8list_rec
_Z7is_samePvS_
_Z7memfreePv
_Z7reverseP8list_rec
_Z8EreallocPvi
_Z8HeapSortiPiS_
_Z8Integralddd
_Z8KDDeleteP6KDTREEPfPv
_Z8MapPointP9MATRIX_2DRK6FPOINTPS1_
_Z8NewClassii
_Z8box_nextP11BLOBNBOX_IT
_Z8delete_dP8list_recPvP19TessResultCallback2IiS1_S1_E
_Z8delete_dP8list_recPvPFiS1_S1_E
_Z8err_exitv
_Z8free_memPv
_Z8lessthanPKvS0_
_Z8memalloci
_Z8new_cellv
_Z8nth_cellP8list_reci
_Z8s_adjoinP8list_recPvPFiS1_S1_E
_Z8strtok_rPcPKcPS_
_Z9BucketEndifi
_Z9BucketForffi
_Z9CopyProtoP12PROTO_STRUCTS0_
_Z9FreeClassP12CLASS_STRUCT
_Z9LearnBlobRK19FEATURE_DEFS_STRUCTP6_iobufP5TBLOBRK6DENORMS8_RK20INT_FX_RESULT_STRUCTPKcSD_
_Z9LearnBlobRK19FEATURE_DEFS_STRUCTRK6STRINGP5TBLOBRK6DENORMS9_RK20INT_FX_RESULT_STRUCTPKc
_Z9alloc_memi
_Z9directionP6EDGEPT
_Z9free_cellP8list_rec
_Z9hide_seamP4SEAM
_Z9long_randl
_Z9make_rows6ICOORDP13TO_BLOCK_LIST
_Z9new_splitP6EDGEPTS0_
_Z9open_filePKcS0_
_Z9os_detectP13TO_BLOCK_LISTP9OSResultsPN9tesseract9TesseractE
_Z9push_lastP8list_recPv
_Z9read_listPKc
_Z9reverse16Pv
_Z9reverse32Pv
_Z9reverse_dP8list_rec
_Z9row_wordsP8TO_BLOCKP6TO_ROWi6FCOORDh
_Z9undo_seamP5TBLOBS0_P4SEAM
_ZN10BLOCK_LIST9deep_copyEPKS_PFP5BLOCKPKS2_E
_ZN10OL_BUCKETS14count_childrenEP9C_OUTLINEi
_ZN10OL_BUCKETS16extract_childrenEP9C_OUTLINEP12C_OUTLINE_IT
_ZN10OL_BUCKETS18outline_complexityEP9C_OUTLINEis
_ZN10OL_BUCKETSC1E6ICOORDS0_
_ZN10OL_BUCKETSC2E6ICOORDS0_
_ZN10OL_BUCKETSclEss
_ZN10PB_LINE_IT8get_lineEs
_ZN10POLY_BLOCK10compute_bbEv
_ZN10POLY_BLOCK14winding_numberERK6ICOORD
_ZN10POLY_BLOCK17reflect_in_y_axisEv
_ZN10POLY_BLOCK21ColorForPolyBlockTypeE13PolyBlockType
_ZN10POLY_BLOCK4fillEP10ScrollViewNS0_5ColorE
_ZN10POLY_BLOCK4moveE6ICOORD
_ZN10POLY_BLOCK4plotEP10ScrollViewi
_ZN10POLY_BLOCK6rotateE6FCOORD
_ZN10POLY_BLOCK7overlapEPS_
_ZN10POLY_BLOCK8containsEPS_
_ZN10POLY_BLOCKC1EP14ICOORDELT_LIST13PolyBlockType
_ZN10POLY_BLOCKC1ERK4TBOX13PolyBlockType
_ZN10POLY_BLOCKC2EP14ICOORDELT_LIST13PolyBlockType
_ZN10POLY_BLOCKC2ERK4TBOX13PolyBlockType
_ZN10SVMenuNode8AddChildEPKc
_ZN10SVMenuNode8AddChildEPKci
_ZN10SVMenuNode8AddChildEPKciS1_
_ZN10SVMenuNode8AddChildEPKciS1_S1_
_ZN10SVMenuNode8AddChildEPKcii
_ZN10SVMenuNode8AddChildEPS_
_ZN10SVMenuNode9BuildMenuEP10ScrollViewb
_ZN10SVMenuNodeC1EiPKcibS1_S1_
_ZN10SVMenuNodeC1Ev
_ZN10SVMenuNodeC2EiPKcibS1_S1_
_ZN10SVMenuNodeC2Ev
_ZN10SVMenuNodeD1Ev
_ZN10SVMenuNodeD2Ev
_ZN10ScrollView10AddMessageEPKcz
_ZN10ScrollView10AwaitEventE11SVEventType
_ZN10ScrollView10InitializeEPKciiiiiibS1_
_ZN10ScrollView10SetVisibleEb
_ZN10ScrollView11AlwaysOnTopEb
_ZN10ScrollView11SendPolygonEv
_ZN10ScrollView12UpdateWindowEv
_ZN10ScrollView12image_index_E DATA
_ZN10ScrollView13AddMessageBoxEv
_ZN10ScrollView14AddEscapeCharsEPKc
_ZN10ScrollView14SendRawMessageEPKc
_ZN10ScrollView14TextAttributesEPKcibbb
_ZN10ScrollView15AddEventHandlerEP14SVEventHandler
_ZN10ScrollView15MessageReceiverEPv
_ZN10ScrollView15ShowInputDialogEPKc
_ZN10ScrollView15ShowYesNoDialogEPKc
_ZN10ScrollView15ZoomToRectangleEiiii
_ZN10ScrollView17StartEventHandlerEPv
_ZN10ScrollView19AwaitEventAnyWindowEv
_ZN10ScrollView19nr_created_windows_E DATA
_ZN10ScrollView20TranslateYCoordinateEi
_ZN10ScrollView3PenENS_5ColorE
_ZN10ScrollView3PenEiii
_ZN10ScrollView3PenEiiii
_ZN10ScrollView4ExitEv
_ZN10ScrollView4LineEiiii
_ZN10ScrollView4TextEiiPKc
_ZN10ScrollView5BrushENS_5ColorE
_ZN10ScrollView5BrushEiii
_ZN10ScrollView5BrushEiiii
_ZN10ScrollView5ClearEv
_ZN10ScrollView5ImageEP3Pixii
_ZN10ScrollView5ImageEPKcii
_ZN10ScrollView6DrawToEii
_ZN10ScrollView6SignalEv
_ZN10ScrollView6StrokeEf
_ZN10ScrollView6UpdateEv
_ZN10ScrollView7EllipseEiiii
_ZN10ScrollView7SendMsgEPKcz
_ZN10ScrollView7stream_E DATA
_ZN10ScrollView8MenuItemEPKcS1_
_ZN10ScrollView8MenuItemEPKcS1_i
_ZN10ScrollView8MenuItemEPKcS1_ib
_ZN10ScrollView8SetEventEP7SVEvent
_ZN10ScrollView9PopupItemEPKcS1_
_ZN10ScrollView9PopupItemEPKcS1_iS1_S1_
_ZN10ScrollView9RectangleEiiii
_ZN10ScrollView9SetCursorEii
_ZN10ScrollViewC1EPKciiiiii
_ZN10ScrollViewC1EPKciiiiiib
_ZN10ScrollViewC1EPKciiiiiibS1_
_ZN10ScrollViewC2EPKciiiiii
_ZN10ScrollViewC2EPKciiiiiib
_ZN10ScrollViewC2EPKciiiiiibS1_
_ZN10ScrollViewD1Ev
_ZN10ScrollViewD2Ev
_ZN10UNICHARMAP15UNICHARMAP_NODEC1Ev
_ZN10UNICHARMAP15UNICHARMAP_NODEC2Ev
_ZN10UNICHARMAP15UNICHARMAP_NODED1Ev
_ZN10UNICHARMAP15UNICHARMAP_NODED2Ev
_ZN10UNICHARMAP5clearEv
_ZN10UNICHARMAP6insertEPKci
_ZN10UNICHARMAPC1Ev
_ZN10UNICHARMAPC2Ev
_ZN10UNICHARMAPD1Ev
_ZN10UNICHARMAPD2Ev
_ZN10UNICHARSET10add_scriptEPKc
_ZN10UNICHARSET14debug_utf8_strEPKc
_ZN10UNICHARSET14load_from_fileEP6_iobufb
_ZN10UNICHARSET14load_via_fgetsEP19TessResultCallback2IPcS1_iEb
_ZN10UNICHARSET14set_normed_idsEi
_ZN10UNICHARSET14unichar_insertEPKc
_ZN10UNICHARSET15post_load_setupEv
_ZN10UNICHARSET16kCustomLigaturesE DATA
_ZN10UNICHARSET16set_ranges_emptyEv
_ZN10UNICHARSET18UNICHAR_PROPERTIES13SetRangesOpenEv
_ZN10UNICHARSET18UNICHAR_PROPERTIES14SetRangesEmptyEv
_ZN10UNICHARSET18UNICHAR_PROPERTIES16ExpandRangesFromERKS0_
_ZN10UNICHARSET18UNICHAR_PROPERTIES4InitEv
_ZN10UNICHARSET18UNICHAR_PROPERTIES8CopyFromERKS0_
_ZN10UNICHARSET18UNICHAR_PROPERTIESC1Ev
_ZN10UNICHARSET18UNICHAR_PROPERTIESC2Ev
_ZN10UNICHARSET20kSpecialUnicharCodesE DATA
_ZN10UNICHARSET21AppendOtherUnicharsetERKS_
_ZN10UNICHARSET21ExpandRangesFromOtherERKS_
_ZN10UNICHARSET23load_from_inmemory_fileEPKcib
_ZN10UNICHARSET23set_black_and_whitelistEPKcS1_
_ZN10UNICHARSET29PartialSetPropertiesFromOtherEiRKS_
_ZN10UNICHARSET7reserveEi
_ZN10UNICHARSET8CopyFromERKS_
_ZN10UNICHARSETC1Ev
_ZN10UNICHARSETC2Ev
_ZN10UNICHARSETD1Ev
_ZN10UNICHARSETD2Ev
_ZN11BLOB_CHOICE9deep_copyEPKS_
_ZN11BLOB_CHOICEC1ERKS_
_ZN11BLOB_CHOICEC1Eiffssifff20BlobChoiceClassifier
_ZN11BLOB_CHOICEC2ERKS_
_ZN11BLOB_CHOICEC2Eiffssifff20BlobChoiceClassifier
_ZN11C_BLOB_LIST9deep_copyEPKS_PFP6C_BLOBPKS2_E
_ZN11PAGE_RES_IT10start_pageEb
_ZN11PAGE_RES_IT11restart_rowEv
_ZN11PAGE_RES_IT13forward_blockEv
_ZN11PAGE_RES_IT13rej_stat_wordEv
_ZN11PAGE_RES_IT16internal_forwardEbb
_ZN11PAGE_RES_IT17DeleteCurrentWordEv
_ZN11PAGE_RES_IT17ResetWordIteratorEv
_ZN11PAGE_RES_IT17forward_paragraphEv
_ZN11PAGE_RES_IT21InsertSimpleCloneWordERK8WERD_RESP4WERD
_ZN11SVSemaphore4WaitEv
_ZN11SVSemaphore6SignalEv
_ZN11SVSemaphoreC1Ev
_ZN11SVSemaphoreC2Ev
_ZN11TO_ROW_LIST9deep_copyEPKS_PFP6TO_ROWPKS2_E
_ZN11WERD_CHOICE10kBadRatingE DATA
_ZN11WERD_CHOICE13permuter_nameEh
_ZN11WERD_CHOICE15set_blob_choiceEiiPK11BLOB_CHOICE
_ZN11WERD_CHOICE16ScriptPositionOfEbRK10UNICHARSETRK4TBOXi
_ZN11WERD_CHOICE17append_unichar_idEiiff
_ZN11WERD_CHOICE18SetScriptPositionsEPKN9tesseract9ScriptPosEi
_ZN11WERD_CHOICE18SetScriptPositionsEbP5TWERD
_ZN11WERD_CHOICE18remove_unichar_idsEii
_ZN11WERD_CHOICE19DisplaySegmentationEP5TWERD
_ZN11WERD_CHOICE19UpdateStateForSplitEi
_ZN11WERD_CHOICE21SetAllScriptPositionsEN9tesseract9ScriptPosE
_ZN11WERD_CHOICE30reverse_and_mirror_unichar_idsEv
_ZN11WERD_CHOICE4initEPKcS1_ffh
_ZN11WERD_CHOICEC1EPKcRK10UNICHARSET
_ZN11WERD_CHOICEC2EPKcRK10UNICHARSET
_ZN11WERD_CHOICED1Ev
_ZN11WERD_CHOICED2Ev
_ZN11WERD_CHOICEaSERKS_
_ZN11WERD_CHOICEpLERKS_
_ZN12BlamerBundle10JoinBlamesERKS_S1_b
_ZN12BlamerBundle12SetWordTruthERK10UNICHARSETPKcRK4TBOX
_ZN12BlamerBundle14SetSymbolTruthERK10UNICHARSETPKcRK4TBOX
_ZN12BlamerBundle15BlameClassifierERK10UNICHARSETRK4TBOXRK16BLOB_CHOICE_LISTb
_ZN12BlamerBundle15FillDebugStringERK6STRINGPK11WERD_CHOICEPS0_
_ZN12BlamerBundle15FinishSegSearchEPK11WERD_CHOICEbP6STRING
_ZN12BlamerBundle15LastChanceBlameEbP8WERD_RES
_ZN12BlamerBundle15SetChopperBlameEPK8WERD_RESb
_ZN12BlamerBundle16InitForSegSearchEPK11WERD_CHOICEP6MATRIXibP6STRINGP19TessResultCallback2IbiiE
_ZN12BlamerBundle16SetRejectedTruthEv
_ZN12BlamerBundle18SetupNormTruthWordERK6DENORM
_ZN12BlamerBundle19IncorrectReasonNameE21IncorrectResultReason
_ZN12BlamerBundle19SetMisAdaptionDebugEPK11WERD_CHOICEb
_ZN12BlamerBundle24SetupCorrectSegmentationEPK5TWERDb
_ZN12BlamerBundle26BlameClassifierOrLangModelEPK8WERD_RESRK10UNICHARSETbb
_ZN12FPSEGPT_LIST9deep_copyEPKS_PFP7FPSEGPTPKS2_E
_ZN12KDTreeSearch19BoxIntersectsSearchEPfS0_
_ZN12KDTreeSearch6SearchEPiPfPPv
_ZN12KDTreeSearch9SearchRecEiP6KDNODE
_ZN12KDTreeSearchC1EP6KDTREEPfi
_ZN12KDTreeSearchC2EP6KDTREEPfi
_ZN12KDTreeSearchD1Ev
_ZN12KDTreeSearchD2Ev
_ZN12ParamContent19GetParamContentByIdEi
_ZN12ParamContent7CompareEPKvS1_
_ZN12ParamContent8SetValueEPKc
_ZN12ParamContentC1EPN9tesseract11DoubleParamE
_ZN12ParamContentC1EPN9tesseract11StringParamE
_ZN12ParamContentC1EPN9tesseract8IntParamE
_ZN12ParamContentC1EPN9tesseract9BoolParamE
_ZN12ParamContentC2EPN9tesseract11DoubleParamE
_ZN12ParamContentC2EPN9tesseract11StringParamE
_ZN12ParamContentC2EPN9tesseract8IntParamE
_ZN12ParamContentC2EPN9tesseract9BoolParamE
_ZN12ParamsEditor11GetPrefixesEPKcP6STRINGS3_S3_
_ZN12ParamsEditor11WriteParamsEPcb
_ZN12ParamsEditor13GetFirstWordsEPKciPc
_ZN12ParamsEditor20BuildListOfAllLeavesEPN9tesseract9TesseractE
_ZN12ParamsEditor6NotifyEPK7SVEvent
_ZN12ParamsEditorC1EPN9tesseract9TesseractEP10ScrollView
_ZN12ParamsEditorC2EPN9tesseract9TesseractEP10ScrollView
_ZN12ParamsEditorD0Ev
_ZN12ParamsEditorD1Ev
_ZN12ROW_RES_LIST9deep_copyEPKS_PFP7ROW_RESPKS2_E
_ZN13BLOBNBOX_LIST9deep_copyEPKS_PFP8BLOBNBOXPKS2_E
_ZN13BLOCK_LINE_IT8get_lineEsRs
_ZN13BLOCK_RECT_IT11start_blockEv
_ZN13BLOCK_RECT_IT12set_to_blockEP5PDBLK
_ZN13BLOCK_RECT_IT7forwardEv
_ZN13BLOCK_RECT_ITC1EP5PDBLK
_ZN13BLOCK_RECT_ITC2EP5PDBLK
_ZN13BandTriMatrixIP16BLOB_CHOICE_LISTED0Ev
_ZN13BandTriMatrixIP16BLOB_CHOICE_LISTED1Ev
_ZN13CHAR_FRAGMENT17parse_from_stringEPKc
_ZN13CHAR_FRAGMENT9to_stringEPKciib
_ZN13GenericVectorI11ScoredClassE5clearEv
_ZN13GenericVectorI12DANGERR_INFOE5clearEv
_ZN13GenericVectorI12DANGERR_INFOE9push_backES0_
_ZN13GenericVectorI16CP_RESULT_STRUCTE12init_to_sizeEiS0_
_ZN13GenericVectorI16CP_RESULT_STRUCTE5clearEv
_ZN13GenericVectorI17GenericVectorEqEqIPK14ParagraphModelEE5clearEv
_ZN13GenericVectorI17GenericVectorEqEqIPK14ParagraphModelEE7reserveEi
_ZN13GenericVectorI17GenericVectorEqEqIiEE5clearEv
_ZN13GenericVectorI18INT_FEATURE_STRUCTE5clearEv
_ZN13GenericVectorI21StrongScriptDirectionE5clearEv
_ZN13GenericVectorI4TBOXE15double_the_sizeEv
_ZN13GenericVectorI4TBOXE5clearEv
_ZN13GenericVectorI4TBOXE9push_backES0_
_ZN13GenericVectorI6STRINGE5clearEv
_ZN13GenericVectorI6STRINGE7reserveEi
_ZN13GenericVectorI6STRINGE9push_backES0_
_ZN13GenericVectorI6STRINGEpLERKS1_
_ZN13GenericVectorI8WERD_RESE5clearEv
_ZN13GenericVectorI8WERD_RESE7reserveEi
_ZN13GenericVectorI8WERD_RESEpLERKS1_
_ZN13GenericVectorIN10SortHelperIiE8SortPairIiEEE5clearEv
_ZN13GenericVectorIN9tesseract10DetLineFit10PointWidthEE5clearEv
_ZN13GenericVectorIN9tesseract10DetLineFit10PointWidthEE9push_backES2_
_ZN13GenericVectorIN9tesseract11ObjectCacheINS0_4DawgEE14ReferenceCountEE5clearEv
_ZN13GenericVectorIN9tesseract11ObjectCacheINS0_4DawgEE14ReferenceCountEE7reserveEi
_ZN13GenericVectorIN9tesseract11ShapeRatingEE5clearEv
_ZN13GenericVectorIN9tesseract12DawgPositionEE4initEi
_ZN13GenericVectorIN9tesseract12DawgPositionEE5clearEv
_ZN13GenericVectorIN9tesseract12DawgPositionEEpLERKS2_
_ZN13GenericVectorIN9tesseract12ErrorCounter6CountsEE5clearEv
_ZN13GenericVectorIN9tesseract12KDPtrPairDecIf4SEAMEEE5clearEv
_ZN13GenericVectorIN9tesseract12KDPtrPairIncIf4SEAMEEE5clearEv
_ZN13GenericVectorIN9tesseract13UnicharRatingEE5clearEv
_ZN13GenericVectorIN9tesseract13UnicharRatingEE7reserveEi
_ZN13GenericVectorIN9tesseract13UnicharRatingEE9push_backES1_
_ZN13GenericVectorIN9tesseract14LineHypothesisEE13push_back_newES1_
_ZN13GenericVectorIN9tesseract14LineHypothesisEE5clearEv
_ZN13GenericVectorIN9tesseract14LineHypothesisEE9push_backES1_
_ZN13GenericVectorIN9tesseract14LineHypothesisEEpLERKS2_
_ZN13GenericVectorIN9tesseract15UnicharAndFontsEE18DeSerializeClassesEbP6_iobuf
_ZN13GenericVectorIN9tesseract15UnicharAndFontsEE5clearEv
_ZN13GenericVectorIN9tesseract15UnicharAndFontsEE7reserveEi
_ZN13GenericVectorIN9tesseract15UnicharAndFontsEE9push_backES1_
_ZN13GenericVectorIN9tesseract15UnicharAndFontsEEpLERKS2_
_ZN13GenericVectorIN9tesseract16SegSearchPendingEE5clearEv
_ZN13GenericVectorIN9tesseract17TrainingSampleSet17FontClassDistanceEE9push_backES2_
_ZN13GenericVectorIN9tesseract17TrainingSampleSet17FontClassDistanceEEpLERKS3_
_ZN13GenericVectorIN9tesseract19RowScratchRegistersEE5clearEv
_ZN13GenericVectorIN9tesseract19RowScratchRegistersEE7reserveEi
_ZN13GenericVectorIN9tesseract24ParamsTrainingHypothesisEE5clearEv
_ZN13GenericVectorIN9tesseract24ParamsTrainingHypothesisEE7reserveEi
_ZN13GenericVectorIN9tesseract24ParamsTrainingHypothesisEE9push_backES1_
_ZN13GenericVectorIN9tesseract24ParamsTrainingHypothesisEEpLERKS2_
_ZN13GenericVectorIN9tesseract7ClusterEE5clearEv
_ZN13GenericVectorIN9tesseract7FontSetEE4readEP6_iobufP19TessResultCallback3IbS4_PS1_bEb
_ZN13GenericVectorIN9tesseract7FontSetEE5clearEv
_ZN13GenericVectorIN9tesseract7RowInfoEE5clearEv
_ZN13GenericVectorIN9tesseract7RowInfoEE7reserveEi
_ZN13GenericVectorIN9tesseract7RowInfoEE9push_backES1_
_ZN13GenericVectorIN9tesseract8BlobDataEE5clearEv
_ZN13GenericVectorIN9tesseract8BlobDataEE9push_backES1_
_ZN13GenericVectorIN9tesseract8FontInfoEE18DeSerializeClassesEbP6_iobuf
_ZN13GenericVectorIN9tesseract8FontInfoEE4readEP6_iobufP19TessResultCallback3IbS4_PS1_bEb
_ZN13GenericVectorIN9tesseract8FontInfoEE5clearEv
_ZN13GenericVectorIN9tesseract8FontInfoEE9push_backES1_
_ZN13GenericVectorIN9tesseract8IntervalEE5clearEv
_ZN13GenericVectorIN9tesseract8WordDataEE5clearEv
_ZN13GenericVectorIN9tesseract8WordDataEE7reserveEi
_ZN13GenericVectorIN9tesseract9KDPairIncId6ICOORDEEE15choose_nth_itemEiiiPj
_ZN13GenericVectorIN9tesseract9KDPairIncId6ICOORDEEE5clearEv
_ZN13GenericVectorIN9tesseract9KDPairIncId6ICOORDEEE9push_backES3_
_ZN13GenericVectorIN9tesseract9KDPairIncIf12MATRIX_COORDEEE5clearEv
_ZN13GenericVectorIN9tesseract9KDPairIncIfP11TEMPCLUSTEREEE5clearEv
_ZN13GenericVectorIN9tesseract9KDPairIncIfP6EDGEPTEEE5clearEv
_ZN13GenericVectorIN9tesseract9KDPairIncIfiEEE5clearEv
_ZN13GenericVectorIN9tesseract9KDPairIncIiyEEE5clearEv
_ZN13GenericVectorIN9tesseract9NodeChildEE5clearEv
_ZN13GenericVectorIN9tesseract9ShapeDistEE5clearEv
_ZN13GenericVectorIP10ScrollViewE5clearEv
_ZN13GenericVectorIP11BLOB_CHOICEE15double_the_sizeEv
_ZN13GenericVectorIP11BLOB_CHOICEE5clearEv
_ZN13GenericVectorIP11BLOB_CHOICEE9push_backES1_
_ZN13GenericVectorIP11WERD_CHOICEE5clearEv
_ZN13GenericVectorIP11WERD_CHOICEE9push_backES1_
_ZN13GenericVectorIP13BLOBNBOX_LISTE5clearEv
_ZN13GenericVectorIP13BLOBNBOX_LISTE9push_backES1_
_ZN13GenericVectorIP14ParagraphModelE5clearEv
_ZN13GenericVectorIP14ParagraphModelE9push_backES1_
_ZN13GenericVectorIP14ParagraphModelEpLERKS2_
_ZN13GenericVectorIP16BLOB_CHOICE_LISTE5clearEv
_ZN13GenericVectorIP16TRIE_NODE_RECORDE5clearEv
_ZN13GenericVectorIP3PixE5clearEv
_ZN13GenericVectorIP4PARAE12init_to_sizeEiS1_
_ZN13GenericVectorIP4PARAE5clearEv
_ZN13GenericVectorIP4SEAME15double_the_sizeEv
_ZN13GenericVectorIP4SEAME5clearEv
_ZN13GenericVectorIP4SEAME9push_backES1_
_ZN13GenericVectorIP4SEAMEpLERKS2_
_ZN13GenericVectorIP5TBLOBE4initEi
_ZN13GenericVectorIP5TBLOBE5clearEv
_ZN13GenericVectorIP5TBLOBE6insertES1_i
_ZN13GenericVectorIP5TBLOBE9push_backES1_
_ZN13GenericVectorIP5TBLOBEpLERKS2_
_ZN13GenericVectorIP8BLOBNBOXE5clearEv
_ZN13GenericVectorIP8BLOBNBOXE9push_backES1_
_ZN13GenericVectorIP8WERD_RESE5clearEv
_ZN13GenericVectorIPK14ParagraphModelE13push_back_newES2_
_ZN13GenericVectorIPK14ParagraphModelE4initEi
_ZN13GenericVectorIPK14ParagraphModelE5clearEv
_ZN13GenericVectorIPK14ParagraphModelE9push_backES2_
_ZN13GenericVectorIPK14ParagraphModelEpLERKS3_
_ZN13GenericVectorIPKN9tesseract14TrainingSampleEE5clearEv
_ZN13GenericVectorIPN9tesseract11BaselineRowEE5clearEv
_ZN13GenericVectorIPN9tesseract11DoubleParamEE5clearEv
_ZN13GenericVectorIPN9tesseract11DoubleParamEE9push_backES2_
_ZN13GenericVectorIPN9tesseract11StringParamEE5clearEv
_ZN13GenericVectorIPN9tesseract12ColPartitionEE4initEi
_ZN13GenericVectorIPN9tesseract12ColPartitionEE5clearEv
_ZN13GenericVectorIPN9tesseract12ColPartitionEE9push_backES2_
_ZN13GenericVectorIPN9tesseract12ColPartitionEEpLERKS3_
_ZN13GenericVectorIPN9tesseract13BaselineBlockEE5clearEv
_ZN13GenericVectorIPN9tesseract14AmbigSpec_LISTEE5clearEv
_ZN13GenericVectorIPN9tesseract14AmbigSpec_LISTEE9push_backES2_
_ZN13GenericVectorIPN9tesseract14TrainingSampleEE5clearEv
_ZN13GenericVectorIPN9tesseract14TrainingSampleEE9push_backES2_
_ZN13GenericVectorIPN9tesseract15ColPartitionSetEE15double_the_sizeEv
_ZN13GenericVectorIPN9tesseract15ColPartitionSetEE5clearEv
_ZN13GenericVectorIPN9tesseract15FontSpacingInfoEE5clearEv
_ZN13GenericVectorIPN9tesseract18LanguageModelStateEE15double_the_sizeEv
_ZN13GenericVectorIPN9tesseract18LanguageModelStateEE5clearEv
_ZN13GenericVectorIPN9tesseract4DawgEE5clearEv
_ZN13GenericVectorIPN9tesseract4DawgEE9push_backES2_
_ZN13GenericVectorIPN9tesseract5ShapeEE5clearEv
_ZN13GenericVectorIPN9tesseract5ShapeEE9push_backES2_
_ZN13GenericVectorIPN9tesseract8IntParamEE5clearEv
_ZN13GenericVectorIPN9tesseract8IntParamEE9push_backES2_
_ZN13GenericVectorIPN9tesseract9BoolParamEE5clearEv
_ZN13GenericVectorIPN9tesseract9BoolParamEE9push_backES2_
_ZN13GenericVectorIPS_IiEE5clearEv
_ZN13GenericVectorIPS_IiEE9push_backES1_
_ZN13GenericVectorIS_I6STRINGEE5clearEv
_ZN13GenericVectorIS_I6STRINGEE7reserveEi
_ZN13GenericVectorIS_I6STRINGEE9push_backES1_
_ZN13GenericVectorIS_IN9tesseract24ParamsTrainingHypothesisEEE5clearEv
_ZN13GenericVectorIS_IN9tesseract24ParamsTrainingHypothesisEEE7reserveEi
_ZN13GenericVectorIS_IiEE12init_to_sizeEiS0_
_ZN13GenericVectorIS_IiEE5clearEv
_ZN13GenericVectorIS_IiEE7reserveEi
_ZN13GenericVectorIbE5clearEv
_ZN13GenericVectorIcE12init_to_sizeEic
_ZN13GenericVectorIcE5clearEv
_ZN13GenericVectorIcE9push_backEc
_ZN13GenericVectorIcEpLERKS0_
_ZN13GenericVectorIdE15choose_nth_itemEiiiPj
_ZN13GenericVectorIdE4initEi
_ZN13GenericVectorIdE5clearEv
_ZN13GenericVectorIdE9push_backEd
_ZN13GenericVectorIfE12init_to_sizeEif
_ZN13GenericVectorIfE15choose_nth_itemEiiiPj
_ZN13GenericVectorIfE4initEi
_ZN13GenericVectorIfE5clearEv
_ZN13GenericVectorIfE9push_backEf
_ZN13GenericVectorIfEpLERKS0_
_ZN13GenericVectorIiE11DeSerializeEbP6_iobuf
_ZN13GenericVectorIiE12init_to_sizeEii
_ZN13GenericVectorIiE15double_the_sizeEv
_ZN13GenericVectorIiE4initEi
_ZN13GenericVectorIiE4moveEPS0_
_ZN13GenericVectorIiE5clearEv
_ZN13GenericVectorIiE9push_backEi
_ZN13GenericVectorIiEpLERKS0_
_ZN13GenericVectorIlE5clearEv
_ZN13GenericVectorIlE9push_backEl
_ZN13GenericVectorIsE11DeSerializeEbP6_iobuf
_ZN13GenericVectorIsE5clearEv
_ZN13GenericVectorItE11DeSerializeEbP6_iobuf
_ZN13GenericVectorItE5clearEv
_ZN13GenericVectorItE9push_backEt
_ZN13GenericVectorIxE5clearEv
_ZN13GenericVectorIyE15double_the_sizeEv
_ZN13GenericVectorIyE5clearEv
_ZN13SORTED_FLOATS3addEfi
_ZN13SORTED_FLOATS6removeEi
_ZN13SORTED_FLOATSixEi
_ZN13TO_BLOCK_LIST9deep_copyEPKS_PFP8TO_BLOCKPKS2_E
_ZN13WERD_RES_LIST9deep_copyEPKS_PFP8WERD_RESPKS2_E
_ZN14BLOCK_RES_LIST9deep_copyEPKS_PFP9BLOCK_RESPKS2_E
_ZN14CLIST_ITERATOR12move_to_lastEv
_ZN14CLIST_ITERATOR13data_relativeEc
_ZN14CLIST_ITERATOR15extract_sublistEPS_
_ZN14CLIST_ITERATOR7forwardEv
_ZN14CLIST_ITERATOR8exchangeEPS_
_ZN14C_OUTLINE_FRAG5closeEv
_ZN14C_OUTLINE_FRAGC1E6ICOORDS0_P9C_OUTLINEss
_ZN14C_OUTLINE_FRAGC1EPS_s
_ZN14C_OUTLINE_FRAGC2E6ICOORDS0_P9C_OUTLINEss
_ZN14C_OUTLINE_FRAGC2EPS_s
_ZN14C_OUTLINE_FRAGaSERKS_
_ZN14C_OUTLINE_LIST9deep_copyEPKS_PFP9C_OUTLINEPKS2_E
_ZN14ELIST_ITERATOR12move_to_lastEv
_ZN14ELIST_ITERATOR13data_relativeEc
_ZN14ELIST_ITERATOR15extract_sublistEPS_
_ZN14ELIST_ITERATOR7forwardEv
_ZN14ELIST_ITERATOR8exchangeEPS_
_ZN14ICOORDELT_LIST9deep_copyEPKS_PFP9ICOORDELTPKS2_E
_ZN14IntegerMatcher13FindBestMatchEP16INT_CLASS_STRUCTRK15ScratchEvidenceP17INT_RESULT_STRUCT
_ZN14IntegerMatcher14DebugBestMatchEiP17INT_RESULT_STRUCT
_ZN14IntegerMatcher14FindGoodProtosEP16INT_CLASS_STRUCTPjS2_tsP18INT_FEATURE_STRUCTPsii
_ZN14IntegerMatcher15FindBadFeaturesEP16INT_CLASS_STRUCTPjS2_tsP18INT_FEATURE_STRUCTPhii
_ZN14IntegerMatcher17ApplyCNCorrectionEfiii
_ZN14IntegerMatcher17kSimilarityCenterE DATA
_ZN14IntegerMatcher21DisplayProtoDebugInfoEP16INT_CLASS_STRUCTPjS2_RK15ScratchEvidenceb
_ZN14IntegerMatcher22DebugFeatureProtoErrorEP16INT_CLASS_STRUCTPjS2_RK15ScratchEvidencesi
_ZN14IntegerMatcher22UpdateTablesForFeatureEP16INT_CLASS_STRUCTPjS2_iPK18INT_FEATURE_STRUCTP15ScratchEvidencei
_ZN14IntegerMatcher23DisplayFeatureDebugInfoEP16INT_CLASS_STRUCTPjS2_sPK18INT_FEATURE_STRUCTiib
_ZN14IntegerMatcher24kSEExponentialMultiplierE DATA
_ZN14IntegerMatcher4InitEPN9tesseract8IntParamE
_ZN14IntegerMatcher5MatchEP16INT_CLASS_STRUCTPjS2_sPK18INT_FEATURE_STRUCTP17INT_RESULT_STRUCTiib
_ZN14PGEventHandler6NotifyEPK7SVEvent
_ZN14PGEventHandlerD0Ev
_ZN14PGEventHandlerD1Ev
_ZN14SVEventHandler6NotifyEPK7SVEvent
_ZN14SVEventHandlerD0Ev
_ZN14SVEventHandlerD1Ev
_ZN14ScriptDetector11detect_blobEP16BLOB_CHOICE_LIST
_ZN14ScriptDetector14korean_script_E DATA
_ZN14ScriptDetector15fraktur_script_E DATA
_ZN14ScriptDetector16japanese_script_E DATA
_ZN14ScriptDetector9must_stopEi
_ZN14ScriptDetectorC1EPK13GenericVectorIiEP9OSResultsPN9tesseract9TesseractE
_ZN14ScriptDetectorC2EPK13GenericVectorIiEP9OSResultsPN9tesseract9TesseractE
_ZN15BlnEventHandler6NotifyEPK7SVEvent
_ZN15BlnEventHandlerD0Ev
_ZN15BlnEventHandlerD1Ev
_ZN15ELIST2_ITERATOR13data_relativeEc
_ZN15ELIST2_ITERATOR15extract_sublistEPS_
_ZN15ELIST2_ITERATOR7forwardEv
_ZN15ELIST2_ITERATOR8backwardEv
_ZN15ELIST2_ITERATOR8exchangeEPS_
_ZN15ScratchEvidence13NormalizeSumsEP16INT_CLASS_STRUCTsi
_ZN15ScratchEvidence20ClearFeatureEvidenceEP16INT_CLASS_STRUCT
_ZN15ScratchEvidence25UpdateSumOfProtoEvidencesEP16INT_CLASS_STRUCTPjs
_ZN15ScratchEvidence5ClearEP16INT_CLASS_STRUCT
_ZN16BLOB_CHOICE_LIST9deep_copyEPKS_PFP11BLOB_CHOICEPKS2_E
_ZN16GENERIC_2D_ARRAYIN9tesseract17TrainingSampleSet13FontClassInfoEED0Ev
_ZN16GENERIC_2D_ARRAYIN9tesseract17TrainingSampleSet13FontClassInfoEED1Ev
_ZN16GENERIC_2D_ARRAYIP16BLOB_CHOICE_LISTED0Ev
_ZN16GENERIC_2D_ARRAYIP16BLOB_CHOICE_LISTED1Ev
_ZN16GENERIC_2D_ARRAYIdED0Ev
_ZN16GENERIC_2D_ARRAYIdED1Ev
_ZN16GENERIC_2D_ARRAYIiED0Ev
_ZN16GENERIC_2D_ARRAYIiED1Ev
_ZN16LocalFilePointer5fgetsEPci
_ZN16WERD_CHOICE_LIST9deep_copyEPKS_PFP11WERD_CHOICEPKS2_E
_ZN17ParamContent_LIST9deep_copyEPKS_PFP12ParamContentPKS2_E
_ZN17SORTED_FLOAT_LIST9deep_copyEPKS_PFP12SORTED_FLOATPKS2_E
_ZN18INT_FEATURE_STRUCTC1ERK6FCOORDh
_ZN18INT_FEATURE_STRUCTC1Eiii
_ZN18INT_FEATURE_STRUCTC2ERK6FCOORDh
_ZN18INT_FEATURE_STRUCTC2Eiii
_ZN19C_OUTLINE_FRAG_LIST9deep_copyEPKS_PFP14C_OUTLINE_FRAGPKS2_E
_ZN19InMemoryFilePointer5fgetsEPci
_ZN19OrientationDetector11detect_blobEP16BLOB_CHOICE_LIST
_ZN19OrientationDetector15get_orientationEv
_ZN19OrientationDetectorC1EPK13GenericVectorIiEP9OSResults
_ZN19OrientationDetectorC2EPK13GenericVectorIiEP9OSResults
_ZN29_TessMemberResultCallback_0_0ILb1EPN9tesseract4DawgENS0_10DawgLoaderEE3RunEv
_ZN29_TessMemberResultCallback_0_0ILb1EPN9tesseract4DawgENS0_10DawgLoaderEED0Ev
_ZN29_TessMemberResultCallback_0_0ILb1EPN9tesseract4DawgENS0_10DawgLoaderEED1Ev
_ZN29_TessMemberResultCallback_0_1ILb0EbN9tesseract17TrainingSampleSetEPKNS0_14TrainingSampleEE3RunES4_
_ZN29_TessMemberResultCallback_0_1ILb0EbN9tesseract17TrainingSampleSetEPKNS0_14TrainingSampleEED0Ev
_ZN29_TessMemberResultCallback_0_1ILb0EbN9tesseract17TrainingSampleSetEPKNS0_14TrainingSampleEED1Ev
_ZN29_TessMemberResultCallback_0_1ILb0EbN9tesseract7TabFindEiE3RunEi
_ZN29_TessMemberResultCallback_0_1ILb0EbN9tesseract7TabFindEiED0Ev
_ZN29_TessMemberResultCallback_0_1ILb0EbN9tesseract7TabFindEiED1Ev
_ZN29_TessMemberResultCallback_0_1ILb0EvN9tesseract16DocQualCallbacksEiE3RunEi
_ZN29_TessMemberResultCallback_0_1ILb0EvN9tesseract16DocQualCallbacksEiED0Ev
_ZN29_TessMemberResultCallback_0_1ILb0EvN9tesseract16DocQualCallbacksEiED1Ev
_ZN29_TessMemberResultCallback_0_2ILb0EPc16LocalFilePointerS0_iE3RunES0_i
_ZN29_TessMemberResultCallback_0_2ILb0EPc16LocalFilePointerS0_iED0Ev
_ZN29_TessMemberResultCallback_0_2ILb0EPc16LocalFilePointerS0_iED1Ev
_ZN29_TessMemberResultCallback_0_2ILb0EPc19InMemoryFilePointerS0_iE3RunES0_i
_ZN29_TessMemberResultCallback_0_2ILb0EPc19InMemoryFilePointerS0_iED0Ev
_ZN29_TessMemberResultCallback_0_2ILb0EPc19InMemoryFilePointerS0_iED1Ev
_ZN29_TessMemberResultCallback_0_2ILb0Eb8WERD_RESRK4TBOXS3_E3RunES3_S3_
_ZN29_TessMemberResultCallback_0_2ILb0Eb8WERD_RESRK4TBOXS3_ED0Ev
_ZN29_TessMemberResultCallback_0_2ILb0Eb8WERD_RESRK4TBOXS3_ED1Ev
_ZN29_TessMemberResultCallback_0_2ILb0EbN9tesseract11StrokeWidthEPKNS0_12ColPartitionES4_E3RunES4_S4_
_ZN29_TessMemberResultCallback_0_2ILb0EbN9tesseract11StrokeWidthEPKNS0_12ColPartitionES4_ED0Ev
_ZN29_TessMemberResultCallback_0_2ILb0EbN9tesseract11StrokeWidthEPKNS0_12ColPartitionES4_ED1Ev
_ZN29_TessMemberResultCallback_0_2ILb0EbN9tesseract11StrokeWidthEPNS0_12ColPartitionEP4TBOXE3RunES3_S5_
_ZN29_TessMemberResultCallback_0_2ILb0EbN9tesseract11StrokeWidthEPNS0_12ColPartitionEP4TBOXED0Ev
_ZN29_TessMemberResultCallback_0_2ILb0EbN9tesseract11StrokeWidthEPNS0_12ColPartitionEP4TBOXED1Ev
_ZN29_TessMemberResultCallback_0_2ILb0Ei8WERD_RESiiE3RunEii
_ZN29_TessMemberResultCallback_0_2ILb0Ei8WERD_RESiiED0Ev
_ZN29_TessMemberResultCallback_0_2ILb0Ei8WERD_RESiiED1Ev
_ZN29_TessMemberResultCallback_2_2ILb0EbN9tesseract12LMPainPointsEdP8WERD_RESiiE3RunEii
_ZN29_TessMemberResultCallback_2_2ILb0EbN9tesseract12LMPainPointsEdP8WERD_RESiiED0Ev
_ZN29_TessMemberResultCallback_2_2ILb0EbN9tesseract12LMPainPointsEdP8WERD_RESiiED1Ev
_ZN31_TessFunctionResultCallback_0_1ILb0EvN9tesseract7FontSetEE3RunES1_
_ZN31_TessFunctionResultCallback_0_1ILb0EvN9tesseract7FontSetEED0Ev
_ZN31_TessFunctionResultCallback_0_1ILb0EvN9tesseract7FontSetEED1Ev
_ZN31_TessFunctionResultCallback_0_1ILb0EvN9tesseract8FontInfoEE3RunES1_
_ZN31_TessFunctionResultCallback_0_1ILb0EvN9tesseract8FontInfoEED0Ev
_ZN31_TessFunctionResultCallback_0_1ILb0EvN9tesseract8FontInfoEED1Ev
_ZN31_TessFunctionResultCallback_0_2ILb0EbP6_iobufRKN9tesseract7FontSetEE3RunES1_S5_
_ZN31_TessFunctionResultCallback_0_2ILb0EbP6_iobufRKN9tesseract7FontSetEED0Ev
_ZN31_TessFunctionResultCallback_0_2ILb0EbP6_iobufRKN9tesseract7FontSetEED1Ev
_ZN31_TessFunctionResultCallback_0_2ILb0EbP6_iobufRKN9tesseract8FontInfoEE3RunES1_S5_
_ZN31_TessFunctionResultCallback_0_2ILb0EbP6_iobufRKN9tesseract8FontInfoEED0Ev
_ZN31_TessFunctionResultCallback_0_2ILb0EbP6_iobufRKN9tesseract8FontInfoEED1Ev
_ZN31_TessFunctionResultCallback_0_2ILb0EbRKN9tesseract14LineHypothesisES3_E3RunES3_S3_
_ZN31_TessFunctionResultCallback_0_2ILb0EbRKN9tesseract14LineHypothesisES3_ED0Ev
_ZN31_TessFunctionResultCallback_0_2ILb0EbRKN9tesseract14LineHypothesisES3_ED1Ev
_ZN31_TessFunctionResultCallback_0_2ILb0EbRKN9tesseract7FontSetES3_E3RunES3_S3_
_ZN31_TessFunctionResultCallback_0_2ILb0EbRKN9tesseract7FontSetES3_ED0Ev
_ZN31_TessFunctionResultCallback_0_2ILb0EbRKN9tesseract7FontSetES3_ED1Ev
_ZN31_TessFunctionResultCallback_0_2ILb0EbRKN9tesseract8FontInfoES3_E3RunES3_S3_
_ZN31_TessFunctionResultCallback_0_2ILb0EbRKN9tesseract8FontInfoES3_ED0Ev
_ZN31_TessFunctionResultCallback_0_2ILb0EbRKN9tesseract8FontInfoES3_ED1Ev
_ZN31_TessFunctionResultCallback_0_2ILb0EbRKP14ParagraphModelS3_E3RunES3_S3_
_ZN31_TessFunctionResultCallback_0_2ILb0EbRKP14ParagraphModelS3_ED0Ev
_ZN31_TessFunctionResultCallback_0_2ILb0EbRKP14ParagraphModelS3_ED1Ev
_ZN31_TessFunctionResultCallback_0_2ILb0EbRKPK14ParagraphModelS4_E3RunES4_S4_
_ZN31_TessFunctionResultCallback_0_2ILb0EbRKPK14ParagraphModelS4_ED0Ev
_ZN31_TessFunctionResultCallback_0_2ILb0EbRKPK14ParagraphModelS4_ED1Ev
_ZN31_TessFunctionResultCallback_0_2ILb0EbRKiS1_E3RunES1_S1_
_ZN31_TessFunctionResultCallback_0_2ILb0EbRKiS1_ED0Ev
_ZN31_TessFunctionResultCallback_0_2ILb0EbRKiS1_ED1Ev
_ZN31_TessFunctionResultCallback_0_3ILb0EbP6_iobufPN9tesseract7FontSetEbE3RunES1_S4_b
_ZN31_TessFunctionResultCallback_0_3ILb0EbP6_iobufPN9tesseract7FontSetEbED0Ev
_ZN31_TessFunctionResultCallback_0_3ILb0EbP6_iobufPN9tesseract7FontSetEbED1Ev
_ZN31_TessFunctionResultCallback_0_3ILb0EbP6_iobufPN9tesseract8FontInfoEbE3RunES1_S4_b
_ZN31_TessFunctionResultCallback_0_3ILb0EbP6_iobufPN9tesseract8FontInfoEbED0Ev
_ZN31_TessFunctionResultCallback_0_3ILb0EbP6_iobufPN9tesseract8FontInfoEbED1Ev
_ZN31_TessFunctionResultCallback_1_1ILb0EvP13TessCallback1IPKcEPK11WERD_CHOICEE3RunES7_
_ZN31_TessFunctionResultCallback_1_1ILb0EvP13TessCallback1IPKcEPK11WERD_CHOICEED0Ev
_ZN31_TessFunctionResultCallback_1_1ILb0EvP13TessCallback1IPKcEPK11WERD_CHOICEED1Ev
_ZN34_ConstTessMemberResultCallback_5_0ILb0EbN9tesseract12PageIteratorENS0_17PageIteratorLevelEPiS3_S3_S3_E3RunEv
_ZN34_ConstTessMemberResultCallback_5_0ILb0EbN9tesseract12PageIteratorENS0_17PageIteratorLevelEPiS3_S3_S3_ED0Ev
_ZN34_ConstTessMemberResultCallback_5_0ILb0EbN9tesseract12PageIteratorENS0_17PageIteratorLevelEPiS3_S3_S3_ED1Ev
_ZN34_ConstTessMemberResultCallback_6_0ILb0EbN9tesseract12PageIteratorENS0_17PageIteratorLevelEiPiS3_S3_S3_E3RunEv
_ZN34_ConstTessMemberResultCallback_6_0ILb0EbN9tesseract12PageIteratorENS0_17PageIteratorLevelEiPiS3_S3_S3_ED0Ev
_ZN34_ConstTessMemberResultCallback_6_0ILb0EbN9tesseract12PageIteratorENS0_17PageIteratorLevelEiPiS3_S3_S3_ED1Ev
_ZN3REJ10full_printEP6_iobuf
_ZN3REJ13perm_rejectedEv
_ZN3REJ13setrej_hyphenEv
_ZN3REJ14setrej_doc_rejEv
_ZN3REJ14setrej_dubiousEv
_ZN3REJ14setrej_row_rejEv
_ZN3REJ15setrej_unlv_rejEv
_ZN3REJ16setrej_block_rejEv
_ZN3REJ16setrej_edge_charEv
_ZN3REJ16setrej_mm_acceptEv
_ZN3REJ16setrej_mm_rejectEv
_ZN3REJ16setrej_nn_acceptEv
_ZN3REJ16setrej_rej_cblobEv
_ZN3REJ16setrej_small_xhtEv
_ZN3REJ16setrej_xht_fixupEv
_ZN3REJ17setrej_mostly_rejEv
_ZN3REJ17setrej_poor_matchEv
_ZN3REJ17setrej_postNN_1IlEv
_ZN3REJ18setrej_bad_qualityEv
_ZN3REJ19setrej_1Il_conflictEv
_ZN3REJ19setrej_bad_permuterEv
_ZN3REJ19setrej_no_alphanumsEv
_ZN3REJ19setrej_tess_failureEv
_ZN3REJ20rej_before_mm_acceptEv
_ZN3REJ20rej_before_nn_acceptEv
_ZN3REJ20setrej_hyphen_acceptEv
_ZN3REJ21rej_between_nn_and_mmEv
_ZN3REJ21setrej_bad_repetitionEv
_ZN3REJ21setrej_quality_acceptEv
_ZN3REJ22accept_if_good_qualityEv
_ZN3REJ22setrej_contains_blanksEv
_ZN3REJ24setrej_not_tess_acceptedEv
_ZN3REJ25rej_before_quality_acceptEv
_ZN3REJ25setrej_minimal_rej_acceptEv
_ZN3REJ33rej_between_mm_and_quality_acceptEv
_ZN3REJ42rej_between_quality_and_minimal_rej_acceptEv
_ZN3REJ8rejectedEv
_ZN3ROW19recalc_bounding_boxEv
_ZN3ROW4moveE6ICOORD
_ZN3ROW4plotEP10ScrollView
_ZN3ROW4plotEP10ScrollViewNS0_5ColorE
_ZN3ROW5printEP6_iobuf
_ZN3ROWC1EP6TO_ROWss
_ZN3ROWC1EiPiPdfffss
_ZN3ROWC2EP6TO_ROWss
_ZN3ROWC2EiPiPdfffss
_ZN3ROWaSERKS_
_ZN4LLSQ3addERKS_
_ZN4LLSQ3addEdd
_ZN4LLSQ3addEddd
_ZN4LLSQ5clearEv
_ZN4LLSQ6removeEdd
_ZN4QLSQ3addEdd
_ZN4QLSQ3fitEi
_ZN4QLSQ5clearEv
_ZN4QLSQ6removeEdd
_ZN4TBOX11DeSerializeEbP6_iobuf
_ZN4TBOX12rotate_largeERK6FCOORD
_ZN4TBOXC1E6ICOORDS0_
_ZN4TBOXC1Essss
_ZN4TBOXC2E6ICOORDS0_
_ZN4TBOXC2Essss
_ZN4WERD12bounding_boxEv
_ZN4WERD12shallow_copyEv
_ZN4WERD14plot_rej_blobsEP10ScrollView
_ZN4WERD23ConstructFromSingleBlobEbbP6C_BLOB
_ZN4WERD25ConstructWerdWithNewBlobsEP11C_BLOB_LISTS1_
_ZN4WERD4moveE6ICOORD
_ZN4WERD4plotEP10ScrollView
_ZN4WERD4plotEP10ScrollViewNS0_5ColorE
_ZN4WERD5printEv
_ZN4WERD7copy_onEPS_
_ZN4WERD7join_onEPS_
_ZN4WERD9NextColorEN10ScrollView5ColorE
_ZN4WERDC1EP11C_BLOB_LISTPS_
_ZN4WERDC1EP11C_BLOB_LISThPKc
_ZN4WERDC2EP11C_BLOB_LISTPS_
_ZN4WERDC2EP11C_BLOB_LISThPKc
_ZN4WERDaSERKS_
_ZN5BLOCK11check_pitchEv
_ZN5BLOCK19compute_row_marginsEv
_ZN5BLOCK25reflect_polygon_in_y_axisEv
_ZN5BLOCK5printEP6_iobufh
_ZN5BLOCK6rotateERK6FCOORD
_ZN5BLOCK8compressE6ICOORD
_ZN5BLOCK8compressEv
_ZN5BLOCK9sort_rowsEv
_ZN5BLOCKC1EPKchssssss
_ZN5BLOCKC2EPKchssssss
_ZN5BLOCKD1Ev
_ZN5BLOCKaSERKS_
_ZN5CLIST10add_sortedEPFiPKvS1_EbPv
_ZN5CLIST12set_subtractEPFiPKvS1_EbPS_S4_
_ZN5CLIST13shallow_clearEv
_ZN5CLIST17assign_to_sublistEP14CLIST_ITERATORS1_
_ZN5CLIST19internal_deep_clearEPFvPvE
_ZN5CLIST4sortEPFiPKvS1_E
_ZN5ELIST14internal_clearEPFvP10ELIST_LINKE
_ZN5ELIST17assign_to_sublistEP14ELIST_ITERATORS1_
_ZN5ELIST19add_sorted_and_findEPFiPKvS1_EbP10ELIST_LINK
_ZN5ELIST4sortEPFiPKvS1_E
_ZN5PDBLK11render_maskERK6FCOORD
_ZN5PDBLK4moveE6ICOORD
_ZN5PDBLK4plotEP10ScrollViewiNS0_5ColorE
_ZN5PDBLK8containsE6ICOORD
_ZN5PDBLK9set_sidesEP14ICOORDELT_LISTS1_
_ZN5PDBLKC1Essss
_ZN5PDBLKC2Essss
_ZN5PDBLKaSERKS_
_ZN5STATS3addEii
_ZN5STATS5clearEv
_ZN5STATS6smoothEi
_ZN5STATS7clusterEfffiPS_
_ZN5STATS9set_rangeEii
_ZN5STATSC1Eii
_ZN5STATSC1Ev
_ZN5STATSC2Eii
_ZN5STATSC2Ev
_ZN5STATSD1Ev
_ZN5STATSD2Ev
_ZN5TBLOB11ShallowCopyERKS_
_ZN5TBLOB13PolygonalCopyEbP6C_BLOB
_ZN5TBLOB20ComputeBoundingBoxesEv
_ZN5TBLOB4MoveE6ICOORD
_ZN5TBLOB4plotEP10ScrollViewNS0_5ColorES2_
_ZN5TBLOB5ClearEv
_ZN5TBLOB5ScaleEf
_ZN5TBLOB6RotateE6FCOORD
_ZN5TBLOB8CopyFromERKS_
_ZN5TBLOB9NormalizeEPK5BLOCKPK6FCOORDPK6DENORMffffffbP3Pix
_ZN5TWERD10MergeBlobsEii
_ZN5TWERD11BLNormalizeEPK5BLOCKPK3ROWP3PixbfbN9tesseract13OcrEngineModeEPK4TBOXP6DENORM
_ZN5TWERD13PolygonalCopyEbP4WERD
_ZN5TWERD20ComputeBoundingBoxesEv
_ZN5TWERD4plotEP10ScrollView
_ZN5TWERD5ClearEv
_ZN5TWERD8CopyFromERKS_
_ZN6BITS16C1Et
_ZN6BITS16C2Et
_ZN6C_BLOB10outer_areaEv
_ZN6C_BLOB11plot_normedERK6DENORMN10ScrollView5ColorES4_PS3_
_ZN6C_BLOB12bounding_boxEv
_ZN6C_BLOB14render_outlineEv
_ZN6C_BLOB17count_transitionsEi
_ZN6C_BLOB18ComputeEdgeOffsetsEiP3Pix
_ZN6C_BLOB24EstimateBaselinePositionEv
_ZN6C_BLOB26ConstructBlobsFromOutlinesEbP14C_OUTLINE_LISTP9C_BLOB_ITS3_
_ZN6C_BLOB28CheckInverseFlagAndDirectionEv
_ZN6C_BLOB4areaEv
_ZN6C_BLOB4moveE6ICOORD
_ZN6C_BLOB4plotEP10ScrollViewNS0_5ColorES2_
_ZN6C_BLOB6renderEv
_ZN6C_BLOB6rotateERK6FCOORD
_ZN6C_BLOB8FakeBlobERK4TBOX
_ZN6C_BLOB9deep_copyEPKS_
_ZN6C_BLOB9perimeterEv
_ZN6C_BLOBC1EP14C_OUTLINE_LIST
_ZN6C_BLOBC1EP9C_OUTLINE
_ZN6C_BLOBC2EP14C_OUTLINE_LIST
_ZN6C_BLOBC2EP9C_OUTLINE
_ZN6DENORM14SetupNonLinearEPKS_RK4TBOXffffRK13GenericVectorIS5_IiEES9_
_ZN6DENORM18SetupNormalizationEPK5BLOCKPK6FCOORDPKS_ffffff
_ZN6DENORM4InitEv
_ZN6DENORM5ClearEv
_ZN6DENORMC1ERKS_
_ZN6DENORMC1Ev
_ZN6DENORMC2ERKS_
_ZN6DENORMC2Ev
_ZN6DENORMD1Ev
_ZN6DENORMD2Ev
_ZN6DENORMaSERKS_
_ZN6DIR128C1E6FCOORD
_ZN6DIR128C2E6FCOORD
_ZN6ELIST210add_sortedEPFiPKvS1_EP11ELIST2_LINK
_ZN6ELIST214internal_clearEPFvP11ELIST2_LINKE
_ZN6ELIST217assign_to_sublistEP15ELIST2_ITERATORS1_
_ZN6ELIST24sortEPFiPKvS1_E
_ZN6FCOORD14from_directionEh
_ZN6FCOORD20angle_from_directionEh
_ZN6FCOORD20binary_angle_plus_piEd
_ZN6FCOORD9normaliseEv
_ZN6GAPMAP9table_gapEss
_ZN6GAPMAPC1EP8TO_BLOCK
_ZN6GAPMAPC2EP8TO_BLOCK
_ZN6ICOORD11DeSerializeEbP6_iobuf
_ZN6ICOORD15set_with_shrinkEii
_ZN6MATRIX16IncreaseBandSizeEi
_ZN6MATRIX20ConsumeAndMakeBiggerEi
_ZN6MATRIXD0Ev
_ZN6MATRIXD1Ev
_ZN6REJMAP10full_printEP6_iobuf
_ZN6REJMAP10initialiseEs
_ZN6REJMAP10remove_posEs
_ZN6REJMAP12accept_countEv
_ZN6REJMAP16rej_word_doc_rejEv
_ZN6REJMAP16rej_word_row_rejEv
_ZN6REJMAP18rej_word_block_rejEv
_ZN6REJMAP18rej_word_small_xhtEv
_ZN6REJMAP18rej_word_xht_fixupEv
_ZN6REJMAP19recoverable_rejectsEv
_ZN6REJMAP19rej_word_mostly_rejEv
_ZN6REJMAP20rej_word_bad_qualityEv
_ZN6REJMAP21rej_word_bad_permuterEv
_ZN6REJMAP21rej_word_no_alphanumsEv
_ZN6REJMAP21rej_word_tess_failureEv
_ZN6REJMAP24rej_word_contains_blanksEv
_ZN6REJMAP26rej_word_not_tess_acceptedEv
_ZN6REJMAP27quality_recoverable_rejectsEv
_ZN6REJMAP5printEP6_iobuf
_ZN6REJMAPC1ERKS_
_ZN6REJMAPC2ERKS_
_ZN6REJMAPD1Ev
_ZN6REJMAPaSERKS_
_ZN6STRING11DeSerializeEbP6_iobuf
_ZN6STRING11DiscardDataEv
_ZN6STRING11add_str_intEPKci
_ZN6STRING11ensure_cstrEi
_ZN6STRING11truncate_atEi
_ZN6STRING14add_str_doubleEPKcd
_ZN6STRING5splitEcP13GenericVectorIS_E
_ZN6STRING6assignEPKci
_ZN6STRING9AllocDataEii
_ZN6STRINGC1EPKc
_ZN6STRINGC1ERKS_
_ZN6STRINGC1Ev
_ZN6STRINGC2EPKc
_ZN6STRINGC2ERKS_
_ZN6STRINGC2Ev
_ZN6STRINGD1Ev
_ZN6STRINGD2Ev
_ZN6STRINGaSEPKc
_ZN6STRINGaSERKS_
_ZN6STRINGpLEPKc
_ZN6STRINGpLERKS_
_ZN6STRINGpLEc
_ZN6SVSync10ExitThreadEv
_ZN6SVSync11StartThreadEPFPvS0_ES0_
_ZN6SVSync12StartProcessEPKcS1_
_ZN6TO_ROW11insert_blobEP8BLOBNBOX
_ZN6TO_ROW27compute_vertical_projectionEv
_ZN6TO_ROW5clearEv
_ZN6TO_ROW8add_blobEP8BLOBNBOXfff
_ZN6TO_ROWC1EP8BLOBNBOXfff
_ZN6TO_ROWC2EP8BLOBNBOXfff
_ZN7FPCUTPT12assign_cheapEPS_sshhsP5STATSfsss
_ZN7FPCUTPT5setupEPS_sP5STATSssss
_ZN7FPCUTPT6assignEPS_sshhsP5STATSfsss
_ZN7FPSEGPTC1EP7FPCUTPT
_ZN7FPSEGPTC1Es
_ZN7FPSEGPTC1EshssssP12FPSEGPT_LIST
_ZN7FPSEGPTC2EP7FPCUTPT
_ZN7FPSEGPTC2Es
_ZN7FPSEGPTC2EshssssP12FPSEGPT_LIST
_ZN7QSPLINE11extrapolateEdii
_ZN7QSPLINE4moveE6ICOORD
_ZN7QSPLINE4stepEdd
_ZN7QSPLINE7overlapEPS_d
_ZN7QSPLINEC1EPiiS0_S0_ii
_ZN7QSPLINEC1ERKS_
_ZN7QSPLINEC1EiPiPd
_ZN7QSPLINEC2EPiiS0_S0_ii
_ZN7QSPLINEC2ERKS_
_ZN7QSPLINEC2EiPiPd
_ZN7QSPLINED1Ev
_ZN7QSPLINED2Ev
_ZN7QSPLINEaSERKS_
_ZN7ROW_RESC1EP3ROW
_ZN7ROW_RESC2EP3ROW
_ZN7SVEvent4copyEv
_ZN7SVMutex4LockEv
_ZN7SVMutex6UnlockEv
_ZN7SVMutexC1Ev
_ZN7SVMutexC2Ev
_ZN7SVPaint12BuildMenuBarEv
_ZN7SVPaint12ClickHandlerEPK7SVEvent
_ZN7SVPaint12PopupHandlerEPK7SVEvent
_ZN7SVPaint14BuildPopupMenuEv
_ZN7SVPaint14MenuBarHandlerEPK7SVEvent
_ZN7SVPaint16SelectionHandlerEPK7SVEvent
_ZN7SVPaint6NotifyEPK7SVEvent
_ZN7SVPaintC1EPKc
_ZN7SVPaintC2EPKc
_ZN7SVPaintD0Ev
_ZN7SVPaintD1Ev
_ZN7UNICHAR14const_iteratorppEv
_ZN7UNICHAR3endEPKci
_ZN7UNICHAR5beginEPKci
_ZN7UNICHAR9utf8_stepEPKc
_ZN7UNICHARC1EPKci
_ZN7UNICHARC1Ei
_ZN7UNICHARC2EPKci
_ZN7UNICHARC2Ei
_ZN8BLOBNBOX10rotate_boxE6FCOORD
_ZN8BLOBNBOX12really_mergeEPS_
_ZN8BLOBNBOX13TextlineColorE14BlobRegionType16BlobTextFlowType
_ZN8BLOBNBOX14PlotNoiseBlobsEP13BLOBNBOX_LISTN10ScrollView5ColorES3_PS2_
_ZN8BLOBNBOX15CleanNeighboursEP13BLOBNBOX_LIST
_ZN8BLOBNBOX15CleanNeighboursEv
_ZN8BLOBNBOX16DeleteNoiseBlobsEP13BLOBNBOX_LIST
_ZN8BLOBNBOX18BoundsWithinLimitsEii
_ZN8BLOBNBOX18ComputeEdgeOffsetsEP3PixS1_P13BLOBNBOX_LIST
_ZN8BLOBNBOX21reflect_box_in_y_axisEv
_ZN8BLOBNBOX22DefiniteIndividualFlowEv
_ZN8BLOBNBOX24EstimateBaselinePositionEv
_ZN8BLOBNBOX4chopEP11BLOBNBOX_ITS1_6FCOORDf
_ZN8BLOBNBOX4plotEP10ScrollViewNS0_5ColorES2_
_ZN8BLOBNBOX5mergeEPS_
_ZN8BLOBNBOX6rotateE6FCOORD
_ZN8BLOBNBOX9PlotBlobsEP13BLOBNBOX_LISTN10ScrollView5ColorES3_PS2_
_ZN8PAGE_RESC1EP10BLOCK_LISTPP11WERD_CHOICE
_ZN8PAGE_RESC2EP10BLOCK_LISTPP11WERD_CHOICE
_ZN8ROW_LIST9deep_copyEPKS_PFP3ROWPKS2_E
_ZN8TESSLINE12SetupFromPosEv
_ZN8TESSLINE18ComputeBoundingBoxEv
_ZN8TESSLINE20BuildFromOutlineListEP6EDGEPT
_ZN8TESSLINE4MoveE6ICOORD
_ZN8TESSLINE4plotEP10ScrollViewNS0_5ColorES2_
_ZN8TESSLINE5ClearEv
_ZN8TESSLINE5ScaleEf
_ZN8TESSLINE6RotateE6FCOORD
_ZN8TESSLINE8CopyFromERKS_
_ZN8TESSLINE9NormalizeERK6DENORM
_ZN8TO_BLOCK16plot_noise_blobsEP10ScrollView
_ZN8TO_BLOCK17plot_graded_blobsEP10ScrollView
_ZN8TO_BLOCK18ComputeEdgeOffsetsEP3PixS1_
_ZN8TO_BLOCK18DeleteUnownedNoiseEv
_ZN8TO_BLOCK21ReSetAndReFilterBlobsEv
_ZN8TO_BLOCK5clearEv
_ZN8TO_BLOCKC1EP5BLOCK
_ZN8TO_BLOCKC2EP5BLOCK
_ZN8TO_BLOCKD1Ev
_ZN8TO_BLOCKD2Ev
_ZN8WERD_RES10BothQuotesEii
_ZN8WERD_RES10BothSpacesEii
_ZN8WERD_RES10InsertSeamEiP4SEAM
_ZN8WERD_RES10fix_quotesEv
_ZN8WERD_RES11BothHyphensEii
_ZN8WERD_RES11GetBlobsGapEi
_ZN8WERD_RES11IsAmbiguousEv
_ZN8WERD_RES11fix_hyphensEv
_ZN8WERD_RES12ClearRatingsEv
_ZN8WERD_RES12ClearResultsEv
_ZN8WERD_RES12InitPointersEv
_ZN8WERD_RES12SetupBoxWordEv
_ZN8WERD_RES13GetBlobsWidthEii
_ZN8WERD_RES14StatesAllValidEv
_ZN8WERD_RES15InitNonPointersEv
_ZN8WERD_RES15LogNewRawChoiceEP11WERD_CHOICE
_ZN8WERD_RES15SetupWordScriptERK10UNICHARSET
_ZN8WERD_RES16ClearWordChoicesEv
_ZN8WERD_RES16CopySimpleFieldsERKS_
_ZN8WERD_RES16DebugWordChoicesEbPKc
_ZN8WERD_RES16FakeClassifyWordEiPP11BLOB_CHOICE
_ZN8WERD_RES16RebuildBestStateEv
_ZN8WERD_RES16merge_tess_failsEv
_ZN8WERD_RES17FilterWordChoicesEi
_ZN8WERD_RES17ReplaceBestChoiceEP11WERD_CHOICE
_ZN8WERD_RES17SetupBlamerBundleEv
_ZN8WERD_RES18ConsumeWordResultsEPS_
_ZN8WERD_RES18HyphenBoxesOverlapERK4TBOXS2_
_ZN8WERD_RES18LogNewCookedChoiceEibP11WERD_CHOICE
_ZN8WERD_RES18MergeAdjacentBlobsEi
_ZN8WERD_RES18SetScriptPositionsEv
_ZN8WERD_RES19FakeWordFromRatingsEv
_ZN8WERD_RES19SetupForRecognitionERK10UNICHARSETPN9tesseract9TesseractEP3PixiPK4TBOXbbbP3ROWPK5BLOCK
_ZN8WERD_RES20ConditionalBlobMergeEP19TessResultCallback2IiiiEPS0_IbRK4TBOXS5_E
_ZN8WERD_RES21CloneChoppedToRebuildEv
_ZN8WERD_RES21SetAllScriptPositionsEN9tesseract9ScriptPosE
_ZN8WERD_RES22SetupBlobWidthsAndGapsEv
_ZN8WERD_RES23BestChoiceToCorrectTextEv
_ZN8WERD_RES23InitForRetryRecognitionERKS_
_ZN8WERD_RES25ComputeAdaptionThresholdsEffffPf
_ZN8WERD_RES26SetupBasicsFromChoppedWordERK10UNICHARSET
_ZN8WERD_RES5ClearEv
_ZN8WERD_RES9SetupFakeERK10UNICHARSET
_ZN8WERD_RES9deep_copyEPKS_
_ZN8WERD_RESD1Ev
_ZN8WERD_RESD2Ev
_ZN8WERD_RESaSERKS_
_ZN9BLOCK_RESC1EP5BLOCK
_ZN9BLOCK_RESC2EP5BLOCK
_ZN9C_OUTLINE10chain_stepEi
_ZN9C_OUTLINE11FakeOutlineERK4TBOXP14C_OUTLINE_LIST
_ZN9C_OUTLINE11step_coordsE DATA
_ZN9C_OUTLINE17count_transitionsEi
_ZN9C_OUTLINE18ComputeEdgeOffsetsEiP3Pix
_ZN9C_OUTLINE20ComputeBinaryOffsetsEv
_ZN9C_OUTLINE20RemoveSmallRecursiveEiP12C_OUTLINE_IT
_ZN9C_OUTLINE4moveE6ICOORD
_ZN9C_OUTLINE7reverseEv
_ZN9C_OUTLINE9deep_copyEPKS_
_ZN9C_OUTLINEC1E6ICOORDP6DIR128s
_ZN9C_OUTLINEC1EP9CRACKEDGE6ICOORDS2_s
_ZN9C_OUTLINEC1EPS_6FCOORD
_ZN9C_OUTLINEC2E6ICOORDP6DIR128s
_ZN9C_OUTLINEC2EP9CRACKEDGE6ICOORDS2_s
_ZN9C_OUTLINEC2EPS_6FCOORD
_ZN9C_OUTLINEaSERKS_
_ZN9ICOORDELT9deep_copyEPKS_
_ZN9OSResults10accumulateERKS_
_ZN9OSResults18update_best_scriptEi
_ZN9OSResults20set_best_orientationEi
_ZN9OSResults23update_best_orientationEv
_ZN9PARA_LIST9deep_copyEPKS_PFP4PARAPKS2_E
_ZN9SVNetwork4SendEPKc
_ZN9SVNetwork5CloseEv
_ZN9SVNetwork5FlushEv
_ZN9SVNetwork7ReceiveEv
_ZN9SVNetworkC1EPKci
_ZN9SVNetworkC2EPKci
_ZN9SVNetworkD1Ev
_ZN9SVNetworkD2Ev
_ZN9WERD_LIST9deep_copyEPKS_PFP4WERDPKS2_E
_ZN9tesseract10BeamSearch14CreateChildrenEPNS_12SearchColumnEPNS_9LangModelEPNS_10SearchNodeEPNS_11LangModEdgeEPNS_11CharAltListEi
_ZN9tesseract10BeamSearch17CreateWordAltListEPNS_12SearchObjectE
_ZN9tesseract10BeamSearch6SearchEPNS_12SearchObjectEPNS_9LangModelE
_ZN9tesseract10BeamSearch7CleanupEv
_ZN9tesseract10BeamSearchC1EPNS_15CubeRecoContextEb
_ZN9tesseract10BeamSearchC2EPNS_15CubeRecoContextEb
_ZN9tesseract10BeamSearchD1Ev
_ZN9tesseract10BeamSearchD2Ev
_ZN9tesseract10CachedFile3eofEv
_ZN9tesseract10CachedFile4OpenEv
_ZN9tesseract10CachedFile4ReadEPvi
_ZN9tesseract10CachedFile4SizeEv
_ZN9tesseract10CachedFile4TellEv
_ZN9tesseract10CachedFileC1ESs
_ZN9tesseract10CachedFileC2ESs
_ZN9tesseract10CachedFileD1Ev
_ZN9tesseract10CachedFileD2Ev
_ZN9tesseract10ColSegment8set_typeEv
_ZN9tesseract10ColSegment9InsertBoxERK4TBOX
_ZN9tesseract10ColSegmentC1Ev
_ZN9tesseract10ColSegmentC2Ev
_ZN9tesseract10ColSegmentD1Ev
_ZN9tesseract10ColSegmentD2Ev
_ZN9tesseract10CubeObject13RecognizeCharEv
_ZN9tesseract10CubeObject13RecognizeWordEPNS_9LangModelE
_ZN9tesseract10CubeObject15RecognizePhraseEPNS_9LangModelE
_ZN9tesseract10CubeObject4InitEv
_ZN9tesseract10CubeObject7CleanupEv
_ZN9tesseract10CubeObject8WordCostEPKc
_ZN9tesseract10CubeObject9NormalizeEv
_ZN9tesseract10CubeObject9RecognizeEPNS_9LangModelEb
_ZN9tesseract10CubeObjectC1EPNS_15CubeRecoContextEP3Pixiiii
_ZN9tesseract10CubeObjectC1EPNS_15CubeRecoContextEPNS_8CharSampE
_ZN9tesseract10CubeObjectC2EPNS_15CubeRecoContextEP3Pixiiii
_ZN9tesseract10CubeObjectC2EPNS_15CubeRecoContextEPNS_8CharSampE
_ZN9tesseract10CubeObjectD1Ev
_ZN9tesseract10CubeObjectD2Ev
_ZN9tesseract10DawgLoader4LoadEv
_ZN9tesseract10DetLineFit14ConstrainedFitERK6FCOORDddbP6ICOORD
_ZN9tesseract10DetLineFit14ConstrainedFitEdPf
_ZN9tesseract10DetLineFit15EvaluateLineFitEv
_ZN9tesseract10DetLineFit16ComputeDistancesERK6ICOORDS3_
_ZN9tesseract10DetLineFit25ComputeUpperQuartileErrorEv
_ZN9tesseract10DetLineFit27ComputeConstrainedDistancesERK6FCOORDdd
_ZN9tesseract10DetLineFit3AddERK6ICOORD
_ZN9tesseract10DetLineFit3AddERK6ICOORDi
_ZN9tesseract10DetLineFit3FitEPfS1_
_ZN9tesseract10DetLineFit3FitEiiP6ICOORDS2_
_ZN9tesseract10DetLineFit5ClearEv
_ZN9tesseract10DetLineFitC1Ev
_ZN9tesseract10DetLineFitC2Ev
_ZN9tesseract10DetLineFitD1Ev
_ZN9tesseract10DetLineFitD2Ev
_ZN9tesseract10FeatureBmp10FeatureCntEv
_ZN9tesseract10FeatureBmp15ComputeFeaturesEPNS_8CharSampEPf
_ZN9tesseract10FeatureBmp20ComputeFeatureBitmapEPNS_8CharSampE
_ZN9tesseract10FeatureBmpC1EPNS_12TuningParamsE
_ZN9tesseract10FeatureBmpC2EPNS_12TuningParamsE
_ZN9tesseract10FeatureBmpD0Ev
_ZN9tesseract10FeatureBmpD1Ev
_ZN9tesseract10FeatureBmpD2Ev
_ZN9tesseract10GridSearchI8BLOBNBOX14BLOBNBOX_CLIST13BLOBNBOX_C_ITE10CommonNextEv
_ZN9tesseract10GridSearchI8BLOBNBOX14BLOBNBOX_CLIST13BLOBNBOX_C_ITE11CommonStartEii
_ZN9tesseract10GridSearchI8BLOBNBOX14BLOBNBOX_CLIST13BLOBNBOX_C_ITE11SetIteratorEv
_ZN9tesseract10GridSearchI8BLOBNBOX14BLOBNBOX_CLIST13BLOBNBOX_C_ITE13NextRadSearchEv
_ZN9tesseract10GridSearchI8BLOBNBOX14BLOBNBOX_CLIST13BLOBNBOX_C_ITE14NextFullSearchEv
_ZN9tesseract10GridSearchI8BLOBNBOX14BLOBNBOX_CLIST13BLOBNBOX_C_ITE14NextRectSearchEv
_ZN9tesseract10GridSearchI8BLOBNBOX14BLOBNBOX_CLIST13BLOBNBOX_C_ITE14NextSideSearchEb
_ZN9tesseract10GridSearchI8BLOBNBOX14BLOBNBOX_CLIST13BLOBNBOX_C_ITE15StartRectSearchERK4TBOX
_ZN9tesseract10GridSearchI8BLOBNBOX14BLOBNBOX_CLIST13BLOBNBOX_C_ITE15StartSideSearchEiii
_ZN9tesseract10GridSearchINS_10ColSegmentENS_16ColSegment_CLISTENS_15ColSegment_C_ITEE10CommonNextEv
_ZN9tesseract10GridSearchINS_10ColSegmentENS_16ColSegment_CLISTENS_15ColSegment_C_ITEE10RemoveBBoxEv
_ZN9tesseract10GridSearchINS_10ColSegmentENS_16ColSegment_CLISTENS_15ColSegment_C_ITEE11CommonStartEii
_ZN9tesseract10GridSearchINS_10ColSegmentENS_16ColSegment_CLISTENS_15ColSegment_C_ITEE11SetIteratorEv
_ZN9tesseract10GridSearchINS_10ColSegmentENS_16ColSegment_CLISTENS_15ColSegment_C_ITEE14NextFullSearchEv
_ZN9tesseract10GridSearchINS_10ColSegmentENS_16ColSegment_CLISTENS_15ColSegment_C_ITEE14NextRectSearchEv
_ZN9tesseract10GridSearchINS_10ColSegmentENS_16ColSegment_CLISTENS_15ColSegment_C_ITEE15StartRectSearchERK4TBOX
_ZN9tesseract10GridSearchINS_10ColSegmentENS_16ColSegment_CLISTENS_15ColSegment_C_ITEE18RepositionIteratorEv
_ZN9tesseract10GridSearchINS_12ColPartitionENS_18ColPartition_CLISTENS_17ColPartition_C_ITEE10CommonNextEv
_ZN9tesseract10GridSearchINS_12ColPartitionENS_18ColPartition_CLISTENS_17ColPartition_C_ITEE10RemoveBBoxEv
_ZN9tesseract10GridSearchINS_12ColPartitionENS_18ColPartition_CLISTENS_17ColPartition_C_ITEE11CommonStartEii
_ZN9tesseract10GridSearchINS_12ColPartitionENS_18ColPartition_CLISTENS_17ColPartition_C_ITEE11SetIteratorEv
_ZN9tesseract10GridSearchINS_12ColPartitionENS_18ColPartition_CLISTENS_17ColPartition_C_ITEE13NextRadSearchEv
_ZN9tesseract10GridSearchINS_12ColPartitionENS_18ColPartition_CLISTENS_17ColPartition_C_ITEE14NextFullSearchEv
_ZN9tesseract10GridSearchINS_12ColPartitionENS_18ColPartition_CLISTENS_17ColPartition_C_ITEE14NextRectSearchEv
_ZN9tesseract10GridSearchINS_12ColPartitionENS_18ColPartition_CLISTENS_17ColPartition_C_ITEE14NextSideSearchEb
_ZN9tesseract10GridSearchINS_12ColPartitionENS_18ColPartition_CLISTENS_17ColPartition_C_ITEE15StartRectSearchERK4TBOX
_ZN9tesseract10GridSearchINS_12ColPartitionENS_18ColPartition_CLISTENS_17ColPartition_C_ITEE15StartSideSearchEiii
_ZN9tesseract10GridSearchINS_12ColPartitionENS_18ColPartition_CLISTENS_17ColPartition_C_ITEE18NextVerticalSearchEb
_ZN9tesseract10GridSearchINS_12ColPartitionENS_18ColPartition_CLISTENS_17ColPartition_C_ITEE18RepositionIteratorEv
_ZN9tesseract10GridSearchINS_12ColPartitionENS_18ColPartition_CLISTENS_17ColPartition_C_ITEE19StartVerticalSearchEiii
_ZN9tesseract10LineFinder12GetLineBoxesEbP3PixS2_P11C_BLOB_LISTP13BLOBNBOX_LIST
_ZN9tesseract10LineFinder12GetLineMasksEiP3PixPS2_S3_S3_S3_S3_S3_P4Pixa
_ZN9tesseract10LineFinder15FindLineVectorsERK6ICOORDS3_P13BLOBNBOX_LISTPiS6_PNS_14TabVector_LISTE
_ZN9tesseract10LineFinder18ConvertBoxaToBlobsEiiPP4BoxaP11C_BLOB_LIST
_ZN9tesseract10LineFinder18FindAndRemoveLinesEibP3PixPiS3_PS2_PNS_14TabVector_LISTES6_
_ZN9tesseract10LineFinder19FindAndRemoveHLinesEiP3PixiiPS2_S2_S2_PNS_14TabVector_LISTE
_ZN9tesseract10LineFinder19FindAndRemoveVLinesEiP3PixPiS3_PS2_S2_S2_PNS_14TabVector_LISTE
_ZN9tesseract10ParamUtils11PrintParamsEP6_iobufPKNS_13ParamsVectorsE
_ZN9tesseract10ParamUtils11RemoveParamINS_11DoubleParamEEEvPT_P13GenericVectorIS4_E
_ZN9tesseract10ParamUtils11RemoveParamINS_8IntParamEEEvPT_P13GenericVectorIS4_E
_ZN9tesseract10ParamUtils11RemoveParamINS_9BoolParamEEEvPT_P13GenericVectorIS4_E
_ZN9tesseract10ParamUtils14ReadParamsFileEPKcNS_18SetParamConstraintEPNS_13ParamsVectorsE
_ZN9tesseract10ParamUtils15ResetToDefaultsEPNS_13ParamsVectorsE
_ZN9tesseract10ParamUtils16GetParamAsStringEPKcPKNS_13ParamsVectorsEP6STRING
_ZN9tesseract10ParamUtils16ReadParamsFromFpEP6_iobufxNS_18SetParamConstraintEPNS_13ParamsVectorsE
_ZN9tesseract10ParamUtils8SetParamEPKcS2_NS_18SetParamConstraintEPNS_13ParamsVectorsE
_ZN9tesseract10SearchNode10PathStringEv
_ZN9tesseract10SearchNode11LangModCostEPNS_11LangModEdgeEPS0_
_ZN9tesseract10SearchNode12UpdateParentEPS0_iPNS_11LangModEdgeE
_ZN9tesseract10SearchNode13IdenticalPathEPS0_S1_
_ZN9tesseract10SearchNode18SearchNodeComparerEPKvS2_
_ZN9tesseract10SearchNodeC1EPNS_15CubeRecoContextEPS0_iPNS_11LangModEdgeEi
_ZN9tesseract10SearchNodeC2EPNS_15CubeRecoContextEPS0_iPNS_11LangModEdgeEi
_ZN9tesseract10SearchNodeD1Ev
_ZN9tesseract10SearchNodeD2Ev
_ZN9tesseract10ShapeTable10AddToShapeEiii
_ZN9tesseract10ShapeTable10SwapShapesEii
_ZN9tesseract10ShapeTable11DeSerializeEbP6_iobuf
_ZN9tesseract10ShapeTable11DeleteShapeEi
_ZN9tesseract10ShapeTable11MergeShapesEii
_ZN9tesseract10ShapeTable13ReMapClassIdsERK13GenericVectorIiE
_ZN9tesseract10ShapeTable14BuildFromShapeERKNS_5ShapeERKS0_
_ZN9tesseract10ShapeTable15AddShapeToShapeEiRKNS_5ShapeE
_ZN9tesseract10ShapeTable15ForceFontMergesEii
_ZN9tesseract10ShapeTable18AppendMasterShapesERKS0_P13GenericVectorIiE
_ZN9tesseract10ShapeTable8AddShapeERKNS_5ShapeE
_ZN9tesseract10ShapeTable8AddShapeEii
_ZN9tesseract10ShapeTableC1ERK10UNICHARSET
_ZN9tesseract10ShapeTableC1Ev
_ZN9tesseract10ShapeTableC2ERK10UNICHARSET
_ZN9tesseract10ShapeTableC2Ev
_ZN9tesseract10UnicodeForEPK10UNICHARSETPK11WERD_CHOICEi
_ZN9tesseract10kCrownLeftE DATA
_ZN9tesseract10kInputFileE DATA
_ZN9tesseract10write_infoEP6_iobufRKNS_8FontInfoE
_ZN9tesseract11AlignedBlob11DisplayTabsEPKcP10ScrollView
_ZN9tesseract11AlignedBlob15FindAlignedBlobERKNS_17AlignedBlobParamsEbP8BLOBNBOXiPi
_ZN9tesseract11AlignedBlob16WithinTestRegionEiii
_ZN9tesseract11AlignedBlob16debug_pix_index_E DATA
_ZN9tesseract11AlignedBlob17IncrementDebugPixEv
_ZN9tesseract11AlignedBlob18textord_debug_pix_E DATA
_ZN9tesseract11AlignedBlob21FindVerticalAlignmentENS_17AlignedBlobParamsEP8BLOBNBOXPiS4_
_ZN9tesseract11AlignedBlob9AlignTabsERKNS_17AlignedBlobParamsEbP8BLOBNBOXP14BLOBNBOX_CLISTPi
_ZN9tesseract11AlignedBlobC1EiRK6ICOORDS3_
_ZN9tesseract11AlignedBlobC2EiRK6ICOORDS3_
_ZN9tesseract11AlignedBlobD0Ev
_ZN9tesseract11AlignedBlobD1Ev
_ZN9tesseract11AlignedBlobD2Ev
_ZN9tesseract11BaselineRow11FitBaselineEb
_ZN9tesseract11BaselineRow18ComputeBoundingBoxEv
_ZN9tesseract11BaselineRow20AdjustBaselineToGridEiRK6FCOORDdd
_ZN9tesseract11BaselineRow22FitConstrainedIfBetterEiRK6FCOORDdd
_ZN9tesseract11BaselineRow22SetupBlobDisplacementsERK6FCOORD
_ZN9tesseract11BaselineRow24AdjustBaselineToParallelEiRK6FCOORD
_ZN9tesseract11BaselineRowC1EdP6TO_ROW
_ZN9tesseract11BaselineRowC2EdP6TO_ROW
_ZN9tesseract11CCUtilMutex4LockEv
_ZN9tesseract11CCUtilMutex6UnlockEv
_ZN9tesseract11CCUtilMutexC1Ev
_ZN9tesseract11CCUtilMutexC2Ev
_ZN9tesseract11CharAltList4SortEv
_ZN9tesseract11CharAltList6InsertEiiPv
_ZN9tesseract11CharAltListC1EPKNS_7CharSetEi
_ZN9tesseract11CharAltListC2EPKNS_7CharSetEi
_ZN9tesseract11CharAltListD0Ev
_ZN9tesseract11CharAltListD1Ev
_ZN9tesseract11CharAltListD2Ev
_ZN9tesseract11CharBigrams6CreateERKSsS2_
_ZN9tesseract11CharBigramsC1Ev
_ZN9tesseract11CharBigramsC2Ev
_ZN9tesseract11CharBigramsD1Ev
_ZN9tesseract11CharBigramsD2Ev
_ZN9tesseract11CharSampSet11EnumSamplesESsPNS_12CharSampEnumE
_ZN9tesseract11CharSampSet15LoadCharSamplesEP6_iobuf
_ZN9tesseract11CharSampSet16FromCharDumpFileESs
_ZN9tesseract11CharSampSet18CreateCharDumpFileESs
_ZN9tesseract11CharSampSet3AddEPNS_8CharSampE
_ZN9tesseract11CharSampSet7CleanupEv
_ZN9tesseract11CharSampSetC1Ev
_ZN9tesseract11CharSampSetC2Ev
_ZN9tesseract11CharSampSetD1Ev
_ZN9tesseract11CharSampSetD2Ev
_ZN9tesseract11CubeAPITestEP4BoxaP4PixaS1_S3_RK6FCOORDP3PixP8PAGE_RES
_ZN9tesseract11IsDigitLikeEi
_ZN9tesseract11ParamsModel10LoadFromFpEPKcP6_iobufx
_ZN9tesseract11ParamsModel12LoadFromFileEPKcS2_
_ZN9tesseract11ParamsModel4CopyERKS0_
_ZN9tesseract11ParamsModel5PrintEv
_ZN9tesseract11ParamsModel9ParseLineEPcPS1_Pf
_ZN9tesseract11ShapeRating22FirstResultWithUnicharERK13GenericVectorIS0_ERKNS_10ShapeTableEi
_ZN9tesseract11StringParamC1EPKcS2_S2_bPNS_13ParamsVectorsE
_ZN9tesseract11StringParamD1Ev
_ZN9tesseract11StrokeWidth10EasyMergesEPNS_16ColPartitionGridE
_ZN9tesseract11StrokeWidth11HandleClickEii
_ZN9tesseract11StrokeWidth11InsertBlobsEP8TO_BLOCK
_ZN9tesseract11StrokeWidth12FixBrokenCJKEP8TO_BLOCK
_ZN9tesseract11StrokeWidth13DiacriticBlobEPNS_8BlobGridEP8BLOBNBOX
_ZN9tesseract11StrokeWidth13SetNeighboursEbbP8BLOBNBOX
_ZN9tesseract11StrokeWidth14TestDiacriticsEPNS_16ColPartitionGridEP8TO_BLOCK
_ZN9tesseract11StrokeWidth15MergeDiacriticsEP8TO_BLOCKPNS_16ColPartitionGridE
_ZN9tesseract11StrokeWidth16ConfirmEasyMergeEPKNS_12ColPartitionES3_
_ZN9tesseract11StrokeWidth16DisplayGoodBlobsEPKcii
_ZN9tesseract11StrokeWidth17CompletePartitionEPNS_12ColPartitionEPNS_16ColPartitionGridE
_ZN9tesseract11StrokeWidth17DisplayDiacriticsEPKciiP8TO_BLOCK
_ZN9tesseract11StrokeWidth17FindGoodNeighbourE16BlobNeighbourDirbP8BLOBNBOX
_ZN9tesseract11StrokeWidth17RemoveLineResidueEPNS_17ColPartition_LISTE
_ZN9tesseract11StrokeWidth17SetNeighbourFlowsEP8BLOBNBOX
_ZN9tesseract11StrokeWidth18AccumulateOverlapsEPK8BLOBNBOXbiiP4TBOXP14BLOBNBOX_CLIST
_ZN9tesseract11StrokeWidth18CorrectForRotationERK6FCOORDPNS_16ColPartitionGridE
_ZN9tesseract11StrokeWidth19DiacriticXGapFilledEPNS_8BlobGridERK4TBOXS5_
_ZN9tesseract11StrokeWidth20FindLeaderPartitionsEP8TO_BLOCKPNS_16ColPartitionGridE
_ZN9tesseract11StrokeWidth20MarkLeaderNeighboursEPKNS_12ColPartitionENS_11LeftOrRightE
_ZN9tesseract11StrokeWidth20OrientationSearchBoxEPNS_12ColPartitionEP4TBOX
_ZN9tesseract11StrokeWidth20SmoothNeighbourTypesEP8BLOBNBOXb
_ZN9tesseract11StrokeWidth21FindInitialPartitionsERK6FCOORDP8TO_BLOCKPNS_16ColPartitionGridEPNS_17ColPartition_LISTE
_ZN9tesseract11StrokeWidth22FindVerticalTextChainsEPNS_16ColPartitionGridE
_ZN9tesseract11StrokeWidth22RemoveLargeUnusedBlobsEP8TO_BLOCKPNS_16ColPartitionGridEPNS_17ColPartition_LISTE
_ZN9tesseract11StrokeWidth23FindLeadersAndMarkNoiseEP8TO_BLOCKPNS_17ColPartition_LISTE
_ZN9tesseract11StrokeWidth23PartitionRemainingBlobsEPNS_16ColPartitionGridE
_ZN9tesseract11StrokeWidth24FindHorizontalTextChainsEPNS_16ColPartitionGridE
_ZN9tesseract11StrokeWidth24GradeBlobsIntoPartitionsERK6FCOORDP8TO_BLOCKP3PixPK6DENORMbPNS_18TextlineProjectionEPNS_16ColPartitionGridEPNS_17ColPartition_LISTE
_ZN9tesseract11StrokeWidth25FindTextlineFlowDirectionEb
_ZN9tesseract11StrokeWidth25SimplifyObviousNeighboursEP8BLOBNBOX
_ZN9tesseract11StrokeWidth25TestVerticalTextDirectionEP8TO_BLOCKP14BLOBNBOX_CLIST
_ZN9tesseract11StrokeWidth26MakePartitionsFromCellListEbPNS_16ColPartitionGridEP14BLOBNBOX_CLIST
_ZN9tesseract11StrokeWidth26SetNeighboursOnMediumBlobsEP8TO_BLOCK
_ZN9tesseract11StrokeWidth36FindTextlineDirectionAndFixBrokenCJKEbP8TO_BLOCK
_ZN9tesseract11StrokeWidthC1EiRK6ICOORDS3_
_ZN9tesseract11StrokeWidthC2EiRK6ICOORDS3_
_ZN9tesseract11StrokeWidthD0Ev
_ZN9tesseract11StrokeWidthD1Ev
_ZN9tesseract11StrokeWidthD2Ev
_ZN9tesseract11TableFinder10MakeWindowEiiPKc
_ZN9tesseract11TableFinder10WriteToPixERK6FCOORD
_ZN9tesseract11TableFinder12GrowTableBoxERK4TBOXPS1_
_ZN9tesseract11TableFinder12LocateTablesEPNS_16ColPartitionGridEPPNS_15ColPartitionSetEP19TessResultCallback1IbiERK6FCOORD
_ZN9tesseract11TableFinder13FindNeighborsEv
_ZN9tesseract11TableFinder14SetColumnsTypeEPNS_15ColSegment_LISTE
_ZN9tesseract11TableFinder15GetColumnBlocksEPPNS_15ColPartitionSetEPNS_15ColSegment_LISTE
_ZN9tesseract11TableFinder15GetTableColumnsEPNS_15ColSegment_LISTE
_ZN9tesseract11TableFinder15GetTableRegionsEPNS_15ColSegment_LISTES2_
_ZN9tesseract11TableFinder15MakeTableBlocksEPNS_16ColPartitionGridEPPNS_15ColPartitionSetEP19TessResultCallback1IbiE
_ZN9tesseract11TableFinder15RecognizeTablesEv
_ZN9tesseract11TableFinder16BelongToOneTableERK4TBOXS3_
_ZN9tesseract11TableFinder16ConsecutiveBoxesERK4TBOXS3_
_ZN9tesseract11TableFinder16GapInXProjectionEPii
_ZN9tesseract11TableFinder17FilterFalseAlarmsEv
_ZN9tesseract11TableFinder17GroupColumnBlocksEPNS_15ColSegment_LISTES2_
_ZN9tesseract11TableFinder17HasLeaderAdjacentERKNS_12ColPartitionE
_ZN9tesseract11TableFinder17SetGlobalSpacingsEPNS_16ColPartitionGridE
_ZN9tesseract11TableFinder18DisplayColSegmentsEP10ScrollViewPNS_15ColSegment_LISTENS1_5ColorE
_ZN9tesseract11TableFinder18SetVerticalSpacingEPNS_12ColPartitionE
_ZN9tesseract11TableFinder19HLineBelongsToTableERKNS_12ColPartitionERK4TBOX
_ZN9tesseract11TableFinder19InsertTextPartitionEPNS_12ColPartitionE
_ZN9tesseract11TableFinder19MarkTablePartitionsEv
_ZN9tesseract11TableFinder20DisplayColPartitionsEP10ScrollViewPNS_16ColPartitionGridENS1_5ColorE
_ZN9tesseract11TableFinder20DisplayColPartitionsEP10ScrollViewPNS_16ColPartitionGridENS1_5ColorES5_
_ZN9tesseract11TableFinder20InitializePartitionsEPPNS_15ColPartitionSetE
_ZN9tesseract11TableFinder20InsertImagePartitionEPNS_12ColPartitionE
_ZN9tesseract11TableFinder20SetPartitionSpacingsEPNS_16ColPartitionGridEPPNS_15ColPartitionSetE
_ZN9tesseract11TableFinder21AdjustTableBoundariesEv
_ZN9tesseract11TableFinder21DisplayColSegmentGridEP10ScrollViewPNS_6BBGridINS_10ColSegmentENS_16ColSegment_CLISTENS_15ColSegment_C_ITEEENS1_5ColorE
_ZN9tesseract11TableFinder21FilterHeaderAndFooterEv
_ZN9tesseract11TableFinder21GridMergeColumnBlocksEv
_ZN9tesseract11TableFinder21GridMergeTableRegionsEv
_ZN9tesseract11TableFinder21InsertCleanPartitionsEPNS_16ColPartitionGridEP8TO_BLOCK
_ZN9tesseract11TableFinder21InsertLeaderPartitionEPNS_12ColPartitionE
_ZN9tesseract11TableFinder21InsertRulingPartitionEPNS_12ColPartitionE
_ZN9tesseract11TableFinder21MoveColSegmentsToGridEPNS_15ColSegment_LISTEPNS_6BBGridINS_10ColSegmentENS_16ColSegment_CLISTENS_15ColSegment_C_ITEEE
_ZN9tesseract11TableFinder22FilterParagraphEndingsEv
_ZN9tesseract11TableFinder23GrowTableToIncludeLinesERK4TBOXS3_PS1_
_ZN9tesseract11TableFinder24DeleteSingleColumnTablesEv
_ZN9tesseract11TableFinder24SmoothTablePartitionRunsEv
_ZN9tesseract11TableFinder25set_global_median_leddingEi
_ZN9tesseract11TableFinder25set_global_median_xheightEi
_ZN9tesseract11TableFinder26GrowTableToIncludePartialsERK4TBOXS3_PS1_
_ZN9tesseract11TableFinder26set_left_to_right_languageEb
_ZN9tesseract11TableFinder27IncludeLeftOutColumnHeadersEP4TBOX
_ZN9tesseract11TableFinder28set_global_median_blob_widthEi
_ZN9tesseract11TableFinder29InsertFragmentedTextPartitionEPNS_12ColPartitionE
_ZN9tesseract11TableFinder30DisplayColPartitionConnectionsEP10ScrollViewPNS_16ColPartitionGridENS1_5ColorE
_ZN9tesseract11TableFinder35MarkPartitionsUsingLocalInformationEv
_ZN9tesseract11TableFinder37SplitAndInsertFragmentedTextPartitionEPNS_12ColPartitionE
_ZN9tesseract11TableFinder4InitEiRK6ICOORDS3_
_ZN9tesseract11TableFinderC1Ev
_ZN9tesseract11TableFinderC2Ev
_ZN9tesseract11TableFinderD1Ev
_ZN9tesseract11TableFinderD2Ev
_ZN9tesseract11TessBaseAPI10GetBoxTextEi
_ZN9tesseract11TessBaseAPI10GetRegionsEPP4Pixa
_ZN9tesseract11TessBaseAPI10GetUnicharEi
_ZN9tesseract11TessBaseAPI10TextLengthEPi
_ZN9tesseract11TessBaseAPI11GetDatapathEv
_ZN9tesseract11TessBaseAPI11GetHOCRTextEi
_ZN9tesseract11TessBaseAPI11GetIteratorEv
_ZN9tesseract11TessBaseAPI11GetUNLVTextEv
_ZN9tesseract11TessBaseAPI11GetUTF8TextEv
_ZN9tesseract11TessBaseAPI11InitLangModEPKcS2_
_ZN9tesseract11TessBaseAPI11IsValidWordEPKc
_ZN9tesseract11TessBaseAPI11NewRendererEv
_ZN9tesseract11TessBaseAPI11ProcessPageEP3PixiPKcS4_iP6STRING
_ZN9tesseract11TessBaseAPI11ProcessPageEP3PixiPKcS4_iPNS_18TessResultRendererE
_ZN9tesseract11TessBaseAPI11SetDictFuncEMNS_4DictEKFiPvibE
_ZN9tesseract11TessBaseAPI11SetVariableEPKcS2_
_ZN9tesseract11TessBaseAPI12CatchSignalsEv
_ZN9tesseract11TessBaseAPI12ClearResultsEv
_ZN9tesseract11TessBaseAPI12GetInputNameEv
_ZN9tesseract11TessBaseAPI12GetTextlinesEbiPP4PixaPPiS5_
_ZN9tesseract11TessBaseAPI12MeanTextConfEv
_ZN9tesseract11TessBaseAPI12ProcessPagesEPKcS2_iP6STRING
_ZN9tesseract11TessBaseAPI12ProcessPagesEPKcS2_iPNS_18TessResultRendererE
_ZN9tesseract11TessBaseAPI12SetInputNameEPKc
_ZN9tesseract11TessBaseAPI12SetRectangleEiiii
_ZN9tesseract11TessBaseAPI13AnalyseLayoutEv
_ZN9tesseract11TessBaseAPI13FindRowForBoxEP10BLOCK_LISTiiii
_ZN9tesseract11TessBaseAPI13GetInputImageEv
_ZN9tesseract11TessBaseAPI13SetInputImageEP3Pix
_ZN9tesseract11TessBaseAPI13SetOutputNameEPKc
_ZN9tesseract11TessBaseAPI13TesseractRectEPKhiiiiii
_ZN9tesseract11TessBaseAPI14AdaptToWordStrENS_11PageSegModeEPKc
_ZN9tesseract11TessBaseAPI14GetLTRIteratorEv
_ZN9tesseract11TessBaseAPI14MakeTessOCRRowEffff
_ZN9tesseract11TessBaseAPI14NormalizeTBLOBEP5TBLOBP3ROWb
_ZN9tesseract11TessBaseAPI14ReadConfigFileEPKc
_ZN9tesseract11TessBaseAPI14SetPageSegModeENS_11PageSegModeE
_ZN9tesseract11TessBaseAPI15DeleteBlockListEP10BLOCK_LIST
_ZN9tesseract11TessBaseAPI15getOpenCLDeviceEPPv
_ZN9tesseract11TessBaseAPI16AdaptToCharacterEPKciffff
_ZN9tesseract11TessBaseAPI16DetectParagraphsEb
_ZN9tesseract11TessBaseAPI16GetTextDirectionEPiPf
_ZN9tesseract11TessBaseAPI16InternalSetImageEv
_ZN9tesseract11TessBaseAPI16RecognitionPass1EP10BLOCK_LIST
_ZN9tesseract11TessBaseAPI16RecognitionPass2EP10BLOCK_LISTP8PAGE_RES
_ZN9tesseract11TessBaseAPI16SetDebugVariableEPKcS2_
_ZN9tesseract11TessBaseAPI18AllWordConfidencesEv
_ZN9tesseract11TessBaseAPI18GetComponentImagesENS_17PageIteratorLevelEbbiPP4PixaPPiS6_
_ZN9tesseract11TessBaseAPI18GetFeaturesForBlobEP5TBLOBP18INT_FEATURE_STRUCTPiS5_
_ZN9tesseract11TessBaseAPI18GetMutableIteratorEv
_ZN9tesseract11TessBaseAPI18InitForAnalysePageEv
_ZN9tesseract11TessBaseAPI18SetFillLatticeFuncEMNS_7WordrecEFvRK6MATRIXRK16WERD_CHOICE_LISTRK10UNICHARSETP12BlamerBundleE
_ZN9tesseract11TessBaseAPI19GetThresholdedImageEv
_ZN9tesseract11TessBaseAPI19GetVariableAsStringEPKcP6STRING
_ZN9tesseract11TessBaseAPI19ReadDebugConfigFileEPKc
_ZN9tesseract11TessBaseAPI19SetSourceResolutionEi
_ZN9tesseract11TessBaseAPI20ClearPersistentCacheEv
_ZN9tesseract11TessBaseAPI20GetSourceYResolutionEv
_ZN9tesseract11TessBaseAPI20RecognizeForChopTestEP10ETEXT_DESC
_ZN9tesseract11TessBaseAPI21RunAdaptiveClassifierEP5TBLOBiPiPfS3_
_ZN9tesseract11TessBaseAPI22GetConnectedComponentsEPP4Pixa
_ZN9tesseract11TessBaseAPI22TesseractExtractResultEPPcPPiPPfS4_S4_S4_S4_P8PAGE_RES
_ZN9tesseract11TessBaseAPI23ClearAdaptiveClassifierEv
_ZN9tesseract11TessBaseAPI24FindLinesCreateBlockListEv
_ZN9tesseract11TessBaseAPI24GetBlockTextOrientationsEPPiPPb
_ZN9tesseract11TessBaseAPI26set_min_orientation_marginEd
_ZN9tesseract11TessBaseAPI27SetProbabilityInContextFuncEMNS_4DictEFdPKcS3_iS3_iE
_ZN9tesseract11TessBaseAPI3EndEv
_ZN9tesseract11TessBaseAPI4InitEPKcS2_NS_13OcrEngineModeEPPciPK13GenericVectorI6STRINGESA_b
_ZN9tesseract11TessBaseAPI5ClearEv
_ZN9tesseract11TessBaseAPI7DumpPGMEPKc
_ZN9tesseract11TessBaseAPI7VersionEv
_ZN9tesseract11TessBaseAPI8DetectOSEP9OSResults
_ZN9tesseract11TessBaseAPI8GetWordsEPP4Pixa
_ZN9tesseract11TessBaseAPI8SetImageEPK3Pix
_ZN9tesseract11TessBaseAPI8SetImageEPKhiiii
_ZN9tesseract11TessBaseAPI9FindLinesEv
_ZN9tesseract11TessBaseAPI9GetStripsEPP4PixaPPi
_ZN9tesseract11TessBaseAPI9MakeTBLOBEP3Pix
_ZN9tesseract11TessBaseAPI9RecognizeEP10ETEXT_DESC
_ZN9tesseract11TessBaseAPI9ThresholdEPP3Pix
_ZN9tesseract11TessBaseAPIC1Ev
_ZN9tesseract11TessBaseAPIC2Ev
_ZN9tesseract11TessBaseAPID0Ev
_ZN9tesseract11TessBaseAPID1Ev
_ZN9tesseract11TessBaseAPID2Ev
_ZN9tesseract11WordAltList10PrintDebugEv
_ZN9tesseract11WordAltList4SortEv
_ZN9tesseract11WordAltList6InsertEPiiPv
_ZN9tesseract11WordAltListC1Ei
_ZN9tesseract11WordAltListC2Ei
_ZN9tesseract11WordAltListD0Ev
_ZN9tesseract11WordAltListD1Ev
_ZN9tesseract11WordAltListD2Ev
_ZN9tesseract11kCrownRightE DATA
_ZN9tesseract12CallWithUTF8EP13TessCallback1IPKcEPK11WERD_CHOICE
_ZN9tesseract12CharSampEnumC1Ev
_ZN9tesseract12CharSampEnumC2Ev
_ZN9tesseract12CharSampEnumD0Ev
_ZN9tesseract12CharSampEnumD1Ev
_ZN9tesseract12CharSampEnumD2Ev
_ZN9tesseract12ColPartition10AddPartnerEbPS0_
_ZN9tesseract12ColPartition10BiggestBoxEv
_ZN9tesseract12ColPartition10ClaimBoxesEv
_ZN9tesseract12ColPartition10SetLeftTabEPKNS_9TabVectorE
_ZN9tesseract12ColPartition11ColumnRangeEiPNS_15ColPartitionSetEPiS3_
_ZN9tesseract12ColPartition11CopyLeftTabERKS0_b
_ZN9tesseract12ColPartition11DeleteBoxesEv
_ZN9tesseract12ColPartition11DisownBoxesEv
_ZN9tesseract12ColPartition11LeftEdgeRunEPNS_15ColPartition_ITEP6ICOORDS4_
_ZN9tesseract12ColPartition11PrintColorsEv
_ZN9tesseract12ColPartition11SetRightTabEPKNS_9TabVectorE
_ZN9tesseract12ColPartition11SplitAtBlobEP8BLOBNBOX
_ZN9tesseract12ColPartition12CopyRightTabERKS0_b
_ZN9tesseract12ColPartition12RightEdgeRunEPNS_15ColPartition_ITEP6ICOORDS4_
_ZN9tesseract12ColPartition12SetBlobTypesEv
_ZN9tesseract12ColPartition13ComputeLimitsEv
_ZN9tesseract12ColPartition13FakePartitionERK4TBOX13PolyBlockType14BlobRegionType16BlobTextFlowType
_ZN9tesseract12ColPartition13OKSpacingBlipEiiPPS0_
_ZN9tesseract12ColPartition13RemovePartnerEbPS0_
_ZN9tesseract12ColPartition14OKMergeOverlapERKS0_S2_ib
_ZN9tesseract12ColPartition14RefinePartnersE13PolyBlockTypebPNS_16ColPartitionGridE
_ZN9tesseract12ColPartition14ReflectInYAxisEv
_ZN9tesseract12ColPartition14SmoothSpacingsEiiPNS_17ColPartition_LISTE
_ZN9tesseract12ColPartition15AddToWorkingSetERK6ICOORDS3_iPNS_17ColPartition_LISTEPNS_19WorkingPartSet_LISTE
_ZN9tesseract12ColPartition15HasGoodBaselineEv
_ZN9tesseract12ColPartition16BoundsWithoutBoxEP8BLOBNBOX
_ZN9tesseract12ColPartition16MakeBigPartitionEP8BLOBNBOXPNS_17ColPartition_LISTE
_ZN9tesseract12ColPartition16OverlapSplitBlobERK4TBOX
_ZN9tesseract12ColPartition16SetPartitionTypeEiPNS_15ColPartitionSetE
_ZN9tesseract12ColPartition16SingletonPartnerEb
_ZN9tesseract12ColPartition16SmoothPartnerRunEi
_ZN9tesseract12ColPartition17LineSpacingBlocksERK6ICOORDS3_iPNS_17ColPartition_LISTES5_P10BLOCK_LISTP13TO_BLOCK_LIST
_ZN9tesseract12ColPartition17MakeLinePartitionE14BlobRegionTypeRK6ICOORDiiii
_ZN9tesseract12ColPartition17SetColumnGoodnessEP19TessResultCallback1IbiE
_ZN9tesseract12ColPartition17SpecialBlobsCountE19BlobSpecialTextType
_ZN9tesseract12ColPartition19CopyButDontOwnBlobsEv
_ZN9tesseract12ColPartition19DisownBoxesNoAssertEv
_ZN9tesseract12ColPartition19ThisPartitionBetterEP8BLOBNBOXRKS0_
_ZN9tesseract12ColPartition20RefinePartnersByTypeEbPNS_18ColPartition_CLISTE
_ZN9tesseract12ColPartition21CountOverlappingBoxesERK4TBOX
_ZN9tesseract12ColPartition21MakeVerticalTextBlockERK6ICOORDS3_PNS_17ColPartition_LISTES5_
_ZN9tesseract12ColPartition22RefinePartnerShortcutsEbPNS_18ColPartition_CLISTE
_ZN9tesseract12ColPartition22RefinePartnersInternalEbbPNS_16ColPartitionGridE
_ZN9tesseract12ColPartition22SetSpecialBlobsDensityE19BlobSpecialTextTypef
_ZN9tesseract12ColPartition23RefinePartnersByOverlapEbPNS_18ColPartition_CLISTE
_ZN9tesseract12ColPartition24MarkAsLeaderIfMonospacedEv
_ZN9tesseract12ColPartition25RefineTextPartnersByMergeEbbPNS_18ColPartition_CLISTEPNS_16ColPartitionGridE
_ZN9tesseract12ColPartition26ComputeSpecialBlobsDensityEv
_ZN9tesseract12ColPartition40SetRegionAndFlowTypesFromProjectionValueEi
_ZN9tesseract12ColPartition6AbsorbEPS0_P19TessResultCallback1IbiE
_ZN9tesseract12ColPartition6AddBoxEP8BLOBNBOX
_ZN9tesseract12ColPartition7IsLegalEv
_ZN9tesseract12ColPartition7SplitAtEi
_ZN9tesseract12ColPartition9MakeBlockERK6ICOORDS3_PNS_17ColPartition_LISTES5_
_ZN9tesseract12ColPartition9MakeToRowEv
_ZN9tesseract12ColPartition9RemoveBoxEP8BLOBNBOX
_ZN9tesseract12ColPartitionC1E14BlobRegionTypeRK6ICOORD
_ZN9tesseract12ColPartitionC2E14BlobRegionTypeRK6ICOORD
_ZN9tesseract12ColPartitionD1Ev
_ZN9tesseract12ColPartitionD2Ev
_ZN9tesseract12ColumnFinder10FindBlocksENS_11PageSegModeEP3PixiP8TO_BLOCKS3_S3_S3_P10BLOCK_LISTP13TO_BLOCK_LIST
_ZN9tesseract12ColumnFinder11MakeColumnsEb
_ZN9tesseract12ColumnFinder11blocks_win_E DATA
_ZN9tesseract12ColumnFinder13AssignColumnsERK13GenericVectorIPNS_15ColPartitionSetEE
_ZN9tesseract12ColumnFinder13DisplayBlocksEP10BLOCK_LIST
_ZN9tesseract12ColumnFinder13ReflectForRtlEP8TO_BLOCKP13BLOBNBOX_LIST
_ZN9tesseract12ColumnFinder16GetDeskewVectorsEP6FCOORDS2_
_ZN9tesseract12ColumnFinder17AddToTempPartListEPNS_12ColPartitionEPNS_18ColPartition_CLISTE
_ZN9tesseract12ColumnFinder17EmptyTempPartListEPNS_18ColPartition_CLISTEPNS_19WorkingPartSet_LISTE
_ZN9tesseract12ColumnFinder17SetEquationDetectEPNS_18EquationDetectBaseE
_ZN9tesseract12ColumnFinder17SetPartitionTypesEv
_ZN9tesseract12ColumnFinder17SmoothPartnerRunsEv
_ZN9tesseract12ColumnFinder17TransformToBlocksEP10BLOCK_LISTP13TO_BLOCK_LIST
_ZN9tesseract12ColumnFinder18CorrectOrientationEP8TO_BLOCKbi
_ZN9tesseract12ColumnFinder19AssignColumnToRangeEiiiPPiS1_
_ZN9tesseract12ColumnFinder19DisplayColumnBoundsEP13GenericVectorIPNS_15ColPartitionSetEE
_ZN9tesseract12ColumnFinder19GridMergePartitionsEv
_ZN9tesseract12ColumnFinder19GridSplitPartitionsEv
_ZN9tesseract12ColumnFinder19RangeModalColumnSetEPPiPKiii
_ZN9tesseract12ColumnFinder19SetupAndFilterNoiseEP3PixP8TO_BLOCK
_ZN9tesseract12ColumnFinder20ComputeMeanColumnGapEv
_ZN9tesseract12ColumnFinder20InsertRemainingNoiseEP8TO_BLOCK
_ZN9tesseract12ColumnFinder21PrintColumnCandidatesEPKc
_ZN9tesseract12ColumnFinder21RotateAndReskewBlocksEbP13TO_BLOCK_LIST
_ZN9tesseract12ColumnFinder22BiggestUnassignedRangeEiPKbPiS3_
_ZN9tesseract12ColumnFinder23ImproveColumnCandidatesEP13GenericVectorIPNS_15ColPartitionSetEES5_
_ZN9tesseract12ColumnFinder23IsVerticallyAlignedTextEP8TO_BLOCKP14BLOBNBOX_CLIST
_ZN9tesseract12ColumnFinder23ShrinkRangeToLongestRunEPPiPKiPKbiS1_S1_
_ZN9tesseract12ColumnFinder24ExtendRangePastSmallGapsEPPiPKiPKbiiiS1_
_ZN9tesseract12ColumnFinder25GridInsertHLinePartitionsEv
_ZN9tesseract12ColumnFinder25GridInsertVLinePartitionsEv
_ZN9tesseract12ColumnFinder28ReleaseBlobsAndCleanupUnusedEP8TO_BLOCK
_ZN9tesseract12ColumnFinder29GridRemoveUnderlinePartitionsEv
_ZN9tesseract12ColumnFinder31ComputeBlockAndClassifyRotationEP5BLOCK
_ZN9tesseract12ColumnFinderC1EiRK6ICOORDS3_ibPNS_14TabVector_LISTES5_ii
_ZN9tesseract12ColumnFinderC2EiRK6ICOORDS3_ibPNS_14TabVector_LISTES5_ii
_ZN9tesseract12ColumnFinderD0Ev
_ZN9tesseract12ColumnFinderD1Ev
_ZN9tesseract12ColumnFinderD2Ev
_ZN9tesseract12DeleteObjectINS_10ColSegmentEEEvPT_
_ZN9tesseract12DeleteObjectINS_12ColPartitionEEEvPT_
_ZN9tesseract12ErrorCounter12ComputeRatesERKNS0_6CountsEPd
_ZN9tesseract12ErrorCounter12ReportErrorsEiNS_10CountTypesERKNS_13FontInfoTableERKNS_14SampleIteratorEPdP6STRING
_ZN9tesseract12ErrorCounter12ReportStringEbRKNS0_6CountsEP6STRING
_ZN9tesseract12ErrorCounter14AccumulateJunkEbRK13GenericVectorINS_13UnicharRatingEEPNS_14TrainingSampleE
_ZN9tesseract12ErrorCounter14DebugNewErrorsEPNS_15ShapeClassifierES2_NS_10CountTypesERKNS_13FontInfoTableERK13GenericVectorIP3PixEPNS_14SampleIteratorE
_ZN9tesseract12ErrorCounter16AccumulateErrorsEbNS_10CountTypesERKNS_13FontInfoTableERK13GenericVectorINS_13UnicharRatingEEPNS_14TrainingSampleE
_ZN9tesseract12ErrorCounter16ComputeErrorRateEPNS_15ShapeClassifierEiNS_10CountTypesERKNS_13FontInfoTableERK13GenericVectorIP3PixEPNS_14SampleIteratorEPdSF_P6STRING
_ZN9tesseract12ErrorCounter6CountsC1Ev
_ZN9tesseract12ErrorCounter6CountsC2Ev
_ZN9tesseract12ErrorCounter6CountspLERKS1_
_ZN9tesseract12ErrorCounterC1ERK10UNICHARSETi
_ZN9tesseract12ErrorCounterC2ERK10UNICHARSETi
_ZN9tesseract12ErrorCounterD1Ev
_ZN9tesseract12ErrorCounterD2Ev
_ZN9tesseract12IndexMapBiDi11DeSerializeEbP6_iobuf
_ZN9tesseract12IndexMapBiDi14CompleteMergesEv
_ZN9tesseract12IndexMapBiDi17InitAndSetupRangeEiii
_ZN9tesseract12IndexMapBiDi4InitEib
_ZN9tesseract12IndexMapBiDi5MergeEii
_ZN9tesseract12IndexMapBiDi5SetupEv
_ZN9tesseract12IndexMapBiDi6SetMapEib
_ZN9tesseract12IndexMapBiDi8CopyFromERKS0_
_ZN9tesseract12IndexMapBiDiD0Ev
_ZN9tesseract12IndexMapBiDiD1Ev
_ZN9tesseract12LMPainPoints13RemapForSplitEi
_ZN9tesseract12LMPainPoints15GenerateInitialEP8WERD_RES
_ZN9tesseract12LMPainPoints16GenerateFromPathEfPNS_17ViterbiStateEntryEP8WERD_RES
_ZN9tesseract12LMPainPoints17GenerateForBlamerEdP8WERD_RESii
_ZN9tesseract12LMPainPoints17GeneratePainPointEiiNS_16LMPainPointsTypeEfbfP8WERD_RES
_ZN9tesseract12LMPainPoints18GenerateFromAmbigsERK13GenericVectorI12DANGERR_INFOEPNS_17ViterbiStateEntryEP8WERD_RES
_ZN9tesseract12LMPainPoints20kLooseMaxCharWhRatioE DATA
_ZN9tesseract12LMPainPoints35kDefaultPainPointPriorityAdjustmentE DATA
_ZN9tesseract12LMPainPoints5DequeEP12MATRIX_COORDPf
_ZN9tesseract12PageIterator10RestartRowEv
_ZN9tesseract12PageIterator16RestartParagraphEv
_ZN9tesseract12PageIterator19SetWordBlamerBundleEP12BlamerBundle
_ZN9tesseract12PageIterator4NextENS_17PageIteratorLevelE
_ZN9tesseract12PageIterator5BeginEv
_ZN9tesseract12PageIterator9BeginWordEi
_ZN9tesseract12PageIteratorC1EP8PAGE_RESPNS_9TesseractEiiiiii
_ZN9tesseract12PageIteratorC1ERKS0_
_ZN9tesseract12PageIteratorC2EP8PAGE_RESPNS_9TesseractEiiiiii
_ZN9tesseract12PageIteratorC2ERKS0_
_ZN9tesseract12PageIteratorD0Ev
_ZN9tesseract12PageIteratorD1Ev
_ZN9tesseract12PageIteratorD2Ev
_ZN9tesseract12PageIteratoraSERKS0_
_ZN9tesseract12RowsFitModelEPK13GenericVectorINS_19RowScratchRegistersEEiiPK14ParagraphModel
_ZN9tesseract12SearchColumn4InitEv
_ZN9tesseract12SearchColumn4SortEv
_ZN9tesseract12SearchColumn5PruneEv
_ZN9tesseract12SearchColumn7AddNodeEPNS_11LangModEdgeEiPNS_10SearchNodeEPNS_15CubeRecoContextE
_ZN9tesseract12SearchColumn7CleanupEv
_ZN9tesseract12SearchColumn8BestNodeEv
_ZN9tesseract12SearchColumnC1Eii
_ZN9tesseract12SearchColumnC2Eii
_ZN9tesseract12SearchColumnD1Ev
_ZN9tesseract12SearchColumnD2Ev
_ZN9tesseract12SquishedDawg18read_squished_dawgEP6_iobufNS_8DawgTypeERK6STRING12PermuterTypei
_ZN9tesseract12SquishedDawg19write_squished_dawgEP6_iobuf
_ZN9tesseract12SquishedDawgD0Ev
_ZN9tesseract12SquishedDawgD1Ev
_ZN9tesseract12SquishedDawgD2Ev
_ZN9tesseract12WordUnigrams6CreateERKSsS2_
_ZN9tesseract12WordUnigramsC1Ev
_ZN9tesseract12WordUnigramsC2Ev
_ZN9tesseract12WordUnigramsD1Ev
_ZN9tesseract12WordUnigramsD2Ev
_ZN9tesseract12kOldVarsFileE DATA
_ZN9tesseract12tprintfMutexE DATA
_ZN9tesseract13BaselineBlock13DrawFinalRowsERK6ICOORD
_ZN9tesseract13BaselineBlock13DrawPixSplineEP3Pix
_ZN9tesseract13BaselineBlock17RefineLineSpacingERK13GenericVectorIdE
_ZN9tesseract13BaselineBlock17SpacingModelErrorEddd
_ZN9tesseract13BaselineBlock18ComputeLineSpacingEv
_ZN9tesseract13BaselineBlock18FitBaselineSplinesEbbPNS_7TextordE
_ZN9tesseract13BaselineBlock19EstimateLineSpacingEv
_ZN9tesseract13BaselineBlock19FitLineSpacingModelERK13GenericVectorIdEdPdS5_Pi
_ZN9tesseract13BaselineBlock20ParallelizeBaselinesEd
_ZN9tesseract13BaselineBlock23FitBaselinesAndFindSkewEb
_ZN9tesseract13BaselineBlock23PrepareForSplineFittingE6ICOORDb
_ZN9tesseract13BaselineBlock24ComputeBaselinePositionsERK6FCOORDP13GenericVectorIdE
_ZN9tesseract13BaselineBlockC1EibP8TO_BLOCK
_ZN9tesseract13BaselineBlockC2EibP8TO_BLOCK
_ZN9tesseract13FeatureHybrid10FeatureCntEv
_ZN9tesseract13FeatureHybrid15ComputeFeaturesEPNS_8CharSampEPf
_ZN9tesseract13FeatureHybrid20ComputeFeatureBitmapEPNS_8CharSampE
_ZN9tesseract13FeatureHybridC1EPNS_12TuningParamsE
_ZN9tesseract13FeatureHybridC2EPNS_12TuningParamsE
_ZN9tesseract13FeatureHybridD0Ev
_ZN9tesseract13FeatureHybridD1Ev
_ZN9tesseract13FeatureHybridD2Ev
_ZN9tesseract13FontInfoTable11DeSerializeEbP6_iobuf
_ZN9tesseract13FontInfoTable19MoveSpacingInfoFromEPS0_
_ZN9tesseract13FontInfoTable6MoveToEP12UnicityTableINS_8FontInfoEE
_ZN9tesseract13FontInfoTableC1Ev
_ZN9tesseract13FontInfoTableC2Ev
_ZN9tesseract13FontInfoTableD1Ev
_ZN9tesseract13FontInfoTableD2Ev
_ZN9tesseract13HistogramRectEP3PixiiiiiPi
_ZN9tesseract13IntFeatureMap15FinalizeMappingEPNS_14SampleIteratorE
_ZN9tesseract13IntFeatureMap16DeleteMapFeatureEi
_ZN9tesseract13IntFeatureMap4InitERKNS_15IntFeatureSpaceE
_ZN9tesseract13IntFeatureMap5ClearEv
_ZN9tesseract13IntFeatureMapC1Ev
_ZN9tesseract13IntFeatureMapC2Ev
_ZN9tesseract13IntFeatureMapD1Ev
_ZN9tesseract13IntFeatureMapD2Ev
_ZN9tesseract13IsLatinLetterEi
_ZN9tesseract13LanguageModel11InitForWordEPK11WERD_CHOICEbff
_ZN9tesseract13LanguageModel11UpdateStateEbiiP16BLOB_CHOICE_LISTPNS_18LanguageModelStateEPNS_12LMPainPointsEP8WERD_RESPNS_16BestChoiceBundleEP12BlamerBundle
_ZN9tesseract13LanguageModel12ComputeDenomEP16BLOB_CHOICE_LIST
_ZN9tesseract13LanguageModel13ConstructWordEPNS_17ViterbiStateEntryEP8WERD_RESP13GenericVectorI12DANGERR_INFOEP12BlamerBundlePb
_ZN9tesseract13LanguageModel16ComputeNgramCostEPKcffS2_PiPbPf
_ZN9tesseract13LanguageModel16GenerateDawgInfoEbiiRK11BLOB_CHOICEPKNS_17ViterbiStateEntryE
_ZN9tesseract13LanguageModel16UpdateBestChoiceEPNS_17ViterbiStateEntryEPNS_12LMPainPointsEP8WERD_RESPNS_16BestChoiceBundleEP12BlamerBundle
_ZN9tesseract13LanguageModel16kMaxAvgNgramCostE DATA
_ZN9tesseract13LanguageModel17GenerateNgramInfoEPKcffiifPKNS_17ViterbiStateEntryE
_ZN9tesseract13LanguageModel19FillConsistencyInfoEibP11BLOB_CHOICEPNS_17ViterbiStateEntryEP8WERD_RESPNS_17LMConsistencyInfoE
_ZN9tesseract13LanguageModel20AddViterbiStateEntryEhfbiiP11BLOB_CHOICEPNS_18LanguageModelStateEPNS_17ViterbiStateEntryEPNS_12LMPainPointsEP8WERD_RESPNS_16BestChoiceBundleEP12BlamerBundle
_ZN9tesseract13LanguageModel21GenerateTopChoiceInfoEPNS_17ViterbiStateEntryEPKS1_PNS_18LanguageModelStateE
_ZN9tesseract13LanguageModel23ComputeAdjustedPathCostEPNS_17ViterbiStateEntryE
_ZN9tesseract13LanguageModel23ExtractFeaturesFromPathERKNS_17ViterbiStateEntryEPf
_ZN9tesseract13LanguageModelC1EPK12UnicityTableINS_8FontInfoEEPNS_4DictE
_ZN9tesseract13LanguageModelC2EPK12UnicityTableINS_8FontInfoEEPNS_4DictE
_ZN9tesseract13LanguageModelD1Ev
_ZN9tesseract13LanguageModelD2Ev
_ZN9tesseract13MasterTrainer11DeSerializeEbP6_iobuf
_ZN9tesseract13MasterTrainer11IncludeJunkEv
_ZN9tesseract13MasterTrainer12LoadFontInfoEPKc
_ZN9tesseract13MasterTrainer12LoadXHeightsEPKc
_ZN9tesseract13MasterTrainer13ClusterShapesEiifPNS_10ShapeTableE
_ZN9tesseract13MasterTrainer13GetFontInfoIdEPKc
_ZN9tesseract13MasterTrainer13ShapeDistanceERKNS_10ShapeTableEii
_ZN9tesseract13MasterTrainer14AddSpacingInfoEPKc
_ZN9tesseract13MasterTrainer14DebugCanonicalEPKcS2_
_ZN9tesseract13MasterTrainer14DisplaySamplesEPKciS2_i
_ZN9tesseract13MasterTrainer14LoadPageImagesEPKc
_ZN9tesseract13MasterTrainer14LoadUnicharsetEPKc
_ZN9tesseract13MasterTrainer14TestClassifierENS_10CountTypesEibPNS_17TrainingSampleSetEPNS_15ShapeClassifierEP6STRING
_ZN9tesseract13MasterTrainer15PostLoadCleanupEv
_ZN9tesseract13MasterTrainer16PreTrainingSetupEv
_ZN9tesseract13MasterTrainer17SetupMasterShapesEv
_ZN9tesseract13MasterTrainer18SetupForClusteringERKNS_10ShapeTableERK19FEATURE_DEFS_STRUCTiPi
_ZN9tesseract13MasterTrainer18TestClassifierVOldEbPNS_15ShapeClassifierES2_
_ZN9tesseract13MasterTrainer19ReadTrainingSamplesEPKcRK19FEATURE_DEFS_STRUCTb
_ZN9tesseract13MasterTrainer19SetupFlatShapeTableEPNS_10ShapeTableE
_ZN9tesseract13MasterTrainer23TestClassifierOnSamplesENS_10CountTypesEibPNS_15ShapeClassifierEP6STRING
_ZN9tesseract13MasterTrainer24ReplaceFragmentedSamplesEv
_ZN9tesseract13MasterTrainer24WriteInttempAndPFFMTableERK10UNICHARSETS3_RKNS_10ShapeTableEP12CLASS_STRUCTPKcSA_
_ZN9tesseract13MasterTrainer25GetBestMatchingFontInfoIdEPKc
_ZN9tesseract13MasterTrainer38ReplicateAndRandomizeSamplesIfRequiredEv
_ZN9tesseract13MasterTrainer9AddSampleEbPKcPNS_14TrainingSampleE
_ZN9tesseract13MasterTrainerC1ENS_17NormalizationModeEbbi
_ZN9tesseract13MasterTrainerC2ENS_17NormalizationModeEbbi
_ZN9tesseract13MasterTrainerD1Ev
_ZN9tesseract13MasterTrainerD2Ev
_ZN9tesseract13OtsuThresholdEP3PixiiiiPPiS3_
_ZN9tesseract13PointerVectorINS_18LanguageModelStateEED1Ev
_ZN9tesseract13PointerVectorINS_5ShapeEED1Ev
_ZN9tesseract13RowIsStrandedERK13GenericVectorINS_19RowScratchRegistersEEi
_ZN9tesseract13SortByBoxLeftI8BLOBNBOXEEiPKvS3_
_ZN9tesseract13SortByBoxLeftINS_10ColSegmentEEEiPKvS3_
_ZN9tesseract13SortByBoxLeftINS_12ColPartitionEEEiPKvS3_
_ZN9tesseract13TabConstraint14GetConstraintsEPNS_18TabConstraint_LISTEPiS3_
_ZN9tesseract13TabConstraint16ApplyConstraintsEPNS_18TabConstraint_LISTE
_ZN9tesseract13TabConstraint16CreateConstraintEPNS_9TabVectorEb
_ZN9tesseract13TabConstraint16MergeConstraintsEPNS_18TabConstraint_LISTES2_
_ZN9tesseract13TabConstraint21CompatibleConstraintsEPNS_18TabConstraint_LISTES2_
_ZN9tesseract13TabConstraintC1EPNS_9TabVectorEb
_ZN9tesseract13TabConstraintC2EPNS_9TabVectorEb
_ZN9tesseract13TessLangModel11NumberEdgesExPPNS_11LangModEdgeE
_ZN9tesseract13TessLangModel12number_dawg_E DATA
_ZN9tesseract13TessLangModel13IsLeadingPuncEi
_ZN9tesseract13TessLangModel14IsTrailingPuncEi
_ZN9tesseract13TessLangModel15IsValidSequenceEPKibPPNS_11LangModEdgeE
_ZN9tesseract13TessLangModel15IsValidSequenceEPNS_11LangModEdgeEPKibPS2_
_ZN9tesseract13TessLangModel15num_max_repeat_E DATA
_ZN9tesseract13TessLangModel18num_state_machine_E DATA
_ZN9tesseract13TessLangModel19max_ood_shape_cost_E DATA
_ZN9tesseract13TessLangModel21LoadLangModelElementsERKSs
_ZN9tesseract13TessLangModel23RemoveInvalidCharactersEPSs
_ZN9tesseract13TessLangModel4RootEv
_ZN9tesseract13TessLangModel5EdgesEPKcPKNS_4DawgExxPPNS_11LangModEdgeE
_ZN9tesseract13TessLangModel6FanOutEPNS_11CharAltListEPKNS_4DawgExxPKibPPNS_11LangModEdgeE
_ZN9tesseract13TessLangModel7IsDigitEi
_ZN9tesseract13TessLangModel8GetEdgesEPNS_11CharAltListEPNS_11LangModEdgeEPi
_ZN9tesseract13TessLangModel8OODEdgesEPNS_11CharAltListExxPPNS_11LangModEdgeE
_ZN9tesseract13TessLangModel9FreeEdgesEiPPNS_11LangModEdgeE
_ZN9tesseract13TessLangModel9max_edge_E DATA
_ZN9tesseract13TessLangModel9ood_dawg_E DATA
_ZN9tesseract13TessLangModelC1ERKSsS2_bPNS_15TessdataManagerEPNS_15CubeRecoContextE
_ZN9tesseract13TessLangModelC2ERKSsS2_bPNS_15TessdataManagerEPNS_15CubeRecoContextE
_ZN9tesseract13TessLangModelD0Ev
_ZN9tesseract13TessLangModelD1Ev
_ZN9tesseract13UnicharAmbigs13LoadUniversalERK10UNICHARSETPS1_
_ZN9tesseract13UnicharAmbigs15InsertIntoTableER13GenericVectorIPNS_14AmbigSpec_LISTEEiPiiPKciPNS_9AmbigSpecEP10UNICHARSET
_ZN9tesseract13UnicharAmbigs17InitUnicharAmbigsERK10UNICHARSETb
_ZN9tesseract13UnicharAmbigs17LoadUnicharAmbigsERK10UNICHARSETPNS_5TFileEibPS1_
_ZN9tesseract13UnicharAmbigs18ParseAmbiguityLineEiiiRK10UNICHARSETPcPiS5_S5_S4_S5_
_ZN9tesseract13UnicharAmbigsD1Ev
_ZN9tesseract13UnicharRating20SortDescendingRatingEPKvS2_
_ZN9tesseract13UnicharRating22FirstResultWithUnicharERK13GenericVectorIS0_Ei
_ZN9tesseract13ValidBodyLineEPK13GenericVectorINS_19RowScratchRegistersEEiPK14ParagraphModel
_ZN9tesseract13WordSizeModel4InitERKSsS2_
_ZN9tesseract13WordSizeModel6CreateERKSsS2_PNS_7CharSetEb
_ZN9tesseract13WordSizeModel8PairCostEiiiiiiRKNS_12PairSizeInfoE
_ZN9tesseract13WordSizeModelC1EPNS_7CharSetEb
_ZN9tesseract13WordSizeModelC2EPNS_7CharSetEb
_ZN9tesseract13WordSizeModelD0Ev
_ZN9tesseract13WordSizeModelD1Ev
_ZN9tesseract13WordSizeModelD2Ev
_ZN9tesseract14AmbigSpec_LIST9deep_copyEPKS0_PFPNS_9AmbigSpecEPKS3_E
_ZN9tesseract14AssociateUtils12ComputeStatsEiiPKNS_14AssociateStatsEibfP8WERD_RESbPS1_
_ZN9tesseract14AssociateUtils19FixedPitchWidthCostEffbf
_ZN9tesseract14AssociateUtils29kMaxFixedPitchCharAspectRatioE DATA
_ZN9tesseract14AssociateUtils7kMinGapE DATA
_ZN9tesseract14BaselineDetect13SetDebugImageEP3PixRK6STRING
_ZN9tesseract14BaselineDetect24ComputeStraightBaselinesEb
_ZN9tesseract14BaselineDetect33ComputeBaselineSplinesAndXheightsERK6ICOORDbbbPNS_7TextordE
_ZN9tesseract14BaselineDetectC1EiRK6FCOORDP13TO_BLOCK_LIST
_ZN9tesseract14BaselineDetectC2EiRK6FCOORDP13TO_BLOCK_LIST
_ZN9tesseract14BaselineDetectD1Ev
_ZN9tesseract14BaselineDetectD2Ev
_ZN9tesseract14ChoiceIterator4NextEv
_ZN9tesseract14ChoiceIteratorC1ERKNS_17LTRResultIteratorE
_ZN9tesseract14ChoiceIteratorC2ERKNS_17LTRResultIteratorE
_ZN9tesseract14ChoiceIteratorD1Ev
_ZN9tesseract14ChoiceIteratorD2Ev
_ZN9tesseract14ClosestClusterERK13GenericVectorINS_7ClusterEEi
_ZN9tesseract14CompareFontSetERKNS_7FontSetES2_
_ZN9tesseract14CubeClassifier21UnicharClassifySampleERKNS_14TrainingSampleEP3PixiiP13GenericVectorINS_13UnicharRatingEE
_ZN9tesseract14CubeClassifierC1EPNS_9TesseractE
_ZN9tesseract14CubeClassifierC2EPNS_9TesseractE
_ZN9tesseract14CubeClassifierD0Ev
_ZN9tesseract14CubeClassifierD1Ev
_ZN9tesseract14CubeClassifierD2Ev
_ZN9tesseract14CubeLineObject25ComputeWordBreakThresholdEiPPNS_7ConCompEb
_ZN9tesseract14CubeLineObject7ProcessEv
_ZN9tesseract14CubeLineObjectC1EPNS_15CubeRecoContextEP3Pix
_ZN9tesseract14CubeLineObjectC2EPNS_15CubeRecoContextEP3Pix
_ZN9tesseract14CubeLineObjectD1Ev
_ZN9tesseract14CubeLineObjectD2Ev
_ZN9tesseract14EquationDetect10ExpandSeedEPNS_12ColPartitionE
_ZN9tesseract14EquationDetect10IsIndentedEPNS_12ColPartitionE
_ZN9tesseract14EquationDetect10SplitCPHorEPNS_12ColPartitionEP13GenericVectorIS2_E
_ZN9tesseract14EquationDetect13CheckForSeed2ERK13GenericVectorIiEfPNS_12ColPartitionE
_ZN9tesseract14EquationDetect13SetResolutionEi
_ZN9tesseract14EquationDetect14SplitCPHorLiteEPNS_12ColPartitionEP13GenericVectorI4TBOXE
_ZN9tesseract14EquationDetect15SearchByOverlapEPNS_12ColPartitionEP13GenericVectorIS2_E
_ZN9tesseract14EquationDetect16LabelSpecialTextEP8TO_BLOCK
_ZN9tesseract14EquationDetect16SearchNNVerticalEbPKNS_12ColPartitionE
_ZN9tesseract14EquationDetect16SetLangTesseractEPNS_9TesseractE
_ZN9tesseract14EquationDetect17FindEquationPartsEPNS_16ColPartitionGridEPPNS_15ColPartitionSetE
_ZN9tesseract14EquationDetect17IdentifySeedPartsEv
_ZN9tesseract14EquationDetect18CheckSeedFgDensityEfPNS_12ColPartitionE
_ZN9tesseract14EquationDetect18ExpandSeedVerticalEbPNS_12ColPartitionEP13GenericVectorIS2_E
_ZN9tesseract14EquationDetect19CheckSeedBlobsCountEPNS_12ColPartitionE
_ZN9tesseract14EquationDetect19ComputeCPsSuperBBoxEv
_ZN9tesseract14EquationDetect19IdentifyBlobsToSkipEPNS_12ColPartitionE
_ZN9tesseract14EquationDetect19IdentifyInlinePartsEv
_ZN9tesseract14EquationDetect19IdentifySpecialTextEP8BLOBNBOXi
_ZN9tesseract14EquationDetect19IdentifySpecialTextEv
_ZN9tesseract14EquationDetect20ExpandSeedHorizontalEbPNS_12ColPartitionEP13GenericVectorIS2_E
_ZN9tesseract14EquationDetect20IsMathBlockSatelliteEPNS_12ColPartitionEP13GenericVectorIS2_E
_ZN9tesseract14EquationDetect20MergePartsByLocationEv
_ZN9tesseract14EquationDetect21InsertPartAfterAbsorbEPNS_12ColPartitionE
_ZN9tesseract14EquationDetect24ComputeForegroundDensityERK4TBOX
_ZN9tesseract14EquationDetect27EstimateTextPartLineSpacingEv
_ZN9tesseract14EquationDetect27IdentifyInlinePartsVerticalEbi
_ZN9tesseract14EquationDetect29IdentifyInlinePartsHorizontalEv
_ZN9tesseract14EquationDetect30ProcessMathBlockSatellitePartsEv
_ZN9tesseract14EquationDetect8IsInlineEbiPNS_12ColPartitionE
_ZN9tesseract14EquationDetectC1EPKcS2_
_ZN9tesseract14EquationDetectC2EPKcS2_
_ZN9tesseract14EquationDetectD0Ev
_ZN9tesseract14EquationDetectD1Ev
_ZN9tesseract14EquationDetectD2Ev
_ZN9tesseract14GridReducedPixERK4TBOXi6ICOORDPiS4_
_ZN9tesseract14IntFeatureDist3SetERK13GenericVectorIiEib
_ZN9tesseract14IntFeatureDist4InitEPKNS_13IntFeatureMapE
_ZN9tesseract14IntFeatureDist5ClearEv
_ZN9tesseract14IntFeatureDistC1Ev
_ZN9tesseract14IntFeatureDistC2Ev
_ZN9tesseract14IntFeatureDistD1Ev
_ZN9tesseract14IntFeatureDistD2Ev
_ZN9tesseract14InterwordSpaceERK13GenericVectorINS_19RowScratchRegistersEEii
_ZN9tesseract14IsOpeningPunctEi
_ZN9tesseract14LikelyListMarkERK6STRING
_ZN9tesseract14PixelHistogram26ConstructVerticalCountHistEP3Pix
_ZN9tesseract14PixelHistogram28ConstructHorizontalCountHistEP3Pix
_ZN9tesseract14ResultIterator12kComplexWordE DATA
_ZN9tesseract14ResultIterator12kMinorRunEndE DATA
_ZN9tesseract14ResultIterator14kMinorRunStartE DATA
_ZN9tesseract14ResultIterator16StartOfParagraphERKNS_17LTRResultIteratorE
_ZN9tesseract14ResultIterator22CalculateTextlineOrderEbRK13GenericVectorI21StrongScriptDirectionEP17GenericVectorEqEqIiE
_ZN9tesseract14ResultIterator24MoveToLogicalStartOfWordEv
_ZN9tesseract14ResultIterator28MoveToLogicalStartOfTextlineEv
_ZN9tesseract14ResultIterator32IterateAndAppendUTF8TextlineTextEP6STRING
_ZN9tesseract14ResultIterator4NextENS_17PageIteratorLevelE
_ZN9tesseract14ResultIterator5BeginEv
_ZN9tesseract14ResultIteratorC1ERKNS_17LTRResultIteratorE
_ZN9tesseract14ResultIteratorC2ERKNS_17LTRResultIteratorE
_ZN9tesseract14ResultIteratorD0Ev
_ZN9tesseract14ResultIteratorD1Ev
_ZN9tesseract14SampleIterator14UniformSamplesEv
_ZN9tesseract14SampleIterator16NormalizeSamplesEv
_ZN9tesseract14SampleIterator17MapSampleFeaturesERKNS_13IntFeatureMapE
_ZN9tesseract14SampleIterator4InitEPKNS_12IndexMapBiDiEPKNS_10ShapeTableEbPNS_17TrainingSampleSetE
_ZN9tesseract14SampleIterator4NextEv
_ZN9tesseract14SampleIterator5BeginEv
_ZN9tesseract14SampleIterator5ClearEv
_ZN9tesseract14SampleIteratorC1Ev
_ZN9tesseract14SampleIteratorC2Ev
_ZN9tesseract14SampleIteratorD1Ev
_ZN9tesseract14SampleIteratorD2Ev
_ZN9tesseract14TESS_CHAR_LIST9deep_copyEPKS0_PFPNS_9TESS_CHAREPKS3_E
_ZN9tesseract14TabVector_LIST9deep_copyEPKS0_PFPNS_9TabVectorEPKS3_E
_ZN9tesseract14TessClassifier17DisplayClassifyAsERKNS_14TrainingSampleEP3PixiiPNS_13PointerVectorI10ScrollViewEE
_ZN9tesseract14TessClassifier21UnicharClassifySampleERKNS_14TrainingSampleEP3PixiiP13GenericVectorINS_13UnicharRatingEE
_ZN9tesseract14TessClassifierD0Ev
_ZN9tesseract14TessClassifierD1Ev
_ZN9tesseract14TrainingSample11DeSerializeEbP6_iobuf
_ZN9tesseract14TrainingSample11MapFeaturesERKNS_13IntFeatureMapE
_ZN9tesseract14TrainingSample12kScaleValuesE DATA
_ZN9tesseract14TrainingSample13IndexFeaturesERKNS_15IntFeatureSpaceE
_ZN9tesseract14TrainingSample13kYShiftValuesE DATA
_ZN9tesseract14TrainingSample15ExtractCharDescEiiiiP16CHAR_DESC_STRUCT
_ZN9tesseract14TrainingSample16CopyFromFeaturesERK20INT_FX_RESULT_STRUCTRK4TBOXPK18INT_FEATURE_STRUCTi
_ZN9tesseract14TrainingSample17DeSerializeCreateEbP6_iobuf
_ZN9tesseract14TrainingSampleD1Ev
_ZN9tesseract14TrainingSampleD2Ev
_ZN9tesseract14ValidFirstLineEPK13GenericVectorINS_19RowScratchRegistersEEiPK14ParagraphModel
_ZN9tesseract14WorkingPartSet10MakeBlocksERK6ICOORDS3_iPNS_17ColPartition_LISTE
_ZN9tesseract14WorkingPartSet12AddPartitionEPNS_12ColPartitionE
_ZN9tesseract14WorkingPartSet21InsertCompletedBlocksEP10BLOCK_LISTP13TO_BLOCK_LIST
_ZN9tesseract14WorkingPartSet22ExtractCompletedBlocksERK6ICOORDS3_iPNS_17ColPartition_LISTEP10BLOCK_LISTP13TO_BLOCK_LIST
_ZN9tesseract14YOutlierPiecesEP8WERD_RESiiiPNS_9ScriptPosEPiS3_S4_
_ZN9tesseract15CCNonTextDetect18ComputeNonTextMaskEbP3PixP8TO_BLOCK
_ZN9tesseract15CCNonTextDetect19BlobOverlapsTooMuchEP8BLOBNBOXi
_ZN9tesseract15CCNonTextDetect19ComputeNoiseDensityEbP3PixPNS_8BlobGridE
_ZN9tesseract15CCNonTextDetect25MarkAndDeleteNonTextBlobsEP13BLOBNBOX_LISTiP10ScrollViewNS3_5ColorEP3Pix
_ZN9tesseract15CCNonTextDetectC1EiRK6ICOORDS3_
_ZN9tesseract15CCNonTextDetectC2EiRK6ICOORDS3_
_ZN9tesseract15CCNonTextDetectD0Ev
_ZN9tesseract15CCNonTextDetectD1Ev
_ZN9tesseract15CCNonTextDetectD2Ev
_ZN9tesseract15ColPartitionSet12AddPartitionEPNS_12ColPartitionEPNS_15ColPartition_ITE
_ZN9tesseract15ColPartitionSet12SpanningTypeEiiiiiiiPiS1_S1_
_ZN9tesseract15ColPartitionSet14GetColumnBoxesEiiPNS_15ColSegment_LISTE
_ZN9tesseract15ColPartitionSet14UnmatchedWidthEPS0_
_ZN9tesseract15ColPartitionSet15ComputeCoverageEv
_ZN9tesseract15ColPartitionSet15RelinquishPartsEv
_ZN9tesseract15ColPartitionSet16ColumnContainingEii
_ZN9tesseract15ColPartitionSet16GetColumnByIndexEi
_ZN9tesseract15ColPartitionSet17ChangeWorkColumnsERK6ICOORDS3_iPNS_17ColPartition_LISTEPNS_19WorkingPartSet_LISTE
_ZN9tesseract15ColPartitionSet17CompatibleColumnsEbPS0_P19TessResultCallback1IbiE
_ZN9tesseract15ColPartitionSet18DisplayColumnEdgesEiiP10ScrollView
_ZN9tesseract15ColPartitionSet20LegalColumnCandidateEv
_ZN9tesseract15ColPartitionSet22ImproveColumnCandidateEP19TessResultCallback1IbiEP13GenericVectorIPS0_E
_ZN9tesseract15ColPartitionSet23AddToColumnSetsIfUniqueEP13GenericVectorIPS0_EP19TessResultCallback1IbiE
_ZN9tesseract15ColPartitionSet26AddPartitionCoverageAndBoxERKNS_12ColPartitionE
_ZN9tesseract15ColPartitionSet29AccumulateColumnWidthsAndGapsEPiS1_S1_S1_
_ZN9tesseract15ColPartitionSet4CopyEb
_ZN9tesseract15ColPartitionSet5PrintEv
_ZN9tesseract15ColPartitionSetC1EPNS_12ColPartitionE
_ZN9tesseract15ColPartitionSetC1EPNS_17ColPartition_LISTE
_ZN9tesseract15ColPartitionSetC2EPNS_12ColPartitionE
_ZN9tesseract15ColPartitionSetC2EPNS_17ColPartition_LISTE
_ZN9tesseract15ColPartitionSetD1Ev
_ZN9tesseract15ColPartitionSetD2Ev
_ZN9tesseract15ColSegment_LIST9deep_copyEPKS0_PFPNS_10ColSegmentEPKS3_E
_ZN9tesseract15CompareFontInfoERKNS_8FontInfoES2_
_ZN9tesseract15CrownCompatibleEPK13GenericVectorINS_19RowScratchRegistersEEiiPK14ParagraphModel
_ZN9tesseract15CubeRecoContext4LoadEPNS_15TessdataManagerEP10UNICHARSET
_ZN9tesseract15CubeRecoContext6CreateEPNS_9TesseractEPNS_15TessdataManagerEP10UNICHARSET
_ZN9tesseract15CubeRecoContextC1EPNS_9TesseractE
_ZN9tesseract15CubeRecoContextC2EPNS_9TesseractE
_ZN9tesseract15CubeRecoContextD1Ev
_ZN9tesseract15CubeRecoContextD2Ev
_ZN9tesseract15InputFileBuffer4ReadEPvi
_ZN9tesseract15InputFileBufferC1ERKSs
_ZN9tesseract15InputFileBufferC2ERKSs
_ZN9tesseract15InputFileBufferD0Ev
_ZN9tesseract15InputFileBufferD1Ev
_ZN9tesseract15InputFileBufferD2Ev
_ZN9tesseract15IntFeatureSpace11DeSerializeEbP6_iobuf
_ZN9tesseract15IntFeatureSpace4InitEhhh
_ZN9tesseract15IntFeatureSpaceC1Ev
_ZN9tesseract15IntFeatureSpaceC2Ev
_ZN9tesseract15IsTerminalPunctEi
_ZN9tesseract15MutableIteratorD0Ev
_ZN9tesseract15MutableIteratorD1Ev
_ZN9tesseract15ParagraphTheory17NonCenteredModelsEP17GenericVectorEqEqIPK14ParagraphModelE
_ZN9tesseract15ParagraphTheory19DiscardUnusedModelsERK17GenericVectorEqEqIPK14ParagraphModelE
_ZN9tesseract15ParagraphTheory8AddModelERK14ParagraphModel
_ZN9tesseract15ShapeClassifier12DebugDisplayERKNS_14TrainingSampleEP3Pixi
_ZN9tesseract15ShapeClassifier14ClassifySampleERKNS_14TrainingSampleEP3PixiiP13GenericVectorINS_11ShapeRatingEE
_ZN9tesseract15ShapeClassifier17DisplayClassifyAsERKNS_14TrainingSampleEP3PixiiPNS_13PointerVectorI10ScrollViewEE
_ZN9tesseract15ShapeClassifier19BestShapeForUnicharERKNS_14TrainingSampleEP3PixiPNS_11ShapeRatingE
_ZN9tesseract15ShapeClassifier21UnicharClassifySampleERKNS_14TrainingSampleEP3PixiiP13GenericVectorINS_13UnicharRatingEE
_ZN9tesseract15SimpleClusterer11GetClustersEP13GenericVectorINS_7ClusterEE
_ZN9tesseract15SortByBoxBottomI8BLOBNBOXEEiPKvS3_
_ZN9tesseract15SortByUnicharIDI11BLOB_CHOICEEEiPKvS3_
_ZN9tesseract15SortRightToLeftI8BLOBNBOXEEiPKvS3_
_ZN9tesseract15StructuredTable13UpdateMarginsEPNS_16ColPartitionGridE
_ZN9tesseract15StructuredTable13set_line_gridEPNS_16ColPartitionGridE
_ZN9tesseract15StructuredTable13set_text_gridEPNS_16ColPartitionGridE
_ZN9tesseract15StructuredTable14CalculateStatsEv
_ZN9tesseract15StructuredTable14ClearStructureEv
_ZN9tesseract15StructuredTable15CountPartitionsERK4TBOX
_ZN9tesseract15StructuredTable15VerifyRowFilledEi
_ZN9tesseract15StructuredTable16CalculateMarginsEv
_ZN9tesseract15StructuredTable16CountFilledCellsEiiii
_ZN9tesseract15StructuredTable16CountFilledCellsEv
_ZN9tesseract15StructuredTable16set_bounding_boxERK4TBOX
_ZN9tesseract15StructuredTable17AbsorbNearbyLinesEv
_ZN9tesseract15StructuredTable17median_cell_widthEv
_ZN9tesseract15StructuredTable18FindLinedStructureEv
_ZN9tesseract15StructuredTable18median_cell_heightEv
_ZN9tesseract15StructuredTable19FindWhitespacedRowsEv
_ZN9tesseract15StructuredTable19set_max_text_heightEi
_ZN9tesseract15StructuredTable21CountFilledCellsInRowEi
_ZN9tesseract15StructuredTable21VerifyLinedTableCellsEv
_ZN9tesseract15StructuredTable22FindCellSplitLocationsERK13GenericVectorIiES4_iPS2_
_ZN9tesseract15StructuredTable22FindWhitespacedColumnsEv
_ZN9tesseract15StructuredTable22VerifyWhitespacedTableEv
_ZN9tesseract15StructuredTable24CountFilledCellsInColumnEi
_ZN9tesseract15StructuredTable24FindWhitespacedStructureEv
_ZN9tesseract15StructuredTable26CountVerticalIntersectionsEi
_ZN9tesseract15StructuredTable28CountHorizontalIntersectionsEi
_ZN9tesseract15StructuredTable29CalculateCellFilledPercentageEii
_ZN9tesseract15StructuredTable4InitEv
_ZN9tesseract15StructuredTable7DisplayEP10ScrollViewNS1_5ColorE
_ZN9tesseract15StructuredTableC1Ev
_ZN9tesseract15StructuredTableC2Ev
_ZN9tesseract15StructuredTableD1Ev
_ZN9tesseract15StructuredTableD2Ev
_ZN9tesseract15TabEventHandlerINS_6BBGridI8BLOBNBOX14BLOBNBOX_CLIST13BLOBNBOX_C_ITEEE6NotifyEPK7SVEvent
_ZN9tesseract15TabEventHandlerINS_6BBGridI8BLOBNBOX14BLOBNBOX_CLIST13BLOBNBOX_C_ITEEED0Ev
_ZN9tesseract15TabEventHandlerINS_6BBGridI8BLOBNBOX14BLOBNBOX_CLIST13BLOBNBOX_C_ITEEED1Ev
_ZN9tesseract15TabEventHandlerINS_6BBGridINS_12ColPartitionENS_18ColPartition_CLISTENS_17ColPartition_C_ITEEEE6NotifyEPK7SVEvent
_ZN9tesseract15TabEventHandlerINS_6BBGridINS_12ColPartitionENS_18ColPartition_CLISTENS_17ColPartition_C_ITEEEED0Ev
_ZN9tesseract15TabEventHandlerINS_6BBGridINS_12ColPartitionENS_18ColPartition_CLISTENS_17ColPartition_C_ITEEEED1Ev
_ZN9tesseract15TableRecognizer13set_line_gridEPNS_16ColPartitionGridE
_ZN9tesseract15TableRecognizer13set_min_widthEi
_ZN9tesseract15TableRecognizer13set_text_gridEPNS_16ColPartitionGridE
_ZN9tesseract15TableRecognizer14IsWeakTableRowEPNS_15StructuredTableEi
_ZN9tesseract15TableRecognizer14RecognizeTableERK4TBOX
_ZN9tesseract15TableRecognizer14set_min_heightEi
_ZN9tesseract15TableRecognizer19HasSignificantLinesERK4TBOX
_ZN9tesseract15TableRecognizer19NextHorizontalSplitEiiib
_ZN9tesseract15TableRecognizer19RecognizeLinedTableERK4TBOXPNS_15StructuredTableE
_ZN9tesseract15TableRecognizer19set_max_text_heightEi
_ZN9tesseract15TableRecognizer20FindLinesBoundingBoxEP4TBOX
_ZN9tesseract15TableRecognizer25RecognizeWhitespacedTableERK4TBOXPNS_15StructuredTableE
_ZN9tesseract15TableRecognizer29FindLinesBoundingBoxIterationEP4TBOX
_ZN9tesseract15TableRecognizer4InitEv
_ZN9tesseract15TableRecognizerC1Ev
_ZN9tesseract15TableRecognizerC2Ev
_ZN9tesseract15TableRecognizerD1Ev
_ZN9tesseract15TableRecognizerD2Ev
_ZN9tesseract15TessLangModEdge14CreateChildrenEPNS_15CubeRecoContextEPKNS_4DawgExPPNS_11LangModEdgeE
_ZN9tesseract15TessLangModEdge7SetRootEb
_ZN9tesseract15TessLangModEdgeC1EPNS_15CubeRecoContextEPKNS_4DawgExi
_ZN9tesseract15TessLangModEdgeC1EPNS_15CubeRecoContextEPKNS_4DawgExxi
_ZN9tesseract15TessLangModEdgeC1EPNS_15CubeRecoContextEi
_ZN9tesseract15TessLangModEdgeC2EPNS_15CubeRecoContextEPKNS_4DawgExi
_ZN9tesseract15TessLangModEdgeC2EPNS_15CubeRecoContextEPKNS_4DawgExxi
_ZN9tesseract15TessLangModEdgeC2EPNS_15CubeRecoContextEi
_ZN9tesseract15TessLangModEdgeD0Ev
_ZN9tesseract15TessLangModEdgeD1Ev
_ZN9tesseract15TessPDFRenderer11pixToPDFObjEP3PixlPPcPl
_ZN9tesseract15TessPDFRenderer12fileToPDFObjEPclPS1_Pl
_ZN9tesseract15TessPDFRenderer15AddImageHandlerEPNS_11TessBaseAPIE
_ZN9tesseract15TessPDFRenderer15AppendPDFObjectEPKc
_ZN9tesseract15TessPDFRenderer17GetPDFTextObjectsEPNS_11TessBaseAPIEddi
_ZN9tesseract15TessPDFRenderer18AppendPDFObjectDIYEy
_ZN9tesseract15TessPDFRenderer18EndDocumentHandlerEv
_ZN9tesseract15TessPDFRenderer20BeginDocumentHandlerEv
_ZN9tesseract15TessPDFRendererC1EPKc
_ZN9tesseract15TessPDFRendererC2EPKc
_ZN9tesseract15TessPDFRendererD0Ev
_ZN9tesseract15TessPDFRendererD1Ev
_ZN9tesseract15TessdataManager13ExtractToFileEPKc
_ZN9tesseract15TessdataManager13WriteMetadataEPxPKcP6_iobuf
_ZN9tesseract15TessdataManager16CombineDataFilesEPKcS2_
_ZN9tesseract15TessdataManager19OverwriteComponentsEPKcPPci
_ZN9tesseract15TessdataManager24TessdataTypeFromFileNameEPKcPNS_12TessdataTypeEPb
_ZN9tesseract15TessdataManager26TessdataTypeFromFileSuffixEPKcPNS_12TessdataTypeEPb
_ZN9tesseract15TessdataManager4InitEPKci
_ZN9tesseract15TessdataManager9CopyFileAEP6_iobufS2_bx
_ZN9tesseract15UnicharAndFonts11DeSerializeEbP6_iobuf
_ZN9tesseract15UnicharAndFonts15SortByUnicharIdEPKvS2_
_ZN9tesseract15kAlignmentNamesE DATA
_ZN9tesseract15kHyphenLikeUTF8E DATA
_ZN9tesseract16AmbigSpec_zapperEP10ELIST_LINK
_ZN9tesseract16ColPartitionGrid10ClaimBoxesEv
_ZN9tesseract16ColPartitionGrid10FindMarginEibiiiPKNS_12ColPartitionE
_ZN9tesseract16ColPartitionGrid11DeletePartsEv
_ZN9tesseract16ColPartitionGrid11HandleClickEii
_ZN9tesseract16ColPartitionGrid11ReTypeBlobsEP13BLOBNBOX_LIST
_ZN9tesseract16ColPartitionGrid11SetTabStopsEPNS_7TabFindE
_ZN9tesseract16ColPartitionGrid14ReflectInYAxisEv
_ZN9tesseract16ColPartitionGrid15GridFindMarginsEPPNS_15ColPartitionSetE
_ZN9tesseract16ColPartitionGrid15ListFindMarginsEPPNS_15ColPartitionSetEPNS_17ColPartition_LISTE
_ZN9tesseract16ColPartitionGrid15MakeColPartSetsEP13GenericVectorIPNS_15ColPartitionSetEE
_ZN9tesseract16ColPartitionGrid15RecomputeBoundsEiRK6ICOORDS3_S3_
_ZN9tesseract16ColPartitionGrid16SmoothRegionTypeEP3PixRK4TBOXRK6FCOORDbPNS_12ColPartitionE
_ZN9tesseract16ColPartitionGrid18BestMergeCandidateEPKNS_12ColPartitionEPNS_18ColPartition_CLISTEbP19TessResultCallback2IbS3_S3_EPi
_ZN9tesseract16ColPartitionGrid18DeleteUnknownPartsEP8TO_BLOCK
_ZN9tesseract16ColPartitionGrid18FindFigureCaptionsEv
_ZN9tesseract16ColPartitionGrid19FindMergeCandidatesEPKNS_12ColPartitionERK4TBOXbPNS_18ColPartition_CLISTE
_ZN9tesseract16ColPartitionGrid19MakeSingleColumnSetEP19TessResultCallback1IbiE
_ZN9tesseract16ColPartitionGrid20FindPartitionMarginsEPNS_15ColPartitionSetEPNS_12ColPartitionE
_ZN9tesseract16ColPartitionGrid20GridSmoothNeighboursE16BlobTextFlowTypeP3PixRK4TBOXRK6FCOORD
_ZN9tesseract16ColPartitionGrid20SmoothInOneDirectionE16BlobNeighbourDirP3PixRK4TBOXRK6FCOORDbRKNS_12ColPartitionEPi
_ZN9tesseract16ColPartitionGrid21FindPartitionPartnersEbPNS_12ColPartitionE
_ZN9tesseract16ColPartitionGrid21FindPartitionPartnersEv
_ZN9tesseract16ColPartitionGrid22ComputePartitionColorsEP3PixiRK6FCOORD
_ZN9tesseract16ColPartitionGrid22FindVPartitionPartnersEbPNS_12ColPartitionE
_ZN9tesseract16ColPartitionGrid23AccumulatePartDistancesERKNS_12ColPartitionERK6ICOORDRK4TBOXP3PixS9_RK6FCOORDbP13GenericVectorIiE
_ZN9tesseract16ColPartitionGrid23RefinePartitionPartnersEb
_ZN9tesseract16ColPartitionGrid25ExtractPartitionsAsBlocksEP10BLOCK_LISTP13TO_BLOCK_LIST
_ZN9tesseract16ColPartitionGrid25FindOverlappingPartitionsERK4TBOXPKNS_12ColPartitionEPNS_18ColPartition_CLISTE
_ZN9tesseract16ColPartitionGrid26SplitOverlappingPartitionsEPNS_17ColPartition_LISTE
_ZN9tesseract16ColPartitionGrid6DeskewERK6FCOORD
_ZN9tesseract16ColPartitionGrid6MergesEP19TessResultCallback2IbPNS_12ColPartitionEP4TBOXEPS1_IbPKS2_S9_E
_ZN9tesseract16ColPartitionGrid9MergePartEP19TessResultCallback2IbPNS_12ColPartitionEP4TBOXEPS1_IbPKS2_S9_ES3_
_ZN9tesseract16ColPartitionGridC1EiRK6ICOORDS3_
_ZN9tesseract16ColPartitionGridC1Ev
_ZN9tesseract16ColPartitionGridC2EiRK6ICOORDS3_
_ZN9tesseract16ColPartitionGridC2Ev
_ZN9tesseract16ColPartitionGridD0Ev
_ZN9tesseract16ColPartitionGridD1Ev
_ZN9tesseract16ColPartitionGridD2Ev
_ZN9tesseract16CubeSearchObject10CharSampleEii
_ZN9tesseract16CubeSearchObject11NoSpaceCostEi
_ZN9tesseract16CubeSearchObject11NoSpaceCostEii
_ZN9tesseract16CubeSearchObject16RecognizeSegmentEii
_ZN9tesseract16CubeSearchObject16kUseCroppedCharsE DATA
_ZN9tesseract16CubeSearchObject17ComputeSpaceCostsEv
_ZN9tesseract16CubeSearchObject4InitEv
_ZN9tesseract16CubeSearchObject7CharBoxEii
_ZN9tesseract16CubeSearchObject7CleanupEv
_ZN9tesseract16CubeSearchObject7SegmentEv
_ZN9tesseract16CubeSearchObject8SegPtCntEv
_ZN9tesseract16CubeSearchObject9SpaceCostEi
_ZN9tesseract16CubeSearchObjectC1EPNS_15CubeRecoContextEPNS_8CharSampE
_ZN9tesseract16CubeSearchObjectC2EPNS_15CubeRecoContextEPNS_8CharSampE
_ZN9tesseract16CubeSearchObjectD0Ev
_ZN9tesseract16CubeSearchObjectD1Ev
_ZN9tesseract16CubeSearchObjectD2Ev
_ZN9tesseract16CubeTuningParams4LoadESs
_ZN9tesseract16CubeTuningParams4SaveESs
_ZN9tesseract16CubeTuningParams6CreateERKSsS2_
_ZN9tesseract16CubeTuningParamsC1Ev
_ZN9tesseract16CubeTuningParamsC2Ev
_ZN9tesseract16CubeTuningParamsD0Ev
_ZN9tesseract16CubeTuningParamsD1Ev
_ZN9tesseract16CubeTuningParamsD2Ev
_ZN9tesseract16DetectParagraphsEiP13GenericVectorINS_7RowInfoEEPS0_IP4PARAEP9PARA_LISTPS0_IP14ParagraphModelE
_ZN9tesseract16DetectParagraphsEibPKNS_15MutableIteratorEP13GenericVectorIP14ParagraphModelE
_ZN9tesseract16DocQualCallbacks18CountAcceptedBlobsEi
_ZN9tesseract16DocQualCallbacks18CountMatchingBlobsEi
_ZN9tesseract16DocQualCallbacks19AcceptIfGoodQualityEi
_ZN9tesseract16FeatureChebyshev10FeatureCntEv
_ZN9tesseract16FeatureChebyshev15ComputeFeaturesEPNS_8CharSampEPf
_ZN9tesseract16FeatureChebyshev20ComputeFeatureBitmapEPNS_8CharSampE
_ZN9tesseract16FeatureChebyshev21ChebyshevCoefficientsERKSt6vectorIfSaIfEEiPf
_ZN9tesseract16FeatureChebyshev28ComputeChebyshevCoefficientsEPNS_8CharSampEPf
_ZN9tesseract16FeatureChebyshevC1EPNS_12TuningParamsE
_ZN9tesseract16FeatureChebyshevC2EPNS_12TuningParamsE
_ZN9tesseract16FeatureChebyshevD0Ev
_ZN9tesseract16FeatureChebyshevD1Ev
_ZN9tesseract16FeatureChebyshevD2Ev
_ZN9tesseract16ImageThresholder10GetPixRectEv
_ZN9tesseract16ImageThresholder12SetRectangleEiiii
_ZN9tesseract16ImageThresholder13GetImageSizesEPiS1_S1_S1_S1_S1_
_ZN9tesseract16ImageThresholder14GetPixRectGreyEv
_ZN9tesseract16ImageThresholder14ThresholdToPixEPP3Pix
_ZN9tesseract16ImageThresholder20GetPixRectThresholdsEv
_ZN9tesseract16ImageThresholder4InitEv
_ZN9tesseract16ImageThresholder5ClearEv
_ZN9tesseract16ImageThresholder8SetImageEPK3Pix
_ZN9tesseract16ImageThresholder8SetImageEPKhiiii
_ZN9tesseract16ImageThresholderC1Ev
_ZN9tesseract16ImageThresholderC2Ev
_ZN9tesseract16ImageThresholderD0Ev
_ZN9tesseract16ImageThresholderD1Ev
_ZN9tesseract16ImageThresholderD2Ev
_ZN9tesseract16LeftoverSegmentsERK13GenericVectorINS_19RowScratchRegistersEEPS0_INS_8IntervalEEii
_ZN9tesseract16TESS_CHAR_zapperEP10ELIST_LINK
_ZN9tesseract16TabVector_zapperEP11ELIST2_LINK
_ZN9tesseract16TessHOcrRenderer15AddImageHandlerEPNS_11TessBaseAPIE
_ZN9tesseract16TessHOcrRenderer18EndDocumentHandlerEv
_ZN9tesseract16TessHOcrRenderer20BeginDocumentHandlerEv
_ZN9tesseract16TessHOcrRendererC1Ev
_ZN9tesseract16TessHOcrRendererC2Ev
_ZN9tesseract16TessHOcrRendererD0Ev
_ZN9tesseract16TessHOcrRendererD1Ev
_ZN9tesseract16TessTextRenderer15AddImageHandlerEPNS_11TessBaseAPIE
_ZN9tesseract16TessTextRendererC1Ev
_ZN9tesseract16TessTextRendererC2Ev
_ZN9tesseract16TessTextRendererD0Ev
_ZN9tesseract16TessTextRendererD1Ev
_ZN9tesseract16TessUnlvRenderer15AddImageHandlerEPNS_11TessBaseAPIE
_ZN9tesseract16TessUnlvRendererC1Ev
_ZN9tesseract16TessUnlvRendererC2Ev
_ZN9tesseract16TessUnlvRendererD0Ev
_ZN9tesseract16TessUnlvRendererD1Ev
_ZN9tesseract16char_box_to_tboxEP3Box4TBOXi
_ZN9tesseract16kTextordDebugPixE DATA
_ZN9tesseract17AlignedBlobParams12set_verticalEii
_ZN9tesseract17AlignedBlobParamsC1Eiii
_ZN9tesseract17AlignedBlobParamsC1EiiiiiiNS_12TabAlignmentE
_ZN9tesseract17AlignedBlobParamsC2Eiii
_ZN9tesseract17AlignedBlobParamsC2EiiiiiiNS_12TabAlignmentE
_ZN9tesseract17CalculateTabStopsEP13GenericVectorINS_19RowScratchRegistersEEiiiPS0_INS_7ClusterEES6_
_ZN9tesseract17ColPartition_LIST9deep_copyEPKS0_PFPNS_12ColPartitionEPKS3_E
_ZN9tesseract17ColSegment_zapperEP10ELIST_LINK
_ZN9tesseract17CubeLineSegmenter11LineSegmentEv
_ZN9tesseract17CubeLineSegmenter13ValidityRatioEP3PixP3Box
_ZN9tesseract17CubeLineSegmenter15VerticalClosingEP3PixiPP4Boxa
_ZN9tesseract17CubeLineSegmenter15kMaxConnCompHgtE DATA
_ZN9tesseract17CubeLineSegmenter15kMaxConnCompWidE DATA
_ZN9tesseract17CubeLineSegmenter18EstimateFontParamsEv
_ZN9tesseract17CubeLineSegmenter18kMaxValidLineRatioE DATA
_ZN9tesseract17CubeLineSegmenter19ComputeLineConCompsEP3PixP3BoxPP4Pixa
_ZN9tesseract17CubeLineSegmenter19kLineSepMorphMinHgtE DATA
_ZN9tesseract17CubeLineSegmenter19kMaxHorzAspectRatioE DATA
_ZN9tesseract17CubeLineSegmenter19kMaxVertAspectRatioE DATA
_ZN9tesseract17CubeLineSegmenter21kMinValidLineHgtRatioE DATA
_ZN9tesseract17CubeLineSegmenter4InitEv
_ZN9tesseract17CubeLineSegmenter4LineEiPP3Box
_ZN9tesseract17CubeLineSegmenter7CleanUpEP3Pix
_ZN9tesseract17CubeLineSegmenter7kMinHgtE DATA
_ZN9tesseract17CubeLineSegmenter7kMinWidE DATA
_ZN9tesseract17CubeLineSegmenter8AddLinesEP4Pixa
_ZN9tesseract17CubeLineSegmenter8IndexRTLEP4Pixa
_ZN9tesseract17CubeLineSegmenter8PixUnionEP3PixP3BoxS2_S4_
_ZN9tesseract17CubeLineSegmenter8Pixa2PixEP4PixaPP3Box
_ZN9tesseract17CubeLineSegmenter8Pixa2PixEP4PixaPP3Boxii
_ZN9tesseract17CubeLineSegmenter8kHgtBinsE DATA
_ZN9tesseract17CubeLineSegmenter9CrackLineEP3PixP3Box
_ZN9tesseract17CubeLineSegmenter9CrackLineEP3PixP3Boxi
_ZN9tesseract17CubeLineSegmenter9FindLinesEv
_ZN9tesseract17CubeLineSegmenter9MergeLineEP3PixP3BoxP4PixaP5Boxaa
_ZN9tesseract17CubeLineSegmenter9SmallLineEP3Box
_ZN9tesseract17CubeLineSegmenter9SplitLineEP3PixP3Box
_ZN9tesseract17CubeLineSegmenter9ValidLineEP3PixP3Box
_ZN9tesseract17CubeLineSegmenterC1EPNS_15CubeRecoContextEP3Pix
_ZN9tesseract17CubeLineSegmenterC2EPNS_15CubeRecoContextEP3Pix
_ZN9tesseract17CubeLineSegmenterD1Ev
_ZN9tesseract17CubeLineSegmenterD2Ev
_ZN9tesseract17GeometricClassifyEiP13GenericVectorINS_19RowScratchRegistersEEiiPNS_15ParagraphTheoryE
_ZN9tesseract17InitializeRowInfoEbRKNS_15MutableIteratorEPNS_7RowInfoE
_ZN9tesseract17LMConsistencyInfo25ComputeXheightConsistencyEPK11BLOB_CHOICEb
_ZN9tesseract17LTRResultIterator16SetLineSeparatorEPKc
_ZN9tesseract17LTRResultIterator21SetParagraphSeparatorEPKc
_ZN9tesseract17LTRResultIteratorC1EP8PAGE_RESPNS_9TesseractEiiiiii
_ZN9tesseract17LTRResultIteratorC2EP8PAGE_RESPNS_9TesseractEiiiiii
_ZN9tesseract17LTRResultIteratorD0Ev
_ZN9tesseract17LTRResultIteratorD1Ev
_ZN9tesseract17LTRResultIteratorD2Ev
_ZN9tesseract17LikelyListNumeralERK6STRING
_ZN9tesseract17MarkRowsWithModelEP13GenericVectorINS_19RowScratchRegistersEEiiPK14ParagraphModelbi
_ZN9tesseract17ScriptPosToStringENS_9ScriptPosE
_ZN9tesseract17TextSupportsBreakERKNS_19RowScratchRegistersES2_
_ZN9tesseract17TrainingSampleSet10KillSampleEPNS_14TrainingSampleE
_ZN9tesseract17TrainingSampleSet11DeSerializeEbP6_iobuf
_ZN9tesseract17TrainingSampleSet13FontClassInfo11DeSerializeEbP6_iobuf
_ZN9tesseract17TrainingSampleSet13FontClassInfoC1Ev
_ZN9tesseract17TrainingSampleSet13FontClassInfoC2Ev
_ZN9tesseract17TrainingSampleSet13FontClassInfoD1Ev
_ZN9tesseract17TrainingSampleSet13IndexFeaturesERKNS_15IntFeatureSpaceE
_ZN9tesseract17TrainingSampleSet13MutableSampleEiii
_ZN9tesseract17TrainingSampleSet14DeleteOutliersERKNS_15IntFeatureSpaceEb
_ZN9tesseract17TrainingSampleSet14LoadUnicharsetEPKc
_ZN9tesseract17TrainingSampleSet14SetupFontIdMapEv
_ZN9tesseract17TrainingSampleSet15ClusterDistanceEiiiiRKNS_13IntFeatureMapE
_ZN9tesseract17TrainingSampleSet15UnicharDistanceERKNS_15UnicharAndFontsES3_bRKNS_13IntFeatureMapE
_ZN9tesseract17TrainingSampleSet16DeleteableSampleEPKNS_14TrainingSampleE
_ZN9tesseract17TrainingSampleSet17DeleteDeadSamplesEv
_ZN9tesseract17TrainingSampleSet20ComputeCloudFeaturesEi
_ZN9tesseract17TrainingSampleSet22OrganizeByFontAndClassEv
_ZN9tesseract17TrainingSampleSet23ComputeCanonicalSamplesERKNS_13IntFeatureMapEb
_ZN9tesseract17TrainingSampleSet24ComputeCanonicalFeaturesEv
_ZN9tesseract17TrainingSampleSet28ReplicateAndRandomizeSamplesEv
_ZN9tesseract17TrainingSampleSet9AddSampleEPKcPNS_14TrainingSampleE
_ZN9tesseract17TrainingSampleSet9AddSampleEiPNS_14TrainingSampleE
_ZN9tesseract17TrainingSampleSetC1ERKNS_13FontInfoTableE
_ZN9tesseract17TrainingSampleSetC2ERKNS_13FontInfoTableE
_ZN9tesseract17TrainingSampleSetD1Ev
_ZN9tesseract17TrainingSampleSetD2Ev
_ZN9tesseract17UniLikelyListItemEPK10UNICHARSETPK11WERD_CHOICE
_ZN9tesseract17ViterbiStateEntry7CompareEPKvS2_
_ZN9tesseract17ViterbiStateEntryD1Ev
_ZN9tesseract17WordListLangModel11AddString32EPKi
_ZN9tesseract17WordListLangModel12WordVariantsERKNS_7CharSetEPK10UNICHARSETSbIiSt11char_traitsIiESaIiEEPSt6vectorIP11WERD_CHOICESaISD_EE
_ZN9tesseract17WordListLangModel12WordVariantsERKNS_7CharSetESbIiSt11char_traitsIiESaIiEEP11WERD_CHOICES7_PSt6vectorIS9_SaIS9_EE
_ZN9tesseract17WordListLangModel13IsLeadingPuncEi
_ZN9tesseract17WordListLangModel14IsTrailingPuncEi
_ZN9tesseract17WordListLangModel15IsValidSequenceEPKibPPNS_11LangModEdgeE
_ZN9tesseract17WordListLangModel4InitEv
_ZN9tesseract17WordListLangModel4RootEv
_ZN9tesseract17WordListLangModel7CleanupEv
_ZN9tesseract17WordListLangModel7IsDigitEi
_ZN9tesseract17WordListLangModel8GetEdgesEPNS_11CharAltListEPNS_11LangModEdgeEPi
_ZN9tesseract17WordListLangModel9AddStringEPKc
_ZN9tesseract17WordListLangModelC1EPNS_15CubeRecoContextE
_ZN9tesseract17WordListLangModelC2EPNS_15CubeRecoContextE
_ZN9tesseract17WordListLangModelD0Ev
_ZN9tesseract17WordListLangModelD1Ev
_ZN9tesseract17WordListLangModelD2Ev
_ZN9tesseract17read_spacing_infoEP6_iobufPNS_8FontInfoEb
_ZN9tesseract18CubeTessClassifier21UnicharClassifySampleERKNS_14TrainingSampleEP3PixiiP13GenericVectorINS_13UnicharRatingEE
_ZN9tesseract18CubeTessClassifierC1EPNS_9TesseractE
_ZN9tesseract18CubeTessClassifierC2EPNS_9TesseractE
_ZN9tesseract18CubeTessClassifierD0Ev
_ZN9tesseract18CubeTessClassifierD1Ev
_ZN9tesseract18CubeTessClassifierD2Ev
_ZN9tesseract18DawgPositionVectorD1Ev
_ZN9tesseract18EquationDetectBase17RenderSpecialTextEP3PixP8BLOBNBOX
_ZN9tesseract18EquationDetectBaseC1Ev
_ZN9tesseract18EquationDetectBaseC2Ev
_ZN9tesseract18EquationDetectBaseD0Ev
_ZN9tesseract18EquationDetectBaseD1Ev
_ZN9tesseract18EquationDetectBaseD2Ev
_ZN9tesseract18LanguageModelState5ClearEv
_ZN9tesseract18LanguageModelState5PrintEPKc
_ZN9tesseract18LeftWordAttributesEPK10UNICHARSETPK11WERD_CHOICERK6STRINGPbS9_S9_
_ZN9tesseract18MarkStrongEvidenceEP13GenericVectorINS_19RowScratchRegistersEEii
_ZN9tesseract18NormalizeDirectionEhRK6FCOORDRK6DENORMPS4_
_ZN9tesseract18ShiroRekhaSplitter12PerformCloseEP3Pixi
_ZN9tesseract18ShiroRekhaSplitter12set_orig_pixEP3Pix
_ZN9tesseract18ShiroRekhaSplitter13GetModeHeightEP3Pix
_ZN9tesseract18ShiroRekhaSplitter15GetXheightForCCEP3Box
_ZN9tesseract18ShiroRekhaSplitter19SplitWordShiroRekhaENS0_13SplitStrategyEP3PixiiiP4Boxa
_ZN9tesseract18ShiroRekhaSplitter21GetShiroRekhaYExtentsEP3PixPiS3_S3_
_ZN9tesseract18ShiroRekhaSplitter31RefreshSegmentationWithNewBlobsEP11C_BLOB_LIST
_ZN9tesseract18ShiroRekhaSplitter5ClearEv
_ZN9tesseract18ShiroRekhaSplitter5SplitEb
_ZN9tesseract18ShiroRekhaSplitterC1Ev
_ZN9tesseract18ShiroRekhaSplitterC2Ev
_ZN9tesseract18ShiroRekhaSplitterD0Ev
_ZN9tesseract18ShiroRekhaSplitterD1Ev
_ZN9tesseract18ShiroRekhaSplitterD2Ev
_ZN9tesseract18TabConstraint_LIST9deep_copyEPKS0_PFPNS_13TabConstraintEPKS3_E
_ZN9tesseract18TessResultRenderer10AppendDataEPKci
_ZN9tesseract18TessResultRenderer11EndDocumentEv
_ZN9tesseract18TessResultRenderer12AppendStringEPKc
_ZN9tesseract18TessResultRenderer13BeginDocumentEPKc
_ZN9tesseract18TessResultRenderer15AddErrorHandlerEPNS_11TessBaseAPIE
_ZN9tesseract18TessResultRenderer18EndDocumentHandlerEv
_ZN9tesseract18TessResultRenderer20BeginDocumentHandlerEv
_ZN9tesseract18TessResultRenderer21ReserveAdditionalDataEi
_ZN9tesseract18TessResultRenderer6insertEPS0_
_ZN9tesseract18TessResultRenderer8AddErrorEPNS_11TessBaseAPIE
_ZN9tesseract18TessResultRenderer8AddImageEPNS_11TessBaseAPIE
_ZN9tesseract18TessResultRenderer9ResetDataEv
_ZN9tesseract18TessResultRendererC1EPKcS2_
_ZN9tesseract18TessResultRendererC2EPKcS2_
_ZN9tesseract18TessResultRendererD0Ev
_ZN9tesseract18TessResultRendererD1Ev
_ZN9tesseract18TessResultRendererD2Ev
_ZN9tesseract18TextlineProjection10PadBlobBoxEP8BLOBNBOXP4TBOX
_ZN9tesseract18TextlineProjection12ProjectBlobsEP13BLOBNBOX_LISTRK6FCOORDRK4TBOXP3Pix
_ZN9tesseract18TextlineProjection15PlotGradedBlobsEP13BLOBNBOX_LISTP10ScrollView
_ZN9tesseract18TextlineProjection19ConstructProjectionEP8TO_BLOCKRK6FCOORDP3Pix
_ZN9tesseract18TextlineProjection22IncrementRectangle8BitERK4TBOX
_ZN9tesseract18TextlineProjectionC1Ei
_ZN9tesseract18TextlineProjectionC2Ei
_ZN9tesseract18TextlineProjectionD1Ev
_ZN9tesseract18TextlineProjectionD2Ev
_ZN9tesseract18UnicodeSpanSkipper10SkipDigitsEi
_ZN9tesseract18UnicodeSpanSkipper10SkipRomansEi
_ZN9tesseract18UnicodeSpanSkipper8SkipPuncEi
_ZN9tesseract18UnicodeSpanSkipper9SkipAlphaEi
_ZN9tesseract18kUTF8LineSeparatorE DATA
_ZN9tesseract18write_spacing_infoEP6_iobufRKNS_8FontInfoE
_ZN9tesseract19AsciiLikelyListItemERK6STRING
_ZN9tesseract19ColPartition_zapperEP11ELIST2_LINK
_ZN9tesseract19DiscardUnusedModelsERK13GenericVectorINS_19RowScratchRegistersEEPNS_15ParagraphTheoryE
_ZN9tesseract19ModelStrongEvidenceEiP13GenericVectorINS_19RowScratchRegistersEEiibPNS_15ParagraphTheoryE
_ZN9tesseract19RightWordAttributesEPK10UNICHARSETPK11WERD_CHOICERK6STRINGPbS9_S9_
_ZN9tesseract19RowScratchRegisters11AddBodyLineEPK14ParagraphModel
_ZN9tesseract19RowScratchRegisters11SetBodyLineEv
_ZN9tesseract19RowScratchRegisters12AddStartLineEPK14ParagraphModel
_ZN9tesseract19RowScratchRegisters12SetStartLineEv
_ZN9tesseract19RowScratchRegisters23AppendDebugHeaderFieldsEP13GenericVectorI6STRINGE
_ZN9tesseract19RowScratchRegisters28DiscardNonMatchingHypothesesERK17GenericVectorEqEqIPK14ParagraphModelE
_ZN9tesseract19RowScratchRegisters4InitERKNS_7RowInfoE
_ZN9tesseract19TabVector_c1_zapperEPv
_ZN9tesseract19TessBoxTextRenderer15AddImageHandlerEPNS_11TessBaseAPIE
_ZN9tesseract19TessBoxTextRendererC1Ev
_ZN9tesseract19TessBoxTextRendererC2Ev
_ZN9tesseract19TessBoxTextRendererD0Ev
_ZN9tesseract19TessBoxTextRendererD1Ev
_ZN9tesseract19TrainingSample_LIST9deep_copyEPKS0_PFPNS_14TrainingSampleEPKS3_E
_ZN9tesseract19WorkingPartSet_LIST9deep_copyEPKS0_PFPNS_14WorkingPartSetEPKS3_E
_ZN9tesseract19kApostropheLikeUTF8E DATA
_ZN9tesseract19make_tesseract_blobEffffbP3Pix
_ZN9tesseract19textord_show_tablesE DATA
_ZN9tesseract20BlobToTrainingSampleERK5TBLOBbP20INT_FX_RESULT_STRUCTP13GenericVectorI18INT_FEATURE_STRUCTE
_ZN9tesseract20ColPartitionSet_LIST9deep_copyEPKS0_PFPNS_15ColPartitionSetEPKS3_E
_ZN9tesseract20ColSegment_c1_zapperEPv
_ZN9tesseract20LikelyParagraphStartERKNS_19RowScratchRegistersES2_
_ZN9tesseract20LikelyParagraphStartERKNS_19RowScratchRegistersES2_NS_22ParagraphJustificationE
_ZN9tesseract20TabConstraint_zapperEP10ELIST_LINK
_ZN9tesseract20kUniversalAmbigsFileE DATA
_ZN9tesseract21CharClassifierFactory6CreateERKSsS2_PNS_9LangModelEPNS_7CharSetEPNS_12TuningParamsE
_ZN9tesseract21ConvNetCharClassifier13SetLearnParamEPcf
_ZN9tesseract21ConvNetCharClassifier15LoadFoldingSetsERKSsS2_PNS_9LangModelE
_ZN9tesseract21ConvNetCharClassifier4FoldEv
_ZN9tesseract21ConvNetCharClassifier4InitERKSsS2_PNS_9LangModelE
_ZN9tesseract21ConvNetCharClassifier5TrainEPNS_8CharSampEi
_ZN9tesseract21ConvNetCharClassifier6SetNetEPNS_9NeuralNetE
_ZN9tesseract21ConvNetCharClassifier7RunNetsEPNS_8CharSampE
_ZN9tesseract21ConvNetCharClassifier8CharCostEPNS_8CharSampE
_ZN9tesseract21ConvNetCharClassifier8ClassifyEPNS_8CharSampE
_ZN9tesseract21ConvNetCharClassifier8LoadNetsERKSsS2_
_ZN9tesseract21ConvNetCharClassifierC1EPNS_7CharSetEPNS_12TuningParamsEPNS_11FeatureBaseE
_ZN9tesseract21ConvNetCharClassifierC2EPNS_7CharSetEPNS_12TuningParamsEPNS_11FeatureBaseE
_ZN9tesseract21ConvNetCharClassifierD0Ev
_ZN9tesseract21ConvNetCharClassifierD1Ev
_ZN9tesseract21ConvNetCharClassifierD2Ev
_ZN9tesseract21FirstWordWouldHaveFitERKNS_19RowScratchRegistersES2_
_ZN9tesseract21FirstWordWouldHaveFitERKNS_19RowScratchRegistersES2_NS_22ParagraphJustificationE
_ZN9tesseract21FontSetDeleteCallbackENS_7FontSetE
_ZN9tesseract21LikelyListMarkUnicodeEi
_ZN9tesseract21ParagraphModelSmearer19CalculateOpenModelsEii
_ZN9tesseract21ParagraphModelSmearer5SmearEv
_ZN9tesseract21ParagraphModelSmearerC1EP13GenericVectorINS_19RowScratchRegistersEEiiPNS_15ParagraphTheoryE
_ZN9tesseract21ParagraphModelSmearerC2EP13GenericVectorINS_19RowScratchRegistersEEiiPNS_15ParagraphTheoryE
_ZN9tesseract21TesseractCubeCombiner14CombineResultsEP8WERD_RESPNS_10CubeObjectE
_ZN9tesseract21TesseractCubeCombiner14CombineResultsEP8WERD_RESPNS_10CubeObjectEPNS_11WordAltListE
_ZN9tesseract21TesseractCubeCombiner14CompareStringsERKSsS2_bb
_ZN9tesseract21TesseractCubeCombiner15LoadCombinerNetEv
_ZN9tesseract21TesseractCubeCombiner15NormalizeStringERKSsbb
_ZN9tesseract21TesseractCubeCombiner23ComputeCombinerFeaturesERKSsiPNS_10CubeObjectEPNS_11WordAltListEPSt6vectorIdSaIdEEPb
_ZN9tesseract21TesseractCubeCombiner9ValidWordERKSs
_ZN9tesseract21TesseractCubeCombinerC1EPNS_15CubeRecoContextE
_ZN9tesseract21TesseractCubeCombinerC2EPNS_15CubeRecoContextE
_ZN9tesseract21TesseractCubeCombinerD0Ev
_ZN9tesseract21TesseractCubeCombinerD1Ev
_ZN9tesseract21TesseractCubeCombinerD2Ev
_ZN9tesseract21TrainingSample_zapperEP10ELIST_LINK
_ZN9tesseract21WorkingPartSet_zapperEP10ELIST_LINK
_ZN9tesseract22ColPartitionSet_zapperEP10ELIST_LINK
_ZN9tesseract22ColPartition_c1_zapperEPv
_ZN9tesseract22FontInfoDeleteCallbackENS_8FontInfoE
_ZN9tesseract22StrongEvidenceClassifyEiP13GenericVectorINS_19RowScratchRegistersEEiiPNS_15ParagraphTheoryE
_ZN9tesseract22TraceBlockOnReducedPixEP5BLOCKi6ICOORDPiS3_
_ZN9tesseract22ViterbiStateEntry_LIST9deep_copyEPKS0_PFPNS_17ViterbiStateEntryEPKS3_E
_ZN9tesseract23ClearFeatureSpaceWindowE11NORM_METHODP10ScrollView
_ZN9tesseract23ParagraphModelByOutlineEiPK13GenericVectorINS_19RowScratchRegistersEEiii
_ZN9tesseract23kUTF8ParagraphSeparatorE DATA
_ZN9tesseract24DowngradeWeakestToCrownsEiPNS_15ParagraphTheoryEP13GenericVectorINS_19RowScratchRegistersEE
_ZN9tesseract24TraceOutlineOnReducedPixEP9C_OUTLINEi6ICOORDPiS3_
_ZN9tesseract24ViterbiStateEntry_zapperEP10ELIST_LINK
_ZN9tesseract25SeparateSimpleLeaderLinesEP13GenericVectorINS_19RowScratchRegistersEEiiPNS_15ParagraphTheoryE
_ZN9tesseract25textord_dump_table_imagesE DATA
_ZN9tesseract26ksizeofUniversalAmbigsFileE DATA
_ZN9tesseract27ParamsTrainingFeatureByNameEPKc
_ZN9tesseract27textord_tabfind_find_tablesE DATA
_ZN9tesseract27textord_tabfind_show_blocksE DATA
_ZN9tesseract27textord_tablefind_show_markE DATA
_ZN9tesseract28CanonicalizeDetectionResultsEP13GenericVectorIP4PARAEP9PARA_LIST
_ZN9tesseract28textord_tabfind_show_columnsE DATA
_ZN9tesseract28textord_tablefind_show_statsE DATA
_ZN9tesseract29HybridNeuralNetCharClassifier13SetLearnParamEPcf
_ZN9tesseract29HybridNeuralNetCharClassifier15LoadFoldingSetsERKSsS2_PNS_9LangModelE
_ZN9tesseract29HybridNeuralNetCharClassifier4FoldEv
_ZN9tesseract29HybridNeuralNetCharClassifier4InitERKSsS2_PNS_9LangModelE
_ZN9tesseract29HybridNeuralNetCharClassifier5TrainEPNS_8CharSampEi
_ZN9tesseract29HybridNeuralNetCharClassifier6SetNetEPNS_9NeuralNetE
_ZN9tesseract29HybridNeuralNetCharClassifier7RunNetsEPNS_8CharSampE
_ZN9tesseract29HybridNeuralNetCharClassifier8CharCostEPNS_8CharSampE
_ZN9tesseract29HybridNeuralNetCharClassifier8ClassifyEPNS_8CharSampE
_ZN9tesseract29HybridNeuralNetCharClassifier8LoadNetsERKSsS2_
_ZN9tesseract29HybridNeuralNetCharClassifierC1EPNS_7CharSetEPNS_12TuningParamsEPNS_11FeatureBaseE
_ZN9tesseract29HybridNeuralNetCharClassifierC2EPNS_7CharSetEPNS_12TuningParamsEPNS_11FeatureBaseE
_ZN9tesseract29HybridNeuralNetCharClassifierD0Ev
_ZN9tesseract29HybridNeuralNetCharClassifierD1Ev
_ZN9tesseract29HybridNeuralNetCharClassifierD2Ev
_ZN9tesseract29textord_tabfind_vertical_textE DATA
_ZN9tesseract30textord_tabfind_show_color_fitE DATA
_ZN9tesseract30textord_tabfind_show_finaltabsE DATA
_ZN9tesseract31InternalParagraphModelByOutlineEPK13GenericVectorINS_19RowScratchRegistersEEiiiPb
_ZN9tesseract31textord_tabfind_show_partitionsE DATA
_ZN9tesseract32textord_tabfind_show_initialtabsE DATA
_ZN9tesseract33textord_tabfind_only_strokewidthsE DATA
_ZN9tesseract33textord_tabfind_show_reject_blobsE DATA
_ZN9tesseract33textord_tabfind_show_strokewidthsE DATA
_ZN9tesseract34RecomputeMarginsAndClearHypothesesEP13GenericVectorINS_19RowScratchRegistersEEiii
_ZN9tesseract34textord_tablefind_recognize_tablesE DATA
_ZN9tesseract35textord_tabfind_force_vertical_textE DATA
_ZN9tesseract35textord_tabfind_vertical_text_ratioE DATA
_ZN9tesseract36InitializeTextAndBoxesPreRecognitionERKNS_15MutableIteratorEPNS_7RowInfoE
_ZN9tesseract36textord_tabfind_aligned_gap_fractionE DATA
_ZN9tesseract36textord_tabvector_vertical_box_ratioE DATA
_ZN9tesseract38GeometricClassifyThreeTabStopTextBlockEiRNS_24GeometricClassifierStateEPNS_15ParagraphTheoryE
_ZN9tesseract39textord_tabfind_show_initial_partitionsE DATA
_ZN9tesseract39textord_tabfind_vertical_horizontal_mixE DATA
_ZN9tesseract39textord_tabvector_vertical_gap_fractionE DATA
_ZN9tesseract40ConvertHypothesizedModelRunsToParagraphsEiRK13GenericVectorINS_19RowScratchRegistersEEPS0_IP4PARAEPNS_15ParagraphTheoryE
_ZN9tesseract4Bmp810tan_table_E DATA
_ZN9tesseract4Bmp813FreeBmpBufferEPPh
_ZN9tesseract4Bmp813FreeBmpBufferEPPj
_ZN9tesseract4Bmp815ComputeTanTableEv
_ZN9tesseract4Bmp815CreateBmpBufferEh
_ZN9tesseract4Bmp815CreateBmpBufferEiih
_ZN9tesseract4Bmp815LoadFromRawDataEPh
_ZN9tesseract4Bmp816FromCharDumpFileEP6_iobuf
_ZN9tesseract4Bmp816FromCharDumpFileEPNS_10CachedFileE
_ZN9tesseract4Bmp817HorizontalDeslantEPd
_ZN9tesseract4Bmp818kDeslantAngleCountE DATA
_ZN9tesseract4Bmp820LoadFromCharDumpFileEP6_iobuf
_ZN9tesseract4Bmp820LoadFromCharDumpFileEPNS_10CachedFileE
_ZN9tesseract4Bmp820LoadFromCharDumpFileEPPh
_ZN9tesseract4Bmp84CropEPiS1_S1_S1_
_ZN9tesseract4Bmp85ClearEv
_ZN9tesseract4Bmp87DeslantEv
_ZN9tesseract4Bmp89ScaleFromEPS0_b
_ZN9tesseract4Bmp8C1Ett
_ZN9tesseract4Bmp8C2Ett
_ZN9tesseract4Bmp8D1Ev
_ZN9tesseract4Bmp8D2Ev
_ZN9tesseract4Dawg4initENS_8DawgTypeERK6STRING12PermuterTypeii
_ZN9tesseract4Dict11adjust_wordEP11WERD_CHOICEbNS_22XHeightConsistencyEnumEfbb
_ZN9tesseract4Dict12ReplaceAmbigEiiiP11WERD_CHOICEP6MATRIX
_ZN9tesseract4Dict14append_choicesEPKcRK13GenericVectorIP16BLOB_CHOICE_LISTERK11BLOB_CHOICEiPK18CHAR_FRAGMENT_INFOP11WERD_CHOICEPfSH_SG_PiPv
_ZN9tesseract4Dict15GlobalDawgCacheEv
_ZN9tesseract4Dict15permute_choicesEPKcRK13GenericVectorIP16BLOB_CHOICE_LISTEiPK18CHAR_FRAGMENT_INFOP11WERD_CHOICEPfSE_SD_PiPv
_ZN9tesseract4Dict15set_hyphen_wordERK11WERD_CHOICERKNS_18DawgPositionVectorE
_ZN9tesseract4Dict16AcceptableChoiceERK11WERD_CHOICENS_22XHeightConsistencyEnumE
_ZN9tesseract4Dict16AcceptableResultEP8WERD_RES
_ZN9tesseract4Dict16NoDangerousAmbigEP11WERD_CHOICEP13GenericVectorI12DANGERR_INFOEbP6MATRIX
_ZN9tesseract4Dict16absolute_garbageERK11WERD_CHOICERK10UNICHARSET
_ZN9tesseract4Dict17add_document_wordERK11WERD_CHOICE
_ZN9tesseract4Dict17reset_hyphen_varsEb
_ZN9tesseract4Dict17valid_punctuationERK11WERD_CHOICE
_ZN9tesseract4Dict18EndDangerousAmbigsEv
_ZN9tesseract4Dict18SettupStopperPass1Ev
_ZN9tesseract4Dict18SettupStopperPass2Ev
_ZN9tesseract4Dict18UniformCertaintiesERK11WERD_CHOICE
_ZN9tesseract4Dict18go_deeper_dawg_fxnEPKcRK13GenericVectorIP16BLOB_CHOICE_LISTEiPK18CHAR_FRAGMENT_INFObP11WERD_CHOICEPfSE_SD_PiPv
_ZN9tesseract4Dict19fragment_state_okayEiffPK18CHAR_FRAGMENT_INFOPKciPS1_
_ZN9tesseract4Dict23dawg_permute_and_selectERK13GenericVectorIP16BLOB_CHOICE_LISTEf
_ZN9tesseract4Dict24LengthOfShortestAlphaRunERK11WERD_CHOICE
_ZN9tesseract4Dict26def_probability_in_contextEPKcS2_iS2_i
_ZN9tesseract4Dict3EndEv
_ZN9tesseract4Dict4LoadEPNS_9DawgCacheE
_ZN9tesseract4Dict7case_okERK11WERD_CHOICERK10UNICHARSET
_ZN9tesseract4DictC1EPNS_6CCUtilE
_ZN9tesseract4DictC2EPNS_6CCUtilE
_ZN9tesseract4DictD1Ev
_ZN9tesseract4DictD2Ev
_ZN9tesseract4Trie10sort_edgesEP13GenericVectorIyE
_ZN9tesseract4Trie12trie_to_dawgEv
_ZN9tesseract4Trie13add_word_listERK13GenericVectorI6STRINGERK10UNICHARSET
_ZN9tesseract4Trie13new_dawg_nodeEv
_ZN9tesseract4Trie14read_word_listEPKcRK10UNICHARSETNS0_16RTLReversePolicyEP13GenericVectorI6STRINGE
_ZN9tesseract4Trie15add_word_endingEPyxbi
_ZN9tesseract4Trie16add_edge_linkageExxbibi
_ZN9tesseract4Trie16add_word_to_dawgERK11WERD_CHOICEPK13GenericVectorIbE
_ZN9tesseract4Trie17read_pattern_listEPKcRK10UNICHARSET
_ZN9tesseract4Trie17reduce_node_inputExPb
_ZN9tesseract4Trie19initialize_patternsEP10UNICHARSET
_ZN9tesseract4Trie19kPuncPatternUnicodeE DATA
_ZN9tesseract4Trie19remove_edge_linkageExxibi
_ZN9tesseract4Trie20kAlphaPatternUnicodeE DATA
_ZN9tesseract4Trie20kDigitPatternUnicodeE DATA
_ZN9tesseract4Trie20kLowerPatternUnicodeE DATA
_ZN9tesseract4Trie20kUpperPatternUnicodeE DATA
_ZN9tesseract4Trie21reduce_lettered_edgesExixP13GenericVectorIyEPb
_ZN9tesseract4Trie22read_and_add_word_listEPKcRK10UNICHARSETNS0_16RTLReversePolicyE
_ZN9tesseract4Trie23get_reverse_policy_nameENS0_16RTLReversePolicyE
_ZN9tesseract4Trie23kAlphanumPatternUnicodeE DATA
_ZN9tesseract4Trie25eliminate_redundant_edgesExRKyS2_
_ZN9tesseract4Trie26character_class_to_patternEc
_ZN9tesseract4Trie5clearEv
_ZN9tesseract4TrieD0Ev
_ZN9tesseract4TrieD1Ev
_ZN9tesseract4kLRME DATA
_ZN9tesseract4kPDFE DATA
_ZN9tesseract4kRLEE DATA
_ZN9tesseract4kRLME DATA
_ZN9tesseract4precEd
_ZN9tesseract5CUtilC1Ev
_ZN9tesseract5CUtilC2Ev
_ZN9tesseract5CUtilD0Ev
_ZN9tesseract5CUtilD1Ev
_ZN9tesseract5CUtilD2Ev
_ZN9tesseract5ParamC2EPKcS2_b
_ZN9tesseract5Shape10AddToShapeEii
_ZN9tesseract5Shape11DeSerializeEbP6_iobuf
_ZN9tesseract5Shape12SortUnicharsEv
_ZN9tesseract5Shape15IsEqualUnicharsEPS0_
_ZN9tesseract5Shape8AddShapeERKS0_
_ZN9tesseract5TFile4OpenEP6_iobufx
_ZN9tesseract5TFile4OpenEPKci
_ZN9tesseract5TFile4OpenERK6STRINGPFbS3_P13GenericVectorIcEE
_ZN9tesseract5TFile5FGetsEPci
_ZN9tesseract5TFile5FReadEPvii
_ZN9tesseract5TFileC1Ev
_ZN9tesseract5TFileC2Ev
_ZN9tesseract5dist2Eiiii
_ZN9tesseract6BBGridI8BLOBNBOX14BLOBNBOX_CLIST13BLOBNBOX_C_ITE10InsertBBoxEbbPS1_
_ZN9tesseract6BBGridI8BLOBNBOX14BLOBNBOX_CLIST13BLOBNBOX_C_ITE10MakeWindowEiiPKc
_ZN9tesseract6BBGridI8BLOBNBOX14BLOBNBOX_CLIST13BLOBNBOX_C_ITE10RemoveBBoxEPS1_
_ZN9tesseract6BBGridI8BLOBNBOX14BLOBNBOX_CLIST13BLOBNBOX_C_ITE11HandleClickEii
_ZN9tesseract6BBGridI8BLOBNBOX14BLOBNBOX_CLIST13BLOBNBOX_C_ITE12DisplayBoxesEP10ScrollView
_ZN9tesseract6BBGridI8BLOBNBOX14BLOBNBOX_CLIST13BLOBNBOX_C_ITE17CountCellElementsEv
_ZN9tesseract6BBGridI8BLOBNBOX14BLOBNBOX_CLIST13BLOBNBOX_C_ITE4InitEiRK6ICOORDS7_
_ZN9tesseract6BBGridI8BLOBNBOX14BLOBNBOX_CLIST13BLOBNBOX_C_ITED0Ev
_ZN9tesseract6BBGridI8BLOBNBOX14BLOBNBOX_CLIST13BLOBNBOX_C_ITED1Ev
_ZN9tesseract6BBGridI8BLOBNBOX14BLOBNBOX_CLIST13BLOBNBOX_C_ITED2Ev
_ZN9tesseract6BBGridINS_10ColSegmentENS_16ColSegment_CLISTENS_15ColSegment_C_ITEE10InsertBBoxEbbPS1_
_ZN9tesseract6BBGridINS_10ColSegmentENS_16ColSegment_CLISTENS_15ColSegment_C_ITEE10RemoveBBoxEPS1_
_ZN9tesseract6BBGridINS_10ColSegmentENS_16ColSegment_CLISTENS_15ColSegment_C_ITEE11HandleClickEii
_ZN9tesseract6BBGridINS_10ColSegmentENS_16ColSegment_CLISTENS_15ColSegment_C_ITEE12DisplayBoxesEP10ScrollView
_ZN9tesseract6BBGridINS_10ColSegmentENS_16ColSegment_CLISTENS_15ColSegment_C_ITEE13ClearGridDataEPFvPS1_E
_ZN9tesseract6BBGridINS_10ColSegmentENS_16ColSegment_CLISTENS_15ColSegment_C_ITEE4InitEiRK6ICOORDS7_
_ZN9tesseract6BBGridINS_10ColSegmentENS_16ColSegment_CLISTENS_15ColSegment_C_ITEED0Ev
_ZN9tesseract6BBGridINS_10ColSegmentENS_16ColSegment_CLISTENS_15ColSegment_C_ITEED1Ev
_ZN9tesseract6BBGridINS_12ColPartitionENS_18ColPartition_CLISTENS_17ColPartition_C_ITEE10InsertBBoxEbbPS1_
_ZN9tesseract6BBGridINS_12ColPartitionENS_18ColPartition_CLISTENS_17ColPartition_C_ITEE10MakeWindowEiiPKc
_ZN9tesseract6BBGridINS_12ColPartitionENS_18ColPartition_CLISTENS_17ColPartition_C_ITEE10RemoveBBoxEPS1_
_ZN9tesseract6BBGridINS_12ColPartitionENS_18ColPartition_CLISTENS_17ColPartition_C_ITEE11HandleClickEii
_ZN9tesseract6BBGridINS_12ColPartitionENS_18ColPartition_CLISTENS_17ColPartition_C_ITEE12DisplayBoxesEP10ScrollView
_ZN9tesseract6BBGridINS_12ColPartitionENS_18ColPartition_CLISTENS_17ColPartition_C_ITEE13ClearGridDataEPFvPS1_E
_ZN9tesseract6BBGridINS_12ColPartitionENS_18ColPartition_CLISTENS_17ColPartition_C_ITEE18AssertNoDuplicatesEv
_ZN9tesseract6BBGridINS_12ColPartitionENS_18ColPartition_CLISTENS_17ColPartition_C_ITEE4InitEiRK6ICOORDS7_
_ZN9tesseract6BBGridINS_12ColPartitionENS_18ColPartition_CLISTENS_17ColPartition_C_ITEED0Ev
_ZN9tesseract6BBGridINS_12ColPartitionENS_18ColPartition_CLISTENS_17ColPartition_C_ITEED1Ev
_ZN9tesseract6BBGridINS_12ColPartitionENS_18ColPartition_CLISTENS_17ColPartition_C_ITEED2Ev
_ZN9tesseract6CCUtil10main_setupEPKcS2_
_ZN9tesseract6CCUtilC1Ev
_ZN9tesseract6CCUtilC2Ev
_ZN9tesseract6CCUtilD0Ev
_ZN9tesseract6CCUtilD1Ev
_ZN9tesseract6CCUtilD2Ev
_ZN9tesseract6Neuron10ReadBinaryINS_15InputFileBufferEEEbPT_
_ZN9tesseract6Neuron11FeedForwardEv
_ZN9tesseract6Neuron13kSigmoidTableE DATA
_ZN9tesseract6Neuron13set_node_typeENS0_11NeuronTypesE
_ZN9tesseract6Neuron17AddFromConnectionEPS0_Pfi
_ZN9tesseract6Neuron4InitEv
_ZN9tesseract6Neuron7SigmoidEf
_ZN9tesseract6NeuronC1Ev
_ZN9tesseract6NeuronC2Ev
_ZN9tesseract6NeuronD1Ev
_ZN9tesseract6NeuronD2Ev
_ZN9tesseract6cmp_eqINS_14LineHypothesisEEEbRKT_S4_
_ZN9tesseract6cmp_eqIP14ParagraphModelEEbRKT_S5_
_ZN9tesseract6cmp_eqIPK14ParagraphModelEEbRKT_S6_
_ZN9tesseract6cmp_eqIiEEbRKT_S3_
_ZN9tesseract6read_tEP11PAGE_RES_ITP4TBOX
_ZN9tesseract7AltListC1Ei
_ZN9tesseract7AltListC2Ei
_ZN9tesseract7AltListD0Ev
_ZN9tesseract7AltListD1Ev
_ZN9tesseract7AltListD2Ev
_ZN9tesseract7BoxWord10MergeBoxesEii
_ZN9tesseract7BoxWord14DeleteAllBoxesEv
_ZN9tesseract7BoxWord18ClipToOriginalWordEPK5BLOCKP4WERD
_ZN9tesseract7BoxWord18ComputeBoundingBoxEv
_ZN9tesseract7BoxWord18CopyFromNormalizedEP5TWERD
_ZN9tesseract7BoxWord8CopyFromERKS0_
_ZN9tesseract7BoxWord9DeleteBoxEi
_ZN9tesseract7BoxWord9InsertBoxEiRK4TBOX
_ZN9tesseract7BoxWordC1ERKS0_
_ZN9tesseract7BoxWordC1Ev
_ZN9tesseract7BoxWordC2ERKS0_
_ZN9tesseract7BoxWordC2Ev
_ZN9tesseract7BoxWordD1Ev
_ZN9tesseract7BoxWordD2Ev
_ZN9tesseract7BoxWordaSERKS0_
_ZN9tesseract7CharSet21LoadSupportedCharListEP6_iobufP10UNICHARSET
_ZN9tesseract7CharSet6CreateEPNS_15TessdataManagerEP10UNICHARSET
_ZN9tesseract7CharSetC1Ev
_ZN9tesseract7CharSetC2Ev
_ZN9tesseract7CharSetD1Ev
_ZN9tesseract7CharSetD2Ev
_ZN9tesseract7ConComp15CreateHistogramEi
_ZN9tesseract7ConComp16SegmentHistogramEPiS1_
_ZN9tesseract7ConComp18Left2RightComparerEPKvS2_
_ZN9tesseract7ConComp18Right2LeftComparerEPKvS2_
_ZN9tesseract7ConComp3AddEii
_ZN9tesseract7ConComp5MergeEPS0_
_ZN9tesseract7ConComp5ShiftEii
_ZN9tesseract7ConComp7SegmentEiPi
_ZN9tesseract7ConCompC1Ev
_ZN9tesseract7ConCompC2Ev
_ZN9tesseract7ConCompD0Ev
_ZN9tesseract7ConCompD1Ev
_ZN9tesseract7ConCompD2Ev
_ZN9tesseract7DPPoint14UpdateIfBetterExiPKS0_iix
_ZN9tesseract7DPPoint16CostWithVarianceEPKS0_
_ZN9tesseract7DPPoint5SolveEiibMS0_FxPKS0_EiPS0_
_ZN9tesseract7IntGrid4InitEiRK6ICOORDS3_
_ZN9tesseract7IntGrid5ClearEv
_ZN9tesseract7IntGrid6RotateERK6FCOORD
_ZN9tesseract7IntGridC1EiRK6ICOORDS3_
_ZN9tesseract7IntGridC1Ev
_ZN9tesseract7IntGridC2EiRK6ICOORDS3_
_ZN9tesseract7IntGridC2Ev
_ZN9tesseract7IntGridD0Ev
_ZN9tesseract7IntGridD1Ev
_ZN9tesseract7IntGridD2Ev
_ZN9tesseract7RowInfoD1Ev
_ZN9tesseract7SkipOneEPKcS1_
_ZN9tesseract7TabFind10InsertBlobEbbP8BLOBNBOXPNS_6BBGridIS1_14BLOBNBOX_CLIST13BLOBNBOX_C_ITEE
_ZN9tesseract7TabFind11CleanupTabsEv
_ZN9tesseract7TabFind11CommonWidthEi
_ZN9tesseract7TabFind11GutterWidthEiiRKNS_9TabVectorEbiPi
_ZN9tesseract7TabFind11SortVectorsEv
_ZN9tesseract7TabFind12AdjacentBlobEPK8BLOBNBOXbbdiii
_ZN9tesseract7TabFind12EvaluateTabsEv
_ZN9tesseract7TabFind12FindTabBoxesEi
_ZN9tesseract7TabFind13FindTabVectorEiiNS_12TabAlignmentEP8BLOBNBOXPiS4_
_ZN9tesseract7TabFind13LeftTabForBoxERK4TBOXbb
_ZN9tesseract7TabFind14DifferentSizesEii
_ZN9tesseract7TabFind14FindTabVectorsEPNS_14TabVector_LISTEP13BLOBNBOX_LISTP8TO_BLOCKiPNS_16ColPartitionGridEP6FCOORDSA_
_ZN9tesseract7TabFind14FindTabVectorsEiNS_12TabAlignmentEiPNS_14TabVector_LISTEPiS4_
_ZN9tesseract7TabFind14LeftEdgeForBoxERK4TBOXbb
_ZN9tesseract7TabFind14ReflectInYAxisEv
_ZN9tesseract7TabFind14RightTabForBoxERK4TBOXbb
_ZN9tesseract7TabFind14RotateBlobListERK6FCOORDP13BLOBNBOX_LIST
_ZN9tesseract7TabFind14SetupTabSearchEiiPiS1_
_ZN9tesseract7TabFind14TestBoxForTabsEP8BLOBNBOXi
_ZN9tesseract7TabFind15RightEdgeForBoxERK4TBOXbb
_ZN9tesseract7TabFind16AddPartnerVectorEP8BLOBNBOXS2_PNS_9TabVectorES4_
_ZN9tesseract7TabFind16MakeColumnWidthsEiP5STATS
_ZN9tesseract7TabFind16MarkVerticalTextEv
_ZN9tesseract7TabFind16SetBlobRuleEdgesEP13BLOBNBOX_LIST
_ZN9tesseract7TabFind17ConfirmRaggedLeftEP8BLOBNBOXi
_ZN9tesseract7TabFind17DisplayTabVectorsEP10ScrollView
_ZN9tesseract7TabFind17FindAllTabVectorsEi
_ZN9tesseract7TabFind17InsertBlobsToGridEbbP13BLOBNBOX_LISTPNS_6BBGridI8BLOBNBOX14BLOBNBOX_CLIST13BLOBNBOX_C_ITEE
_ZN9tesseract7TabFind17SetBlockRuleEdgesEP8TO_BLOCK
_ZN9tesseract7TabFind18ConfirmRaggedRightEP8BLOBNBOXi
_ZN9tesseract7TabFind18DontFindTabVectorsEP13BLOBNBOX_LISTP8TO_BLOCKP6FCOORDS6_
_ZN9tesseract7TabFind18VeryDifferentSizesEii
_ZN9tesseract7TabFind19ApplyTabConstraintsEv
_ZN9tesseract7TabFind19ComputeColumnWidthsEP10ScrollViewPNS_16ColPartitionGridE
_ZN9tesseract7TabFind20ComputeDeskewVectorsEP6FCOORDS2_
_ZN9tesseract7TabFind20ResetForVerticalTextERK6FCOORDS3_PNS_14TabVector_LISTEPi
_ZN9tesseract7TabFind21FindInitialTabVectorsEP13BLOBNBOX_LISTiP8TO_BLOCK
_ZN9tesseract7TabFind21FindMedianGutterWidthEPNS_14TabVector_LISTE
_ZN9tesseract7TabFind21NothingYOverlapsInBoxERK4TBOXS3_
_ZN9tesseract7TabFind26GutterWidthAndNeighbourGapEiiibP8BLOBNBOXPiS3_
_ZN9tesseract7TabFind29ApplyPartitionsToColumnWidthsEPNS_16ColPartitionGridEP5STATS
_ZN9tesseract7TabFind29SetVerticalSkewAndParellelizeEii
_ZN9tesseract7TabFind5ResetEv
_ZN9tesseract7TabFind6DeskewEPNS_14TabVector_LISTEP13BLOBNBOX_LISTP8TO_BLOCKP6FCOORDS8_
_ZN9tesseract7TabFind9TidyBlobsEP8TO_BLOCK
_ZN9tesseract7TabFindC1EiRK6ICOORDS3_PNS_14TabVector_LISTEiii
_ZN9tesseract7TabFindC2EiRK6ICOORDS3_PNS_14TabVector_LISTEiii
_ZN9tesseract7TabFindD0Ev
_ZN9tesseract7TabFindD1Ev
_ZN9tesseract7TabFindD2Ev
_ZN9tesseract7Textord10to_spacingE6ICOORDP13TO_BLOCK_LIST
_ZN9tesseract7Textord11TextordPageENS_11PageSegModeERK6FCOORDiiP3PixS6_S6_bP10BLOCK_LISTP13TO_BLOCK_LIST
_ZN9tesseract7Textord11narrow_blobEP6TO_ROW4TBOX
_ZN9tesseract7Textord12filter_blobsE6ICOORDP13TO_BLOCK_LISTh
_ZN9tesseract7Textord13old_to_methodEP6TO_ROWP5STATSS4_S4_ss
_ZN9tesseract7Textord14cleanup_blocksEP10BLOCK_LIST
_ZN9tesseract7Textord14find_textlinesEP8TO_BLOCKP6TO_ROWiP7QSPLINE
_ZN9tesseract7Textord14ignore_big_gapEP6TO_ROWiP6GAPMAPss
_ZN9tesseract7Textord15correlate_linesEP8TO_BLOCKf
_ZN9tesseract7Textord15find_componentsEP3PixP10BLOCK_LISTP13TO_BLOCK_LIST
_ZN9tesseract7Textord15make_blob_wordsEP6TO_ROW6FCOORD
_ZN9tesseract7Textord15make_prop_wordsEP6TO_ROW6FCOORD
_ZN9tesseract7Textord16make_spline_rowsEP8TO_BLOCKfh
_ZN9tesseract7Textord16peek_at_next_gapEP6TO_ROW11BLOBNBOX_ITR4TBOXRsS6_
_ZN9tesseract7Textord16reduced_box_nextEP6TO_ROWP11BLOBNBOX_IT
_ZN9tesseract7Textord17make_a_word_breakEP6TO_ROW4TBOXsS3_ssS3_sRhS4_S4_S4_S4_
_ZN9tesseract7Textord17row_spacing_statsEP6TO_ROWP6GAPMAPssss
_ZN9tesseract7Textord17stats_count_underEP5STATSs
_ZN9tesseract7Textord18filter_noise_blobsEP13BLOBNBOX_LISTS2_S2_S2_
_ZN9tesseract7Textord18isolated_row_statsEP6TO_ROWP6GAPMAPP5STATShss
_ZN9tesseract7Textord18make_old_baselinesEP8TO_BLOCKhf
_ZN9tesseract7Textord19block_spacing_statsEP8TO_BLOCKP6GAPMAPRhRsS6_
_ZN9tesseract7Textord19compute_row_xheightEP6TO_ROWRK6FCOORDfi
_ZN9tesseract7Textord20clean_noise_from_rowEP3ROW
_ZN9tesseract7Textord20correlate_neighboursEP8TO_BLOCKPP6TO_ROWi
_ZN9tesseract7Textord20correlate_with_statsEPP6TO_ROWiP8TO_BLOCK
_ZN9tesseract7Textord20reduced_box_for_blobEP8BLOBNBOXP6TO_ROWPs
_ZN9tesseract7Textord20suspected_punct_blobEP6TO_ROW4TBOX
_ZN9tesseract7Textord21cleanup_nontext_blockEP5BLOCK
_ZN9tesseract7Textord21compute_block_xheightEP8TO_BLOCKf
_ZN9tesseract7Textord21improve_row_thresholdEP6TO_ROWP5STATS
_ZN9tesseract7Textord22CleanupSingleRowResultENS_11PageSegModeEP8PAGE_RES
_ZN9tesseract7Textord22clean_noise_from_wordsEP3ROW
_ZN9tesseract7Textord22find_mean_blob_spacingEP4WERD
_ZN9tesseract7Textord28clean_small_noise_from_wordsEP3ROW
_ZN9tesseract7Textord8mark_gapE4TBOXssssss
_ZN9tesseract7Textord9wide_blobEP6TO_ROW4TBOX
_ZN9tesseract7TextordC1EPNS_8CCStructE
_ZN9tesseract7TextordC2EPNS_8CCStructE
_ZN9tesseract7TextordD1Ev
_ZN9tesseract7TextordD2Ev
_ZN9tesseract7Wordrec10is_crossedE6TPOINTS1_S1_S1_
_ZN9tesseract7Wordrec10near_pointEP6EDGEPTS2_S2_PS2_
_ZN9tesseract7Wordrec11DoSegSearchEP8WERD_RES
_ZN9tesseract7Wordrec12angle_changeEP6EDGEPTS2_S2_
_ZN9tesseract7Wordrec12call_matcherEP5TBLOB
_ZN9tesseract7Wordrec12combine_seamERKNS_11GenericHeapINS_12KDPtrPairDecIf4SEAMEEEEPKS3_PNS1_INS_12KDPtrPairIncIfS3_EEEE
_ZN9tesseract7Wordrec13chop_one_blobERK13GenericVectorI4TBOXERKS1_IP11BLOB_CHOICEEP8WERD_RESPi
_ZN9tesseract7Wordrec13classify_blobEP5TBLOBPKc5C_COLP12BlamerBundle
_ZN9tesseract7Wordrec13grade_overlapEPs
_ZN9tesseract7Wordrec13is_small_areaEP6EDGEPTS2_
_ZN9tesseract7Wordrec13new_max_pointEP6EDGEPTPNS_11GenericHeapINS_9KDPairIncIfS2_EEEE
_ZN9tesseract7Wordrec13new_min_pointEP6EDGEPTPNS_11GenericHeapINS_9KDPairIncIfS2_EEEE
_ZN9tesseract7Wordrec13seam_priorityEP4SEAMss
_ZN9tesseract7Wordrec14chop_word_mainEP8WERD_RES
_ZN9tesseract7Wordrec14classify_pieceERK13GenericVectorIP4SEAMEssPKcP5TWERDP12BlamerBundle
_ZN9tesseract7Wordrec14is_same_edgeptEP6EDGEPTS2_
_ZN9tesseract7Wordrec14pick_good_seamEP5TBLOB
_ZN9tesseract7Wordrec14point_priorityEP6EDGEPT
_ZN9tesseract7Wordrec14program_editupEPKcbb
_ZN9tesseract7Wordrec15crosses_outlineEP6EDGEPTS2_S2_
_ZN9tesseract7Wordrec15grade_sharpnessEP12split_record
_ZN9tesseract7Wordrec15is_little_chunkEP6EDGEPTS2_
_ZN9tesseract7Wordrec15merge_fragmentsEP6MATRIXs
_ZN9tesseract7Wordrec15reverse_outlineEP6EDGEPT
_ZN9tesseract7Wordrec15try_point_pairsEPP6EDGEPTsPNS_11GenericHeapINS_12KDPtrPairIncIf4SEAMEEEEPNS4_INS_12KDPtrPairDecIfS6_EEEEPPS6_P5TBLOB
_ZN9tesseract7Wordrec16ResetNGramSearchEP8WERD_RESPNS_16BestChoiceBundleEP13GenericVectorINS_16SegSearchPendingEE
_ZN9tesseract7Wordrec16choose_best_seamEPNS_11GenericHeapINS_12KDPtrPairIncIf4SEAMEEEEP12split_recordfPPS3_P5TBLOBPNS1_INS_12KDPtrPairDecIfS3_EEEE
_ZN9tesseract7Wordrec16improve_one_blobERK13GenericVectorIP11BLOB_CHOICEEPS1_I12DANGERR_INFOEbbP8WERD_RESPi
_ZN9tesseract7Wordrec16pick_close_pointEP6EDGEPTS2_Pi
_ZN9tesseract7Wordrec16program_editdownEi
_ZN9tesseract7Wordrec17add_point_to_listEPNS_11GenericHeapINS_9KDPairIncIfP6EDGEPTEEEES4_
_ZN9tesseract7Wordrec17add_seam_to_queueEfP4SEAMPNS_11GenericHeapINS_12KDPtrPairIncIfS1_EEEE
_ZN9tesseract7Wordrec17attempt_blob_chopEP5TWERDP5TBLOBibRK13GenericVectorIP4SEAME
_ZN9tesseract7Wordrec17constrained_splitEP12split_recordP5TBLOB
_ZN9tesseract7Wordrec17prioritize_pointsEP8TESSLINEPNS_11GenericHeapINS_9KDPairIncIfP6EDGEPTEEEE
_ZN9tesseract7Wordrec18chop_numbered_blobEP5TWERDibRK13GenericVectorIP4SEAME
_ZN9tesseract7Wordrec18get_fragment_listsEsssssP6MATRIXP16BLOB_CHOICE_LIST
_ZN9tesseract7Wordrec18grade_split_lengthEP12split_record
_ZN9tesseract7Wordrec18grade_width_changeEPs
_ZN9tesseract7Wordrec18set_outline_boundsEP6EDGEPTS2_Ps
_ZN9tesseract7Wordrec19full_split_priorityEP12split_recordss
_ZN9tesseract7Wordrec19improve_by_choppingEfP8WERD_RESPNS_16BestChoiceBundleEP12BlamerBundlePNS_12LMPainPointsEP13GenericVectorINS_16SegSearchPendingEE
_ZN9tesseract7Wordrec19try_vertical_splitsEPP6EDGEPTsP12EDGEPT_CLISTPNS_11GenericHeapINS_12KDPtrPairIncIf4SEAMEEEEPNS6_INS_12KDPtrPairDecIfS8_EEEEPPS8_P5TBLOB
_ZN9tesseract7Wordrec20UpdateSegSearchNodesEfiP13GenericVectorINS_16SegSearchPendingEEP8WERD_RESPNS_12LMPainPointsEPNS_16BestChoiceBundleEP12BlamerBundle
_ZN9tesseract7Wordrec20grade_center_of_blobEPs
_ZN9tesseract7Wordrec20select_blob_to_splitERK13GenericVectorIP11BLOB_CHOICEEfb
_ZN9tesseract7Wordrec21chop_overlapping_blobERK13GenericVectorI4TBOXEbP8WERD_RESPi
_ZN9tesseract7Wordrec22InitBlamerForSegSearchEP8WERD_RESPNS_12LMPainPointsEP12BlamerBundleP6STRING
_ZN9tesseract7Wordrec25ProcessSegSearchPainPointEfRK12MATRIX_COORDPKcP13GenericVectorINS_16SegSearchPendingEEP8WERD_RESPNS_12LMPainPointsEP12BlamerBundle
_ZN9tesseract7Wordrec25vertical_projection_pointEP6EDGEPTS2_PS2_P12EDGEPT_CLIST
_ZN9tesseract7Wordrec27fill_filtered_fragment_listEP16BLOB_CHOICE_LISTiiS2_
_ZN9tesseract7Wordrec28merge_and_put_fragment_listsEsssP16BLOB_CHOICE_LISTP6MATRIX
_ZN9tesseract7Wordrec31select_blob_to_split_from_fixptEP13GenericVectorI12DANGERR_INFOE
_ZN9tesseract7Wordrec8cc_recogEP8WERD_RES
_ZN9tesseract7Wordrec9SegSearchEP8WERD_RESPNS_16BestChoiceBundleEP12BlamerBundle
_ZN9tesseract7Wordrec9dict_wordERK11WERD_CHOICE
_ZN9tesseract7Wordrec9end_recogEv
_ZN9tesseract7Wordrec9set_pass1Ev
_ZN9tesseract7Wordrec9set_pass2Ev
_ZN9tesseract7WordrecC1Ev
_ZN9tesseract7WordrecC2Ev
_ZN9tesseract7WordrecD0Ev
_ZN9tesseract7WordrecD1Ev
_ZN9tesseract7WordrecD2Ev
_ZN9tesseract8BlobGrid14InsertBlobListEP13BLOBNBOX_LIST
_ZN9tesseract8BlobGridC1EiRK6ICOORDS3_
_ZN9tesseract8BlobGridC2EiRK6ICOORDS3_
_ZN9tesseract8BlobGridD0Ev
_ZN9tesseract8BlobGridD1Ev
_ZN9tesseract8BlobGridD2Ev
_ZN9tesseract8CCStruct16kXHeightCapRatioE DATA
_ZN9tesseract8CCStruct16kXHeightFractionE DATA
_ZN9tesseract8CCStruct17kAscenderFractionE DATA
_ZN9tesseract8CCStruct18kDescenderFractionE DATA
_ZN9tesseract8CCStructC1Ev
_ZN9tesseract8CCStructC2Ev
_ZN9tesseract8CCStructD0Ev
_ZN9tesseract8CCStructD1Ev
_ZN9tesseract8CCStructD2Ev
_ZN9tesseract8CharSamp11FromRawDataEiiiiPh
_ZN9tesseract8CharSamp12FromConCompsEPPNS_7ConCompEiiPiPbS5_i
_ZN9tesseract8CharSamp15ComputeFeaturesEiPf
_ZN9tesseract8CharSamp16FromCharDumpFileEP6_iobuf
_ZN9tesseract8CharSamp16FromCharDumpFileEPNS_10CachedFileE
_ZN9tesseract8CharSamp16FromCharDumpFileEPPh
_ZN9tesseract8CharSamp4CropEv
_ZN9tesseract8CharSamp5ScaleEiib
_ZN9tesseract8CharSamp8SetLabelESs
_ZN9tesseract8CharSampC1Eii
_ZN9tesseract8CharSampC1Eiiii
_ZN9tesseract8CharSampC1Ev
_ZN9tesseract8CharSampC2Eii
_ZN9tesseract8CharSampC2Eiiii
_ZN9tesseract8CharSampC2Ev
_ZN9tesseract8CharSampD1Ev
_ZN9tesseract8CharSampD2Ev
_ZN9tesseract8Classify11AdaptToCharEP5TBLOBiif
_ZN9tesseract8Classify11LearnPiecesEPKciifNS_20CharSegmentationTypeES2_P8WERD_RES
_ZN9tesseract8Classify11SettupPass1Ev
_ZN9tesseract8Classify11SettupPass2Ev
_ZN9tesseract8Classify12AddNewResultEP13ADAPT_RESULTSiifbiii
_ZN9tesseract8Classify12ConvertProtoEP12PROTO_STRUCTiP16INT_CLASS_STRUCT
_ZN9tesseract8Classify12LargeSpeckleERK5TBLOB
_ZN9tesseract8Classify12PruneClassesEPK20INT_TEMPLATES_STRUCTiPK18INT_FEATURE_STRUCTPKhPKtP13GenericVectorI16CP_RESULT_STRUCTE
_ZN9tesseract8Classify13AdaptableWordEP8WERD_RES
_ZN9tesseract8Classify13GetFontinfoIdEP18ADAPT_CLASS_STRUCTh
_ZN9tesseract8Classify13MakePermanentEP22ADAPT_TEMPLATES_STRUCTiiP5TBLOB
_ZN9tesseract8Classify13MasterMatcherEP20INT_TEMPLATES_STRUCTsPK18INT_FEATURE_STRUCTPKhPP18ADAPT_CLASS_STRUCTiiRK4TBOXRK13GenericVectorI16CP_RESULT_STRUCTEP13ADAPT_RESULTS
_ZN9tesseract8Classify14FreeNormProtosEv
_ZN9tesseract8Classify14GetAmbiguitiesEP5TBLOBi
_ZN9tesseract8Classify14ReadNewCutoffsEP6_iobufbxPt
_ZN9tesseract8Classify14ReadNormProtosEP6_iobufx
_ZN9tesseract8Classify15AmbigClassifierERK13GenericVectorI18INT_FEATURE_STRUCTERK20INT_FX_RESULT_STRUCTPK5TBLOBP20INT_TEMPLATES_STRUCTPP18ADAPT_CLASS_STRUCTPiP13ADAPT_RESULTS
_ZN9tesseract8Classify15ClassifyAsNoiseEP13ADAPT_RESULTS
_ZN9tesseract8Classify15DoAdaptiveMatchEP5TBLOBP13ADAPT_RESULTS
_ZN9tesseract8Classify15ExtractFeaturesERK5TBLOBbP13GenericVectorI18INT_FEATURE_STRUCTES7_P20INT_FX_RESULT_STRUCTPS4_IiE
_ZN9tesseract8Classify15GetClassToDebugEPKcPbS3_Pi
_ZN9tesseract8Classify16ComputeNormMatchEiRK14FEATURE_STRUCTh
_ZN9tesseract8Classify16InitAdaptedClassEP5TBLOBiiP18ADAPT_CLASS_STRUCTP22ADAPT_TEMPLATES_STRUCT
_ZN9tesseract8Classify16LooksLikeGarbageEP5TBLOB
_ZN9tesseract8Classify16ReadIntTemplatesEP6_iobuf
_ZN9tesseract8Classify16RemoveBadMatchesEP13ADAPT_RESULTS
_ZN9tesseract8Classify16RemoveExtraPuncsEP13ADAPT_RESULTS
_ZN9tesseract8Classify16SetupBLCNDenormsERK5TBLOBbP6DENORMS5_P20INT_FX_RESULT_STRUCT
_ZN9tesseract8Classify16ShowBestMatchForEiPK18INT_FEATURE_STRUCTi
_ZN9tesseract8Classify16ShowMatchDisplayEv
_ZN9tesseract8Classify17AddLargeSpeckleToEiP16BLOB_CHOICE_LIST
_ZN9tesseract8Classify17MakeNewTempProtosEP18FEATURE_SET_STRUCTiPhP16INT_CLASS_STRUCTP18ADAPT_CLASS_STRUCTPj
_ZN9tesseract8Classify17NormalizeOutlinesEP8list_recPfS3_
_ZN9tesseract8Classify17UpdateAmbigsGroupEiP5TBLOB
_ZN9tesseract8Classify17WriteIntTemplatesEP6_iobufP20INT_TEMPLATES_STRUCTRK10UNICHARSET
_ZN9tesseract8Classify18AdaptiveClassifierEP5TBLOBP16BLOB_CHOICE_LIST
_ZN9tesseract8Classify18BaselineClassifierEP5TBLOBRK13GenericVectorI18INT_FEATURE_STRUCTERK20INT_FX_RESULT_STRUCTP22ADAPT_TEMPLATES_STRUCTP13ADAPT_RESULTS
_ZN9tesseract8Classify18CharNormClassifierEP5TBLOBRKNS_14TrainingSampleEP13ADAPT_RESULTS
_ZN9tesseract8Classify18ClearCharNormArrayEPh
_ZN9tesseract8Classify18ComputeIntFeaturesEP18FEATURE_SET_STRUCTP18INT_FEATURE_STRUCT
_ZN9tesseract8Classify18CreateIntTemplatesEP12CLASS_STRUCTRK10UNICHARSET
_ZN9tesseract8Classify18DisplayAdaptedCharEP5TBLOBP16INT_CLASS_STRUCT
_ZN9tesseract8Classify18GetCharNormFeatureERK20INT_FX_RESULT_STRUCTP20INT_TEMPLATES_STRUCTPhS6_
_ZN9tesseract8Classify18RefreshDebugWindowEPP10ScrollViewPKciRK4TBOX
_ZN9tesseract8Classify18TempConfigReliableEiRKP18TEMP_CONFIG_STRUCT
_ZN9tesseract8Classify19ExtractPicoFeaturesEP5TBLOB
_ZN9tesseract8Classify19GetAdaptiveFeaturesEP5TBLOBP18INT_FEATURE_STRUCTPP18FEATURE_SET_STRUCT
_ZN9tesseract8Classify19NewAdaptedTemplatesEb
_ZN9tesseract8Classify19SetStaticClassifierEPNS_15ShapeClassifierE
_ZN9tesseract8Classify20ReadAdaptedTemplatesEP6_iobuf
_ZN9tesseract8Classify20SetAdaptiveThresholdEf
_ZN9tesseract8Classify21ComputeCharNormArraysEP14FEATURE_STRUCTP20INT_TEMPLATES_STRUCTPhS5_
_ZN9tesseract8Classify21EndAdaptiveClassifierEv
_ZN9tesseract8Classify21PrintAdaptedTemplatesEP6_iobufP22ADAPT_TEMPLATES_STRUCT
_ZN9tesseract8Classify21WriteAdaptedTemplatesEP6_iobufP22ADAPT_TEMPLATES_STRUCT
_ZN9tesseract8Classify22CharNormTrainingSampleEbiRKNS_14TrainingSampleEP13GenericVectorINS_13UnicharRatingEE
_ZN9tesseract8Classify22ComputeCorrectedRatingEbiddiiiiiPKh
_ZN9tesseract8Classify22ExtractOutlineFeaturesEP5TBLOB
_ZN9tesseract8Classify22InitAdaptiveClassifierEb
_ZN9tesseract8Classify22MakeNewTemporaryConfigEP22ADAPT_TEMPLATES_STRUCTiiiP18INT_FEATURE_STRUCTP18FEATURE_SET_STRUCT
_ZN9tesseract8Classify23ComputeIntCharNormArrayERK14FEATURE_STRUCTPh
_ZN9tesseract8Classify23ConvertMatchesToChoicesERK6DENORMRK4TBOXP13ADAPT_RESULTSP16BLOB_CHOICE_LIST
_ZN9tesseract8Classify23DebugAdaptiveClassifierEP5TBLOBP13ADAPT_RESULTS
_ZN9tesseract8Classify25PrintAdaptiveMatchResultsEP6_iobufP13ADAPT_RESULTS
_ZN9tesseract8Classify31ExpandShapesAndApplyCorrectionsEPP18ADAPT_CLASS_STRUCTbiiifiiPKhR17INT_RESULT_STRUCTP13ADAPT_RESULTS
_ZN9tesseract8Classify31ResetAdaptiveClassifierInternalEv
_ZN9tesseract8Classify9LearnWordEPKcP8WERD_RES
_ZN9tesseract8ClassifyC1Ev
_ZN9tesseract8ClassifyC2Ev
_ZN9tesseract8ClassifyD0Ev
_ZN9tesseract8ClassifyD1Ev
_ZN9tesseract8ClassifyD2Ev
_ZN9tesseract8FontInfo11DeSerializeEbP6_iobuf
_ZN9tesseract8GridBase4InitEiRK6ICOORDS3_
_ZN9tesseract8GridBaseC1EiRK6ICOORDS3_
_ZN9tesseract8GridBaseC1Ev
_ZN9tesseract8GridBaseC2EiRK6ICOORDS3_
_ZN9tesseract8GridBaseC2Ev
_ZN9tesseract8GridBaseD0Ev
_ZN9tesseract8GridBaseD1Ev
_ZN9tesseract8GridBaseD2Ev
_ZN9tesseract8IndexMap11DeSerializeEbP6_iobuf
_ZN9tesseract8IndexMap8CopyFromERKNS_12IndexMapBiDiE
_ZN9tesseract8IndexMap8CopyFromERKS0_
_ZN9tesseract8IndexMapD0Ev
_ZN9tesseract8IndexMapD1Ev
_ZN9tesseract8RtlEmbedERK6STRINGb
_ZN9tesseract8read_setEP6_iobufPNS_7FontSetEb
_ZN9tesseract8sort_cmpINS_9KDPairIncIiyEEEEiPKvS4_
_ZN9tesseract8sort_cmpIfEEiPKvS2_
_ZN9tesseract8sort_cmpIiEEiPKvS2_
_ZN9tesseract9AmbigSpec19compare_ambig_specsEPKvS2_
_ZN9tesseract9AmbigSpecC1Ev
_ZN9tesseract9AmbigSpecC2Ev
_ZN9tesseract9BitVector10SetAllTrueEv
_ZN9tesseract9BitVector10lsb_index_E DATA
_ZN9tesseract9BitVector11DeSerializeEbP6_iobuf
_ZN9tesseract9BitVector11SetAllFalseEv
_ZN9tesseract9BitVector11SetSubtractERKS0_S2_
_ZN9tesseract9BitVector11lsb_eroded_E DATA
_ZN9tesseract9BitVector14hamming_table_E DATA
_ZN9tesseract9BitVector4InitEi
_ZN9tesseract9BitVector5AllocEi
_ZN9tesseract9BitVectorC1ERKS0_
_ZN9tesseract9BitVectorC1Ei
_ZN9tesseract9BitVectorC1Ev
_ZN9tesseract9BitVectorC2ERKS0_
_ZN9tesseract9BitVectorC2Ei
_ZN9tesseract9BitVectorC2Ev
_ZN9tesseract9BitVectorD1Ev
_ZN9tesseract9BitVectorD2Ev
_ZN9tesseract9BitVectoraNERKS0_
_ZN9tesseract9BitVectoraSERKS0_
_ZN9tesseract9BitVectoreOERKS0_
_ZN9tesseract9BitVectoroRERKS0_
_ZN9tesseract9CubeUtils11UTF32ToUTF8EPKiPSs
_ZN9tesseract9CubeUtils11UTF8ToUTF32EPKcPSbIiSt11char_traitsIiESaIiEE
_ZN9tesseract9CubeUtils12GetImageDataEP3Pixiiii
_ZN9tesseract9CubeUtils15IsCaseInvariantEPKiPNS_7CharSetE
_ZN9tesseract9CubeUtils16ReadFileToStringERKSsPSs
_ZN9tesseract9CubeUtils16SplitStringUsingERKSsS2_PSt6vectorISsSaISsEE
_ZN9tesseract9CubeUtils17CharSampleFromPixEP3Pixiiii
_ZN9tesseract9CubeUtils17PixFromCharSampleEPNS_8CharSampE
_ZN9tesseract9CubeUtils6StrCmpEPKiS2_
_ZN9tesseract9CubeUtils6StrDupEPKi
_ZN9tesseract9CubeUtils6StrLenEPKi
_ZN9tesseract9CubeUtils7ToLowerEPKiPNS_7CharSetE
_ZN9tesseract9CubeUtils7ToUpperEPKiPNS_7CharSetE
_ZN9tesseract9CubeUtils9Cost2ProbEi
_ZN9tesseract9CubeUtils9Prob2CostEd
_ZN9tesseract9CubeUtilsC1Ev
_ZN9tesseract9CubeUtilsC2Ev
_ZN9tesseract9CubeUtilsD1Ev
_ZN9tesseract9CubeUtilsD2Ev
_ZN9tesseract9DawgCache15GetSquishedDawgERK6STRINGPKcNS_12TessdataTypeEi
_ZN9tesseract9ImageFind10ClipToByteEd
_ZN9tesseract9ImageFind10ComposeRGBEjjj
_ZN9tesseract9ImageFind10FindImagesEP3Pix
_ZN9tesseract9ImageFind16BoundsWithinRectEP3PixPiS3_S3_S3_
_ZN9tesseract9ImageFind19BlankImageInBetweenERK4TBOXS3_S3_RK6FCOORDP3Pix
_ZN9tesseract9ImageFind19FindImagePartitionsEP3PixRK6FCOORDS5_P8TO_BLOCKPNS_7TabFindEPNS_16ColPartitionGridEPNS_17ColPartition_LISTE
_ZN9tesseract9ImageFind20pixNearlyRectangularEP3PixdddPiS3_S3_S3_
_ZN9tesseract9ImageFind21ColorDistanceFromLineEPKhS2_S2_
_ZN9tesseract9ImageFind22ComputeRectangleColorsERK4TBOXP3PixiS5_S5_S5_PhS6_
_ZN9tesseract9ImageFind23CountPixelsInRotatedBoxE4TBOXRKS1_RK6FCOORDP3Pix
_ZN9tesseract9ImageFind25ConnCompAndRectangularizeEP3PixPP4BoxaPP4Pixa
_ZN9tesseract9ImageFind29TransferImagePartsToImageMaskERK6FCOORDPNS_16ColPartitionGridEP3Pix
_ZN9tesseract9NeuralNet10ReadBinaryINS_15InputFileBufferEEEbPT_
_ZN9tesseract9NeuralNet11FeedForwardIdEEbPKT_PS2_
_ZN9tesseract9NeuralNet11FeedForwardIfEEbPKT_PS2_
_ZN9tesseract9NeuralNet12GetNetOutputIdEEbPKT_iPS2_
_ZN9tesseract9NeuralNet12GetNetOutputIfEEbPKT_iPS2_
_ZN9tesseract9NeuralNet13CreateFastNetEv
_ZN9tesseract9NeuralNet13SetConnectionEii
_ZN9tesseract9NeuralNet15FastFeedForwardIdEEbPKT_PS2_
_ZN9tesseract9NeuralNet15FastFeedForwardIfEEbPKT_PS2_
_ZN9tesseract9NeuralNet15FromInputBufferEPNS_15InputFileBufferE
_ZN9tesseract9NeuralNet16FastGetNetOutputIdEEbPKT_iPS2_
_ZN9tesseract9NeuralNet16FastGetNetOutputIfEEbPKT_iPS2_
_ZN9tesseract9NeuralNet4InitEv
_ZN9tesseract9NeuralNet8AllocWgtEi
_ZN9tesseract9NeuralNet8FromFileESs
_ZN9tesseract9NeuralNetC1Ev
_ZN9tesseract9NeuralNetC2Ev
_ZN9tesseract9NeuralNetD0Ev
_ZN9tesseract9NeuralNetD1Ev
_ZN9tesseract9NeuralNetD2Ev
_ZN9tesseract9OtsuStatsEPKiPiS2_
_ZN9tesseract9SkipCharsEPKcPFbiE
_ZN9tesseract9SkipCharsEPKcS1_
_ZN9tesseract9TabVector10AddPartnerEPS0_
_ZN9tesseract9TabVector10IsAPartnerEPKS0_
_ZN9tesseract9TabVector11ExtendToBoxEP8BLOBNBOX
_ZN9tesseract9TabVector16ApplyConstraintsEv
_ZN9tesseract9TabVector16GetSinglePartnerEv
_ZN9tesseract9TabVector16SetupConstraintsEv
_ZN9tesseract9TabVector16SortVectorsByKeyEPKvS2_
_ZN9tesseract9TabVector22FitAndEvaluateIfNeededERK6ICOORDPNS_7TabFindE
_ZN9tesseract9TabVector22MergeSimilarTabVectorsERK6ICOORDPNS_14TabVector_LISTEPNS_8BlobGridE
_ZN9tesseract9TabVector23SetupPartnerConstraintsEPS0_
_ZN9tesseract9TabVector23SetupPartnerConstraintsEv
_ZN9tesseract9TabVector23VerticalTextlinePartnerEv
_ZN9tesseract9TabVector3FitE6ICOORDb
_ZN9tesseract9TabVector5DebugEPKc
_ZN9tesseract9TabVector5PrintEPKc
_ZN9tesseract9TabVector6DeleteEPS0_
_ZN9tesseract9TabVector6RotateERK6FCOORD
_ZN9tesseract9TabVector7DisplayEP10ScrollView
_ZN9tesseract9TabVector7SetYEndEi
_ZN9tesseract9TabVector8EvaluateERK6ICOORDPNS_7TabFindE
_ZN9tesseract9TabVector9FitVectorENS_12TabAlignmentE6ICOORDiiP14BLOBNBOX_CLISTPiS5_
_ZN9tesseract9TabVector9MergeWithERK6ICOORDPS0_
_ZN9tesseract9TabVector9SetYStartEi
_ZN9tesseract9TabVectorC1ERKS0_NS_12TabAlignmentERK6ICOORDP8BLOBNBOX
_ZN9tesseract9TabVectorC1EiiNS_12TabAlignmentEP14BLOBNBOX_CLIST
_ZN9tesseract9TabVectorC2ERKS0_NS_12TabAlignmentERK6ICOORDP8BLOBNBOX
_ZN9tesseract9TabVectorC2EiiNS_12TabAlignmentEP14BLOBNBOX_CLIST
_ZN9tesseract9TabVectorD1Ev
_ZN9tesseract9TabVectorD2Ev
_ZN9tesseract9Tesseract10ApplyBoxesERK6STRINGbP10BLOCK_LIST
_ZN9tesseract9Tesseract10debug_wordEP8PAGE_RESRK4TBOX
_ZN9tesseract9Tesseract10dump_wordsER13WERD_RES_LISTssh
_ZN9tesseract9Tesseract10recog_wordEP8WERD_RES
_ZN9tesseract9Tesseract11AutoPageSegENS_11PageSegModeEP10BLOCK_LISTP13TO_BLOCK_LISTPS0_P9OSResults
_ZN9tesseract9Tesseract11SegmentPageEPK6STRINGP10BLOCK_LISTPS0_P9OSResults
_ZN9tesseract9Tesseract11alpha_countEPKcS2_
_ZN9tesseract9Tesseract11blamer_passEP8PAGE_RES
_ZN9tesseract9Tesseract11non_0_digitERK10UNICHARSETi
_ZN9tesseract9Tesseract11non_O_upperERK10UNICHARSETi
_ZN9tesseract9Tesseract11output_passER11PAGE_RES_ITPK4TBOX
_ZN9tesseract9Tesseract11word_dumperEP5BLOCKP3ROWP8WERD_RES
_ZN9tesseract9Tesseract12count_alphasERK11WERD_CHOICE
_ZN9tesseract9Tesseract12fix_rep_charEP11PAGE_RES_IT
_ZN9tesseract9Tesseract12flip_hyphensEP8WERD_RES
_ZN9tesseract9Tesseract12garbage_wordEP8WERD_RESh
_ZN9tesseract9Tesseract12get_rep_charEP8WERD_RES
_ZN9tesseract9Tesseract12reject_I_1_LEP8WERD_RES
_ZN9tesseract9Tesseract12tilde_crunchER11PAGE_RES_IT
_ZN9tesseract9Tesseract12tilde_deleteER11PAGE_RES_IT
_ZN9tesseract9Tesseract12word_displayEP5BLOCKP3ROWP8WERD_RES
_ZN9tesseract9Tesseract13SearchForTextEPK13GenericVectorIP16BLOB_CHOICE_LISTEiiRKS1_IiEifPS7_PfSA_
_ZN9tesseract9Tesseract13do_re_displayEMS0_FhP5BLOCKP3ROWP8WERD_RESE
_ZN9tesseract9Tesseract13end_tesseractEv
_ZN9tesseract9Tesseract13failure_countEP8WERD_RES
_ZN9tesseract9Tesseract13fill_werd_resERKNS_7BoxWordEPKcP8WERD_RES
_ZN9tesseract9Tesseract13pgeditor_mainEiiP8PAGE_RES
_ZN9tesseract9Tesseract13write_resultsER11PAGE_RES_ITch
_ZN9tesseract9Tesseract14SetupWordPassNEiPNS_8WordDataE
_ZN9tesseract9Tesseract14build_menu_newEv
_ZN9tesseract9Tesseract14check_debug_ptEP8WERD_RESi
_ZN9tesseract9Tesseract14cube_recognizeEPNS_10CubeObjectEP5BLOCKP8WERD_RES
_ZN9tesseract9Tesseract14dont_allow_1IlEP8WERD_RES
_ZN9tesseract9Tesseract14fix_sp_fp_wordER11WERD_RES_ITP3ROWP5BLOCK
_ZN9tesseract9Tesseract14init_tesseractEPKcS2_S2_NS_13OcrEngineModeEPPciPK13GenericVectorI6STRINGESA_b
_ZN9tesseract9Tesseract14noise_outlinesEP5TWERD
_ZN9tesseract9Tesseract14safe_dict_wordEPK8WERD_RES
_ZN9tesseract9Tesseract14set_word_fontsEP8WERD_RES
_ZN9tesseract9Tesseract14unrej_good_chsEP8WERD_RESP3ROW
_ZN9tesseract9Tesseract14word_adaptableEP8WERD_RESt
_ZN9tesseract9Tesseract14word_deletableEP8WERD_RESRs
_ZN9tesseract9Tesseract15CountMisfitTopsEP8WERD_RES
_ZN9tesseract9Tesseract15ReportFailedBoxEi4TBOXPKcS3_
_ZN9tesseract9Tesseract15SetupApplyBoxesERK13GenericVectorI4TBOXEP10BLOCK_LIST
_ZN9tesseract9Tesseract15count_alphanumsEP8WERD_RES
_ZN9tesseract9Tesseract15count_alphanumsERK11WERD_CHOICE
_ZN9tesseract9Tesseract15cube_word_pass1EP5BLOCKP3ROWP8WERD_RES
_ZN9tesseract9Tesseract15make_reject_mapEP8WERD_RESP3ROWs
_ZN9tesseract9Tesseract15recog_all_wordsEP8PAGE_RESP10ETEXT_DESCPK4TBOXPKci
_ZN9tesseract9Tesseract15script_pos_passEP8PAGE_RES
_ZN9tesseract9Tesseract16ApplyBoxTrainingERK6STRINGP8PAGE_RES
_ZN9tesseract9Tesseract16FindSegmentationERK13GenericVectorIiEP8WERD_RES
_ZN9tesseract9Tesseract16ResegmentCharBoxEP8PAGE_RESPK4TBOXRS4_S6_PKc
_ZN9tesseract9Tesseract16ResegmentWordBoxEP10BLOCK_LISTRK4TBOXS5_PKc
_ZN9tesseract9Tesseract16blob_noise_scoreEP5TBLOB
_ZN9tesseract9Tesseract16fix_fuzzy_spacesEP10ETEXT_DESCiP8PAGE_RES
_ZN9tesseract9Tesseract16one_ell_conflictEP8WERD_RESh
_ZN9tesseract9Tesseract16read_config_fileEPKcNS_18SetParamConstraintE
_ZN9tesseract9Tesseract16rejection_passesEP8PAGE_RESP10ETEXT_DESCPK4TBOXPKc
_ZN9tesseract9Tesseract16word_bln_displayEP5BLOCKP3ROWP8WERD_RES
_ZN9tesseract9Tesseract16word_set_displayEP5BLOCKP3ROWP8WERD_RES
_ZN9tesseract9Tesseract16worst_noise_blobEP8WERD_RESPf
_ZN9tesseract9Tesseract17MaximallyChopWordERK13GenericVectorI4TBOXEP5BLOCKP3ROWP8WERD_RES
_ZN9tesseract9Tesseract17PrepareForPagesegEv
_ZN9tesseract9Tesseract17PrepareForTessOCREP10BLOCK_LISTPS0_P9OSResults
_ZN9tesseract9Tesseract17PrerecAllWordsParERK13GenericVectorINS_8WordDataEE
_ZN9tesseract9Tesseract17ProcessTargetWordERK4TBOXS3_PKci
_ZN9tesseract9Tesseract17RetryWithLanguageERK8WERD_RESPNS_8WordDataEPS1_MS0_FvS5_S6_E
_ZN9tesseract9Tesseract17SetEquationDetectEPNS_14EquationDetectE
_ZN9tesseract9Tesseract17TrainedXheightFixEP8WERD_RESP5BLOCKP3ROW
_ZN9tesseract9Tesseract17cube_combine_wordEPNS_10CubeObjectEP8WERD_RESS4_
_ZN9tesseract9Tesseract17eval_word_spacingER13WERD_RES_LIST
_ZN9tesseract9Tesseract17init_cube_objectsEbPNS_15TessdataManagerE
_ZN9tesseract9Tesseract17init_tesseract_lmEPKcS2_S2_
_ZN9tesseract9Tesseract17match_word_pass_nEiP8WERD_RESP3ROWP5BLOCK
_ZN9tesseract9Tesseract17recog_interactiveEP5BLOCKP3ROWP8WERD_RES
_ZN9tesseract9Tesseract17recog_pseudo_wordEP8PAGE_RESR4TBOX
_ZN9tesseract9Tesseract17reject_edge_blobsEP8WERD_RES
_ZN9tesseract9Tesseract17run_cube_combinerEP8PAGE_RES
_ZN9tesseract9Tesseract17set_unlv_suspectsEP8WERD_RES
_ZN9tesseract9Tesseract17tess_add_doc_wordEP11WERD_CHOICE
_ZN9tesseract9Tesseract17word_blob_qualityEP8WERD_RESP3ROW
_ZN9tesseract9Tesseract17word_char_qualityEP8WERD_RESP3ROWPsS5_
_ZN9tesseract9Tesseract17word_outline_errsEP8WERD_RES
_ZN9tesseract9Tesseract18RecogAllWordsPassNEiP10ETEXT_DESCP13GenericVectorINS_8WordDataEE
_ZN9tesseract9Tesseract18ReportXhtFixResultEbfP8WERD_RESS2_
_ZN9tesseract9Tesseract18SetupAllWordsPassNEiPK4TBOXPKcP8PAGE_RESP13GenericVectorINS_8WordDataEE
_ZN9tesseract9Tesseract18count_outline_errsEcs
_ZN9tesseract9Tesseract18extract_cube_stateEPNS_10CubeObjectEPiPP4BoxaPPPNS_8CharSampE
_ZN9tesseract9Tesseract19ExplodeRepeatedWordEP11BLOB_CHOICEP11PAGE_RES_IT
_ZN9tesseract9Tesseract19ParseLanguageStringEPKcP13GenericVectorI6STRINGES6_
_ZN9tesseract9Tesseract19classify_word_pass1EPNS_8WordDataEP8WERD_RES
_ZN9tesseract9Tesseract19classify_word_pass2EPNS_8WordDataEP8WERD_RES
_ZN9tesseract9Tesseract19cube_recognize_wordEP5BLOCKP8WERD_RES
_ZN9tesseract9Tesseract19init_recog_trainingERK6STRING
_ZN9tesseract9Tesseract19match_current_wordsER13WERD_RES_LISTP3ROWP5BLOCK
_ZN9tesseract9Tesseract19process_image_eventERK7SVEvent
_ZN9tesseract9Tesseract19tess_segment_pass_nEiP8WERD_RES
_ZN9tesseract9Tesseract20CorrectClassifyWordsEP8PAGE_RES
_ZN9tesseract9Tesseract20SetBlackAndWhitelistEv
_ZN9tesseract9Tesseract20SubAndSuperscriptFixEP8WERD_RES
_ZN9tesseract9Tesseract20TrySuperscriptSplitsEifNS_9ScriptPosEifS1_P8WERD_RESPbPiS5_
_ZN9tesseract9Tesseract20blob_feature_displayEP8PAGE_RESRK4TBOX
_ZN9tesseract9Tesseract20convert_bad_unlv_chsEP8WERD_RES
_ZN9tesseract9Tesseract20create_cube_box_wordEP4Boxai4TBOXPNS_7BoxWordE
_ZN9tesseract9Tesseract20first_alphanum_indexEPKcS2_
_ZN9tesseract9Tesseract20fix_fuzzy_space_listER13WERD_RES_LISTP3ROWP5BLOCK
_ZN9tesseract9Tesseract20fix_noisy_space_listER13WERD_RES_LISTP3ROWP5BLOCK
_ZN9tesseract9Tesseract20fp_eval_word_spacingER13WERD_RES_LIST
_ZN9tesseract9Tesseract20recog_word_recursiveEP8WERD_RES
_ZN9tesseract9Tesseract20split_and_recog_wordEP8WERD_RES
_ZN9tesseract9Tesseract20terrible_word_crunchEP8WERD_RES13GARBAGE_LEVEL
_ZN9tesseract9Tesseract20tess_acceptable_wordEP8WERD_RES
_ZN9tesseract9Tesseract21SetupUniversalFontIdsEv
_ZN9tesseract9Tesseract21first_alphanum_offsetEPKcS2_
_ZN9tesseract9Tesseract21font_recognition_passEP8PAGE_RES
_ZN9tesseract9Tesseract21potential_word_crunchEP8WERD_RES13GARBAGE_LEVELh
_ZN9tesseract9Tesseract21process_cmd_win_eventEiPc
_ZN9tesseract9Tesseract21reject_mostly_rejectsEP8WERD_RES
_ZN9tesseract9Tesseract22acceptable_word_stringERK10UNICHARSETPKcS5_
_ZN9tesseract9Tesseract22bigram_correction_passEP8PAGE_RES
_ZN9tesseract9Tesseract22digit_or_numeric_punctEP8WERD_RESi
_ZN9tesseract9Tesseract22process_selected_wordsEP8PAGE_RESR4TBOXMS0_FhP5BLOCKP3ROWP8WERD_RESE
_ZN9tesseract9Tesseract23ConvertStringToUnicharsEPKcP13GenericVectorIiE
_ZN9tesseract9Tesseract23ResetAdaptiveClassifierEv
_ZN9tesseract9Tesseract23ResetDocumentDictionaryEv
_ZN9tesseract9Tesseract23doc_and_block_rejectionER11PAGE_RES_ITh
_ZN9tesseract9Tesseract23init_tesseract_internalEPKcS2_S2_NS_13OcrEngineModeEPPciPK13GenericVectorI6STRINGESA_b
_ZN9tesseract9Tesseract23quality_based_rejectionER11PAGE_RES_ITh
_ZN9tesseract9Tesseract23repeated_nonalphanum_wdEP8WERD_RESP3ROW
_ZN9tesseract9Tesseract24ComputeCompatibleXheightEP8WERD_RES
_ZN9tesseract9Tesseract24acceptable_number_stringEPKcS2_
_ZN9tesseract9Tesseract24break_noisiest_blob_wordER13WERD_RES_LIST
_ZN9tesseract9Tesseract24init_tesseract_lang_dataEPKcS2_S2_NS_13OcrEngineModeEPPciPK13GenericVectorI6STRINGESA_b
_ZN9tesseract9Tesseract24recog_training_segmentedERK6STRINGP8PAGE_RESPV10ETEXT_DESCP6_iobuf
_ZN9tesseract9Tesseract24unrej_good_quality_wordsER11PAGE_RES_IT
_ZN9tesseract9Tesseract25ReSegmentByClassificationEP8PAGE_RES
_ZN9tesseract9Tesseract25fixspace_thinks_word_doneEP8WERD_RES
_ZN9tesseract9Tesseract25word_contains_non_1_digitEPKcS2_
_ZN9tesseract9Tesseract26ambigs_classify_and_outputEP8WERD_RESP7ROW_RESP9BLOCK_RESPKcP6_iobuf
_ZN9tesseract9Tesseract26classify_word_and_languageEMS0_FvPNS_8WordDataEP8WERD_RESES2_
_ZN9tesseract9Tesseract26word_blank_and_set_displayEP5BLOCKP3ROWP8WERD_RES
_ZN9tesseract9Tesseract30GetSubAndSuperscriptCandidatesEPK8WERD_RESPiPNS_9ScriptPosEPfS4_S6_S7_S7_S7_
_ZN9tesseract9Tesseract32SetupPageSegAndDetectOrientationEbbbP10BLOCK_LISTPS0_P9OSResultsP13TO_BLOCK_LISTPP3PixSA_
_ZN9tesseract9Tesseract5ClearEv
_ZN9tesseract9Tesseract6TidyUpEP8PAGE_RES
_ZN9tesseract9Tesseract7flip_0OEP8WERD_RES
_ZN9tesseract9Tesseract8set_doneEP8WERD_RESs
_ZN9tesseract9TesseractC1Ev
_ZN9tesseract9TesseractC2Ev
_ZN9tesseract9TesseractD0Ev
_ZN9tesseract9TesseractD1Ev
_ZN9tesseract9TesseractD2Ev
_ZN9tesseract9read_infoEP6_iobufPNS_8FontInfoEb
_ZN9tesseract9write_setEP6_iobufRKNS_7FontSetE
_ZNK10UNICHARMAP13unichar_to_idEPKc
_ZNK10UNICHARMAP13unichar_to_idEPKci
_ZNK10UNICHARMAP8containsEPKc
_ZNK10UNICHARMAP8containsEPKci
_ZNK10UNICHARMAP8minmatchEPKc
_ZNK10UNICHARSET11get_isupperEi
_ZNK10UNICHARSET11normed_stepEPKc
_ZNK10UNICHARSET12get_chartypeEi
_ZNK10UNICHARSET12save_to_fileEP6_iobuf
_ZNK10UNICHARSET13SizesDistinctEii
_ZNK10UNICHARSET13encode_stringEPKcbP13GenericVectorIiEPS2_IcEPi
_ZNK10UNICHARSET13encode_stringEPKciiP13GenericVectorIiEPS2_IcEPiS4_S6_
_ZNK10UNICHARSET13get_isprivateEi
_ZNK10UNICHARSET13id_to_unicharEi
_ZNK10UNICHARSET13unichar_to_idEPKc
_ZNK10UNICHARSET13unichar_to_idEPKci
_ZNK10UNICHARSET14get_propertiesEi
_ZNK10UNICHARSET16GetStrPropertiesEPKcPNS_18UNICHAR_PROPERTIESE
_ZNK10UNICHARSET16contains_unicharEPKc
_ZNK10UNICHARSET16contains_unicharEPKci
_ZNK10UNICHARSET16encodable_stringEPKcPi
_ZNK10UNICHARSET17id_to_unichar_extEi
_ZNK10UNICHARSET18UNICHAR_PROPERTIES13AnyRangeEmptyEv
_ZNK10UNICHARSET19major_right_to_leftEv
_ZNK10UNICHARSET23get_script_id_from_nameEPKc
_ZNK10UNICHARSET2eqEiPKc
_ZNK10UNICHARSET4stepEPKc
_ZNK10UNICHARSET9debug_strEi
_ZNK11BLOB_CHOICE15PosAndSizeAgreeERKS_fb
_ZNK11PAGE_RES_IT3cmpERKS_
_ZNK11PAGE_RES_ITeqERKS_
_ZNK11WERD_CHOICE11MatrixCoordEi
_ZNK11WERD_CHOICE11print_stateEPKc
_ZNK11WERD_CHOICE12blob_choicesEiP6MATRIX
_ZNK11WERD_CHOICE12shallow_copyEii
_ZNK11WERD_CHOICE13TotalOfStatesEv
_ZNK11WERD_CHOICE13permuter_nameEv
_ZNK11WERD_CHOICE14GetTopScriptIDEv
_ZNK11WERD_CHOICE14punct_strippedEPiS0_
_ZNK11WERD_CHOICE18has_rtl_unichar_idEv
_ZNK11WERD_CHOICE18string_and_lengthsEP6STRINGS1_
_ZNK11WERD_CHOICE19contains_unichar_idEi
_ZNK11WERD_CHOICE21GetNonSuperscriptSpanEPiS0_
_ZNK11WERD_CHOICE5printEPKc
_ZNK12BlamerBundle11SplitBundleEiibPS_S0_
_ZNK12BlamerBundle15ChoiceIsCorrectEPK11WERD_CHOICE
_ZNK12BlamerBundle15IncorrectReasonEv
_ZNK12BlamerBundle21GuidedSegsearchNeededEPK11WERD_CHOICE
_ZNK12BlamerBundle25GuidedSegsearchStillGoingEv
_ZNK12ParamContent14GetDescriptionEv
_ZNK12ParamContent7GetNameEv
_ZNK12ParamContent8GetValueEv
_ZNK12UnicityTableIN9tesseract8FontInfoEE6get_idES1_
_ZNK13BandTriMatrixIP16BLOB_CHOICE_LISTE5indexEii
_ZNK13GenericVectorIN9tesseract14LineHypothesisEE9get_indexES1_
_ZNK13GenericVectorIN9tesseract7FontSetEE9get_indexES1_
_ZNK13GenericVectorIN9tesseract8FontInfoEE5writeEP6_iobufP19TessResultCallback2IbS4_RKS1_E
_ZNK13GenericVectorIN9tesseract8FontInfoEE8containsES1_
_ZNK13GenericVectorIN9tesseract8FontInfoEE9get_indexES1_
_ZNK13GenericVectorIP14ParagraphModelE9get_indexES1_
_ZNK13GenericVectorIPK14ParagraphModelE9get_indexES2_
_ZNK13GenericVectorIiE9SerializeEP6_iobuf
_ZNK14ParagraphModel10ComparableERKS_
_ZNK14ParagraphModel13ValidBodyLineEiiii
_ZNK14ParagraphModel14ValidFirstLineEiiii
_ZNK14ParagraphModel8ToStringEv
_ZNK16GENERIC_2D_ARRAYIN9tesseract17TrainingSampleSet13FontClassInfoEE12num_elementsEv
_ZNK16GENERIC_2D_ARRAYIN9tesseract17TrainingSampleSet13FontClassInfoEE5indexEii
_ZNK16GENERIC_2D_ARRAYIP16BLOB_CHOICE_LISTE12num_elementsEv
_ZNK16GENERIC_2D_ARRAYIP16BLOB_CHOICE_LISTE5indexEii
_ZNK16GENERIC_2D_ARRAYIdE12num_elementsEv
_ZNK16GENERIC_2D_ARRAYIdE5indexEii
_ZNK16GENERIC_2D_ARRAYIiE12num_elementsEv
_ZNK16GENERIC_2D_ARRAYIiE5indexEii
_ZNK4LLSQ10mean_pointEv
_ZNK4LLSQ10vector_fitEv
_ZNK4LLSQ1cEd
_ZNK4LLSQ1mEv
_ZNK4LLSQ3rmsEdd
_ZNK4LLSQ7pearsonEv
_ZNK4LLSQ8rms_orthERK6FCOORD
_ZNK4TBOX12almost_equalERKS_i
_ZNK4TBOX12intersectionERKS_
_ZNK4TBOX12print_to_strEP6STRING
_ZNK4TBOX14bounding_unionERKS_
_ZNK4TBOX14x_almost_equalERKS_i
_ZNK4TBOX4plotEP10ScrollViewNS0_5ColorES2_
_ZNK4TBOX5widthEv
_ZNK4TBOX9SerializeEP6_iobuf
_ZNK5CLIST6lengthEv
_ZNK5ELIST6lengthEv
_ZNK5STATS10max_bucketEv
_ZNK5STATS10min_bucketEv
_ZNK5STATS11top_n_modesEiP13GenericVectorIN9tesseract9KDPairIncIfiEEE
_ZNK5STATS13print_summaryEv
_ZNK5STATS2sdEv
_ZNK5STATS3ileEd
_ZNK5STATS4meanEv
_ZNK5STATS4modeEv
_ZNK5STATS4plotEP10ScrollViewffffNS0_5ColorE
_ZNK5STATS5printEv
_ZNK5STATS6medianEv
_ZNK5STATS8plotlineEP10ScrollViewffffNS0_5ColorE
_ZNK5STATS9local_minEi
_ZNK5TBLOB11NumOutlinesEv
_ZNK5TBLOB12CollectEdgesERK4TBOXPS0_P4LLSQP13GenericVectorIS6_IiEES9_
_ZNK5TBLOB12bounding_boxEv
_ZNK5TBLOB13GetEdgeCoordsERK4TBOXP13GenericVectorIS3_IiEES6_
_ZNK5TBLOB14ComputeMomentsEP6FCOORDS1_
_ZNK5TBLOB21GetPreciseBoundingBoxEP4TBOX
_ZNK5TBLOB25ClassifyNormalizeIfNeededEv
_ZNK5TWERD12bounding_boxEv
_ZNK6DENORM12XHeightRangeEiRK10UNICHARSETRK4TBOXPfS6_S6_
_ZNK6DENORM13LocalNormBlobEP5TBLOB
_ZNK6DENORM13NormTransformEPKS_RK6FCOORDPS2_
_ZNK6DENORM13NormTransformEPKS_RK6TPOINTPS2_
_ZNK6DENORM15DenormTransformEPKS_RK6FCOORDPS2_
_ZNK6DENORM15DenormTransformEPKS_RK6TPOINTPS2_
_ZNK6DENORM18LocalNormTransformERK6FCOORDPS0_
_ZNK6DENORM18LocalNormTransformERK6TPOINTPS0_
_ZNK6DENORM20LocalDenormTransformERK6FCOORDPS0_
_ZNK6DENORM20LocalDenormTransformERK6TPOINTPS0_
_ZNK6DENORM5PrintEv
_ZNK6DIR1286vectorEv
_ZNK6ELIST26lengthEv
_ZNK6FCOORD12to_directionEv
_ZNK6FCOORD18nearest_pt_on_lineERKS_S1_
_ZNK6ICOORD12setup_renderEPS_S0_PiS1_
_ZNK6ICOORD9SerializeEP6_iobuf
_ZNK6MATRIX10ClassifiedEiii
_ZNK6MATRIX5printERK10UNICHARSET
_ZNK6MATRIX8DeepCopyEv
_ZNK6STRING5c_strEv
_ZNK6STRING6lengthEv
_ZNK6STRING6stringEv
_ZNK6STRING8containsEc
_ZNK6STRING9FixHeaderEv
_ZNK6STRING9SerializeEP6_iobuf
_ZNK6STRINGeqERKS_
_ZNK6STRINGixEi
_ZNK6STRINGneEPKc
_ZNK6STRINGneERKS_
_ZNK6STRINGplERKS_
_ZNK6STRINGplEc
_ZNK6TO_ROW5printEv
_ZNK7ERRCODE5errorEPKc16TessErrorLogCodeS1_z
_ZNK7QSPLINE12spline_indexEd
_ZNK7QSPLINE1yEd
_ZNK7QSPLINE4plotEP10ScrollViewNS0_5ColorE
_ZNK7QSPLINE4plotEP3Pix
_ZNK7UNICHAR14const_iterator8get_utf8EPc
_ZNK7UNICHAR14const_iterator8utf8_lenEv
_ZNK7UNICHAR14const_iteratordeEv
_ZNK7UNICHAR8utf8_strEv
_ZNK7UNICHAR9first_uniEv
_ZNK8BLOBNBOX12GoodTextBlobEv
_ZNK8BLOBNBOX13NeighbourGapsEPi
_ZNK8BLOBNBOX15NoisyNeighboursEv
_ZNK8BLOBNBOX17MinMaxGapsClippedEPiS0_S0_S0_
_ZNK8BLOBNBOX19MatchingStrokeWidthERKS_dd
_ZNK8BLOBNBOX21ConfirmNoTabViolationERKS_
_ZNK8BLOBNBOX8BoxColorEv
_ZNK8TESSLINE12bounding_boxEv
_ZNK8TESSLINE15FindBestStartPtEv
_ZNK8TESSLINE18MinMaxCrossProductE6TPOINTPiS1_
_ZNK8WERD_RES13GetBlobChoiceEi
_ZNK8WERD_RES14GetBlobChoicesEi
_ZNK8WERD_RES16PiecesAllNaturalEii
_ZNK8WERD_RES16PrintBestChoicesEv
_ZNK8WERD_RES37AlternativeChoiceAdjustmentsWorseThanEf
_ZNK9C_OUTLINE10outer_areaEv
_ZNK9C_OUTLINE11plot_normedERK6DENORMN10ScrollView5ColorEPS3_
_ZNK9C_OUTLINE14increment_stepEiiP6ICOORDPiS2_
_ZNK9C_OUTLINE14render_outlineEiiP3Pix
_ZNK9C_OUTLINE14turn_directionEv
_ZNK9C_OUTLINE14winding_numberE6ICOORD
_ZNK9C_OUTLINE15IsLegallyNestedEv
_ZNK9C_OUTLINE4areaEv
_ZNK9C_OUTLINE4plotEP10ScrollViewNS0_5ColorE
_ZNK9C_OUTLINE6renderEiiP3Pix
_ZNK9C_OUTLINE9perimeterEv
_ZNK9C_OUTLINEltERKS_
_ZNK9OSResults12print_scoresEi
_ZNK9OSResults12print_scoresEv
_ZNK9OSResults15get_best_scriptEi
_ZNK9tesseract10BeamSearch11SplitByNodeEPNS_12SearchObjectEPNS_10SearchNodeEPiPP4Boxa
_ZNK9tesseract10BeamSearch3AltEi
_ZNK9tesseract10BeamSearch6ColumnEi
_ZNK9tesseract10BeamSearch8BestNodeEv
_ZNK9tesseract10BeamSearch8SizeCostEPNS_12SearchObjectEPNS_10SearchNodeEPPi
_ZNK9tesseract10BeamSearch9BackTrackEPNS_12SearchObjectEPNS_10SearchNodeEPiPS5_PP4Boxa
_ZNK9tesseract10BeamSearch9BackTrackEPNS_12SearchObjectEiPiPS3_PP4Boxa
_ZNK9tesseract10ColSegment8BoxColorEv
_ZNK9tesseract10DetLineFit23NumberOfMisfittedPointsEd
_ZNK9tesseract10DetLineFit33SufficientPointsForIndependentFitEv
_ZNK9tesseract10ShapeTable10CommonFontEii
_ZNK9tesseract10ShapeTable10SummaryStrEv
_ZNK9tesseract10ShapeTable13AlreadyMergedEii
_ZNK9tesseract10ShapeTable13EqualUnicharsEii
_ZNK9tesseract10ShapeTable13SubsetUnicharEii
_ZNK9tesseract10ShapeTable14CommonUnicharsEii
_ZNK9tesseract10ShapeTable14MaxNumUnicharsEv
_ZNK9tesseract10ShapeTable15MasterFontCountEi
_ZNK9tesseract10ShapeTable15NumMasterShapesEv
_ZNK9tesseract10ShapeTable17AddShapeToResultsERKNS_11ShapeRatingEP13GenericVectorIiEPS4_INS_13UnicharRatingEE
_ZNK9tesseract10ShapeTable18MasterUnicharCountEi
_ZNK9tesseract10ShapeTable18MergeEqualUnicharsEiii
_ZNK9tesseract10ShapeTable18MergeSubsetUnicharEiii
_ZNK9tesseract10ShapeTable18MergedUnicharCountEii
_ZNK9tesseract10ShapeTable19AddUnicharToResultsEifP13GenericVectorIiEPS1_INS_13UnicharRatingEE
_ZNK9tesseract10ShapeTable19AnyMultipleUnicharsEv
_ZNK9tesseract10ShapeTable22GetFirstUnicharAndFontEiPiS1_
_ZNK9tesseract10ShapeTable22MasterDestinationIndexEi
_ZNK9tesseract10ShapeTable8DebugStrEi
_ZNK9tesseract10ShapeTable8NumFontsEv
_ZNK9tesseract10ShapeTable9FindShapeEii
_ZNK9tesseract10ShapeTable9SerializeEP6_iobuf
_ZNK9tesseract11BaselineRow12SpaceBetweenERKS0_
_ZNK9tesseract11BaselineRow12StraightYAtXEd
_ZNK9tesseract11BaselineRow13BaselineAngleEv
_ZNK9tesseract11BaselineRow22SetupOldLineParametersEP6TO_ROW
_ZNK9tesseract11BaselineRow24PerpDistanceFromBaselineERK6FCOORD
_ZNK9tesseract11BaselineRow5PrintEv
_ZNK9tesseract11BaselineRow8PerpDispERK6FCOORD
_ZNK9tesseract11CharBigrams18MeanCostWithSpacesEPKi
_ZNK9tesseract11CharBigrams4CostEPKiPNS_7CharSetE
_ZNK9tesseract11CharBigrams8PairCostEii
_ZNK9tesseract11ParamsModel10EquivalentERKS0_
_ZNK9tesseract11ParamsModel10SaveToFileEPKc
_ZNK9tesseract11ParamsModel11ComputeCostEPKf
_ZNK9tesseract11StrokeWidth16NoNoiseInBetweenERK4TBOXS3_
_ZNK9tesseract11TableFinder10gridheightEv
_ZNK9tesseract11TableFinder18AllowTextPartitionERKNS_12ColPartitionE
_ZNK9tesseract11TableFinder23HasWideOrNoInterWordGapEPNS_12ColPartitionE
_ZNK9tesseract11TableFinder5bleftEv
_ZNK9tesseract11TableFinder6trightEv
_ZNK9tesseract11TableFinder8gridsizeEv
_ZNK9tesseract11TableFinder9AllowBlobERK8BLOBNBOX
_ZNK9tesseract11TableFinder9gridwidthEv
_ZNK9tesseract11TessBaseAPI14GetIntVariableEPKcPi
_ZNK9tesseract11TessBaseAPI14GetPageSegModeEv
_ZNK9tesseract11TessBaseAPI14PrintVariablesEP6_iobuf
_ZNK9tesseract11TessBaseAPI15GetBoolVariableEPKcPb
_ZNK9tesseract11TessBaseAPI17GetDoubleVariableEPKcPd
_ZNK9tesseract11TessBaseAPI17GetStringVariableEPKc
_ZNK9tesseract11TessBaseAPI18GetCubeRecoContextEv
_ZNK9tesseract11TessBaseAPI24GetInitLanguagesAsStringEv
_ZNK9tesseract11TessBaseAPI26GetLoadedLanguagesAsVectorEP13GenericVectorI6STRINGE
_ZNK9tesseract11TessBaseAPI29GetAvailableLanguagesAsVectorEP13GenericVectorI6STRINGE
_ZNK9tesseract11TessBaseAPI30GetThresholdedImageScaleFactorEv
_ZNK9tesseract11TessBaseAPI7GetDawgEi
_ZNK9tesseract11TessBaseAPI8NumDawgsEv
_ZNK9tesseract12ColPartition11ShallowCopyEv
_ZNK9tesseract12ColPartition12LeftBlobRuleEv
_ZNK9tesseract12ColPartition12SizesSimilarERKS0_
_ZNK9tesseract12ColPartition12SpacingEqualEii
_ZNK9tesseract12ColPartition13MatchingSizesERKS0_
_ZNK9tesseract12ColPartition13PartitionTypeENS_18ColumnSpanningTypeE
_ZNK9tesseract12ColPartition13RightBlobRuleEv
_ZNK9tesseract12ColPartition13SpacingsEqualERKS0_i
_ZNK9tesseract12ColPartition15MatchingColumnsERKS0_
_ZNK9tesseract12ColPartition15SummedSpacingOKERKS0_ii
_ZNK9tesseract12ColPartition16IsInSameColumnAsERKS0_
_ZNK9tesseract12ColPartition16OKDiacriticMergeERKS0_b
_ZNK9tesseract12ColPartition16TopSpacingMarginEi
_ZNK9tesseract12ColPartition17MatchingTextColorERKS0_
_ZNK9tesseract12ColPartition19BottomSpacingMarginEi
_ZNK9tesseract12ColPartition19MatchingStrokeWidthERKS0_dd
_ZNK9tesseract12ColPartition19SpecialBlobsDensityE19BlobSpecialTextType
_ZNK9tesseract12ColPartition21ConfirmNoTabViolationERKS0_
_ZNK9tesseract12ColPartition5PrintEv
_ZNK9tesseract12ColPartition8BoxColorEv
_ZNK9tesseract12IndexMapBiDi10SparseSizeEv
_ZNK9tesseract12IndexMapBiDi11MapFeaturesERK13GenericVectorIiEPS2_
_ZNK9tesseract12IndexMapBiDi15SparseToCompactEi
_ZNK9tesseract12IndexMapBiDi9SerializeEP6_iobuf
_ZNK9tesseract12PageIterator11BoundingBoxENS_17PageIteratorLevelEPiS2_S2_S2_
_ZNK9tesseract12PageIterator11BoundingBoxENS_17PageIteratorLevelEiPiS2_S2_S2_
_ZNK9tesseract12PageIterator11OrientationEPNS_11OrientationEPNS_16WritingDirectionEPNS_13TextlineOrderEPf
_ZNK9tesseract12PageIterator12BlockPolygonEv
_ZNK9tesseract12PageIterator13ParagraphInfoEPNS_22ParagraphJustificationEPbS3_Pi
_ZNK9tesseract12PageIterator14GetBinaryImageENS_17PageIteratorLevelE
_ZNK9tesseract12PageIterator15IsAtBeginningOfENS_17PageIteratorLevelE
_ZNK9tesseract12PageIterator16IsAtFinalElementENS_17PageIteratorLevelES1_
_ZNK9tesseract12PageIterator19BoundingBoxInternalENS_17PageIteratorLevelEPiS2_S2_S2_
_ZNK9tesseract12PageIterator20PositionedAtSameWordEPK11PAGE_RES_IT
_ZNK9tesseract12PageIterator32IsWithinFirstTextlineOfParagraphEv
_ZNK9tesseract12PageIterator3CmpERKS0_
_ZNK9tesseract12PageIterator5EmptyENS_17PageIteratorLevelE
_ZNK9tesseract12PageIterator8BaselineENS_17PageIteratorLevelEPiS2_S2_S2_
_ZNK9tesseract12PageIterator8GetImageENS_17PageIteratorLevelEiPiS2_
_ZNK9tesseract12PageIterator9BlockTypeEv
_ZNK9tesseract12SquishedDawg10print_edgeEx
_ZNK9tesseract12SquishedDawg10print_nodeExi
_ZNK9tesseract12SquishedDawg11edge_letterEx
_ZNK9tesseract12SquishedDawg11end_of_wordEx
_ZNK9tesseract12SquishedDawg12edge_char_ofExib
_ZNK9tesseract12SquishedDawg14build_node_mapEPi
_ZNK9tesseract12SquishedDawg14unichar_ids_ofExP13GenericVectorINS_9NodeChildEEb
_ZNK9tesseract12SquishedDawg17num_forward_edgesEx
_ZNK9tesseract12SquishedDawg9next_nodeEx
_ZNK9tesseract12WordUnigrams12CostInternalEPKc
_ZNK9tesseract12WordUnigrams4CostEPKiPNS_9LangModelEPNS_7CharSetE
_ZNK9tesseract13BaselineBlock20SetupBlockParametersEv
_ZNK9tesseract13FontInfoTable25SetContainsFontPropertiesEiRK13GenericVectorIiE
_ZNK9tesseract13FontInfoTable33SetContainsMultipleFontPropertiesERK13GenericVectorIiE
_ZNK9tesseract13FontInfoTable9SerializeEP6_iobuf
_ZNK9tesseract13IntFeatureMap10MapFeatureERK18INT_FEATURE_STRUCT
_ZNK9tesseract13IntFeatureMap12IndexFeatureERK18INT_FEATURE_STRUCT
_ZNK9tesseract13IntFeatureMap13OffsetFeatureEii
_ZNK9tesseract13IntFeatureMap15MapIndexFeatureEi
_ZNK9tesseract13IntFeatureMap16DebugMapFeaturesERK13GenericVectorIiE
_ZNK9tesseract13IntFeatureMap17InverseMapFeatureEi
_ZNK9tesseract13IntFeatureMap19InverseIndexFeatureEi
_ZNK9tesseract13IntFeatureMap19IsMapFeatureDeletedEi
_ZNK9tesseract13IntFeatureMap20ComputeOffsetFeatureEii
_ZNK9tesseract13LanguageModel16GetNextParentVSEEbbPK11BLOB_CHOICEhRK10UNICHARSETP8WERD_RESPNS_20ViterbiStateEntry_ITEPh
_ZNK9tesseract13LanguageModel21GetTopLowerUpperDigitEP16BLOB_CHOICE_LISTPP11BLOB_CHOICES5_S5_
_ZNK9tesseract13LanguageModel27SetTopParentLowerUpperDigitEPNS_18LanguageModelStateE
_ZNK9tesseract13MasterTrainer9SerializeEP6_iobuf
_ZNK9tesseract13TessLangModel7GetDawgEi
_ZNK9tesseract13TessLangModel8NumDawgsEv
_ZNK9tesseract13WordSizeModel4CostEPPNS_8CharSampEi
_ZNK9tesseract14ChoiceIterator10ConfidenceEv
_ZNK9tesseract14ChoiceIterator11GetUTF8TextEv
_ZNK9tesseract14CubeClassifier13GetShapeTableEv
_ZNK9tesseract14EquationDetect13PaintColPartsERK6STRING
_ZNK9tesseract14EquationDetect14CountAlignmentERK13GenericVectorIiEi
_ZNK9tesseract14EquationDetect16CheckSeedDensityEffPKNS_12ColPartitionE
_ZNK9tesseract14EquationDetect17GetOutputTiffNameEPKcP6STRING
_ZNK9tesseract14EquationDetect17PaintSpecialTextsERK6STRING
_ZNK9tesseract14EquationDetect18IsNearMathNeighborEiPKNS_12ColPartitionE
_ZNK9tesseract14EquationDetect19IsNearSmallNeighborERK4TBOXS3_
_ZNK9tesseract14EquationDetect22EstimateTypeForUnicharERK10UNICHARSETi
_ZNK9tesseract14EquationDetect24CheckSeedNeighborDensityEPKNS_12ColPartitionE
_ZNK9tesseract14EquationDetect24PrintSpecialBlobsDensityEPKNS_12ColPartitionE
_ZNK9tesseract14IntFeatureDist15FeatureDistanceERK13GenericVectorIiE
_ZNK9tesseract14IntFeatureDist20DebugFeatureDistanceERK13GenericVectorIiE
_ZNK9tesseract14PixelHistogram19GetHistogramMaximumEPi
_ZNK9tesseract14ResultIterator11GetUTF8TextENS_17PageIteratorLevelE
_ZNK9tesseract14ResultIterator12LTRWordIndexEv
_ZNK9tesseract14ResultIterator14ParagraphIsLtrEv
_ZNK9tesseract14ResultIterator15IsAtBeginningOfENS_17PageIteratorLevelE
_ZNK9tesseract14ResultIterator16IsAtFinalElementENS_17PageIteratorLevelES1_
_ZNK9tesseract14ResultIterator17AppendSuffixMarksEP6STRING
_ZNK9tesseract14ResultIterator18AppendUTF8WordTextEP6STRING
_ZNK9tesseract14ResultIterator18CalculateBlobOrderEP13GenericVectorIiE
_ZNK9tesseract14ResultIterator21CurrentParagraphIsLtrEv
_ZNK9tesseract14ResultIterator21IsAtFinalSymbolOfWordEv
_ZNK9tesseract14ResultIterator21IsAtFirstSymbolOfWordEv
_ZNK9tesseract14ResultIterator22CalculateTextlineOrderEbRKNS_17LTRResultIteratorEP13GenericVectorI21StrongScriptDirectionEP17GenericVectorEqEqIiE
_ZNK9tesseract14ResultIterator22CalculateTextlineOrderEbRKNS_17LTRResultIteratorEP17GenericVectorEqEqIiE
_ZNK9tesseract14ResultIterator23AppendUTF8ParagraphTextEP6STRING
_ZNK9tesseract14ResultIterator9BidiDebugEi
_ZNK9tesseract14SampleIterator13GetShapeEntryEv
_ZNK9tesseract14SampleIterator13MutableSampleEv
_ZNK9tesseract14SampleIterator16GetSparseClassIDEv
_ZNK9tesseract14SampleIterator17GetCompactClassIDEv
_ZNK9tesseract14SampleIterator17GlobalSampleIndexEv
_ZNK9tesseract14SampleIterator17SparseCharsetSizeEv
_ZNK9tesseract14SampleIterator18CompactCharsetSizeEv
_ZNK9tesseract14SampleIterator5AtEndEv
_ZNK9tesseract14SampleIterator9GetSampleEv
_ZNK9tesseract14TessClassifier13GetShapeTableEv
_ZNK9tesseract14TessClassifier13GetUnicharsetEv
_ZNK9tesseract14TrainingSample11RenderToPixEPK10UNICHARSET
_ZNK9tesseract14TrainingSample12GetCNFeatureEv
_ZNK9tesseract14TrainingSample12GetSamplePixEiP3Pix
_ZNK9tesseract14TrainingSample14RandomizedCopyEi
_ZNK9tesseract14TrainingSample15DisplayFeaturesEN10ScrollView5ColorEPS1_
_ZNK9tesseract14TrainingSample4CopyEv
_ZNK9tesseract14TrainingSample9SerializeEP6_iobuf
_ZNK9tesseract15CubeRecoContext15GetDataFilePathEPSs
_ZNK9tesseract15IntFeatureSpace13IndexFeaturesEPK18INT_FEATURE_STRUCTiP13GenericVectorIiE
_ZNK9tesseract15IntFeatureSpace16XYToFeatureIndexEii
_ZNK9tesseract15IntFeatureSpace17PositionFromIndexEi
_ZNK9tesseract15IntFeatureSpace19PositionFromBucketsEiii
_ZNK9tesseract15IntFeatureSpace20IndexAndSortFeaturesEPK18INT_FEATURE_STRUCTiP13GenericVectorIiE
_ZNK9tesseract15IntFeatureSpace9SerializeEP6_iobuf
_ZNK9tesseract15ParagraphTheory4FitsEPK13GenericVectorINS_19RowScratchRegistersEEii
_ZNK9tesseract15ParagraphTheory7IndexOfEPK14ParagraphModel
_ZNK9tesseract15ShapeClassifier12PrintResultsEPKcRK13GenericVectorINS_11ShapeRatingEE
_ZNK9tesseract15ShapeClassifier13GetUnicharsetEv
_ZNK9tesseract15ShapeClassifier19UnicharPrintResultsEPKcRK13GenericVectorINS_13UnicharRatingEE
_ZNK9tesseract15ShapeClassifier23FilterDuplicateUnicharsEP13GenericVectorINS_11ShapeRatingEE
_ZNK9tesseract15StructuredTable10cell_countEv
_ZNK9tesseract15StructuredTable10row_heightEi
_ZNK9tesseract15StructuredTable11space_aboveEv
_ZNK9tesseract15StructuredTable11space_belowEv
_ZNK9tesseract15StructuredTable12bounding_boxEv
_ZNK9tesseract15StructuredTable12column_countEv
_ZNK9tesseract15StructuredTable12column_widthEi
_ZNK9tesseract15StructuredTable16DoesPartitionFitERKNS_12ColPartitionE
_ZNK9tesseract15StructuredTable18FindVerticalMarginEPNS_16ColPartitionGridEib
_ZNK9tesseract15StructuredTable20FindHorizontalMarginEPNS_16ColPartitionGridEib
_ZNK9tesseract15StructuredTable8is_linedEv
_ZNK9tesseract15StructuredTable9row_countEv
_ZNK9tesseract15TessLangModEdge10EdgeStringEv
_ZNK9tesseract15TessLangModEdge10IsTerminalEv
_ZNK9tesseract15TessLangModEdge11DescriptionEv
_ZNK9tesseract15TessLangModEdge11IsIdenticalEPNS_11LangModEdgeE
_ZNK9tesseract15TessLangModEdge4HashEv
_ZNK9tesseract15TessLangModEdge5IsEOWEv
_ZNK9tesseract15TessLangModEdge5IsOODEv
_ZNK9tesseract15TessLangModEdge6IsRootEv
_ZNK9tesseract15TessLangModEdge7ClassIDEv
_ZNK9tesseract15TessLangModEdge8PathCostEv
_ZNK9tesseract15UnicharAndFonts9SerializeEP6_iobuf
_ZNK9tesseract16ImageThresholder18ThresholdRectToPixEP3PixiPKiS4_PS2_
_ZNK9tesseract16ImageThresholder22OtsuThresholdRectToPixEP3PixPS2_
_ZNK9tesseract16ImageThresholder7IsEmptyEv
_ZNK9tesseract17LTRResultIterator10ConfidenceENS_17PageIteratorLevelE
_ZNK9tesseract17LTRResultIterator11GetUTF8TextENS_17PageIteratorLevelE
_ZNK9tesseract17LTRResultIterator11WordLatticeEPi
_ZNK9tesseract17LTRResultIterator13HasBlamerInfoEv
_ZNK9tesseract17LTRResultIterator13WordDirectionEv
_ZNK9tesseract17LTRResultIterator13WordIsNumericEv
_ZNK9tesseract17LTRResultIterator14GetBlamerDebugEv
_ZNK9tesseract17LTRResultIterator14HasTruthStringEv
_ZNK9tesseract17LTRResultIterator15SymbolIsDropcapEv
_ZNK9tesseract17LTRResultIterator17EquivalentToTruthEPKc
_ZNK9tesseract17LTRResultIterator17SymbolIsSubscriptEv
_ZNK9tesseract17LTRResultIterator17WordTruthUTF8TextEv
_ZNK9tesseract17LTRResultIterator18WordFontAttributesEPbS1_S1_S1_S1_S1_PiS2_
_ZNK9tesseract17LTRResultIterator18WordNormedUTF8TextEv
_ZNK9tesseract17LTRResultIterator19SymbolIsSuperscriptEv
_ZNK9tesseract17LTRResultIterator20WordIsFromDictionaryEv
_ZNK9tesseract17LTRResultIterator23GetParamsTrainingBundleEv
_ZNK9tesseract17LTRResultIterator23WordRecognitionLanguageEv
_ZNK9tesseract17LTRResultIterator25GetBlamerMisadaptionDebugEv
_ZNK9tesseract17TrainingSampleSet13FontClassInfo9SerializeEP6_iobuf
_ZNK9tesseract17TrainingSampleSet14SampleToStringERKNS_14TrainingSampleE
_ZNK9tesseract17TrainingSampleSet15NumClassSamplesEiib
_ZNK9tesseract17TrainingSampleSet16GetCanonicalDistEii
_ZNK9tesseract17TrainingSampleSet16GetCloudFeaturesEii
_ZNK9tesseract17TrainingSampleSet17GlobalSampleIndexEiii
_ZNK9tesseract17TrainingSampleSet17ReliablySeparableEiiiiRKNS_13IntFeatureMapEb
_ZNK9tesseract17TrainingSampleSet18GetCanonicalSampleEii
_ZNK9tesseract17TrainingSampleSet19AddAllFontsForClassEiPNS_5ShapeE
_ZNK9tesseract17TrainingSampleSet20GetCanonicalFeaturesEii
_ZNK9tesseract17TrainingSampleSet22ComputeClusterDistanceEiiiiRKNS_13IntFeatureMapE
_ZNK9tesseract17TrainingSampleSet25DisplaySamplesWithFeatureEiRKNS_5ShapeERKNS_15IntFeatureSpaceEN10ScrollView5ColorEPS7_
_ZNK9tesseract17TrainingSampleSet9GetSampleEi
_ZNK9tesseract17TrainingSampleSet9GetSampleEiii
_ZNK9tesseract17TrainingSampleSet9SerializeEP6_iobuf
_ZNK9tesseract17ViterbiStateEntry5PrintEPKc
_ZNK9tesseract18CubeTessClassifier13GetShapeTableEv
_ZNK9tesseract18ShiroRekhaSplitter13GetBoxForTBOXERK4TBOX
_ZNK9tesseract18ShiroRekhaSplitter14DumpDebugImageEPKc
_ZNK9tesseract18TessResultRenderer9GetOutputEPPKcPi
_ZNK9tesseract18TextlineProjection11EvaluateBoxERK4TBOXPK6DENORMb
_ZNK9tesseract18TextlineProjection16VerticalDistanceEbiii
_ZNK9tesseract18TextlineProjection17BoxOutOfHTextlineERK4TBOXPK6DENORMb
_ZNK9tesseract18TextlineProjection17DisplayProjectionEv
_ZNK9tesseract18TextlineProjection18HorizontalDistanceEbiii
_ZNK9tesseract18TextlineProjection19EvaluateBoxInternalERK4TBOXPK6DENORMbPiS7_S7_S7_
_ZNK9tesseract18TextlineProjection19ImageXToProjectionXEi
_ZNK9tesseract18TextlineProjection19ImageYToProjectionYEi
_ZNK9tesseract18TextlineProjection20DistanceOfBoxFromBoxERK4TBOXS3_bPK6DENORMb
_ZNK9tesseract18TextlineProjection20EvaluateColPartitionERKNS_12ColPartitionEPK6DENORMb
_ZNK9tesseract18TextlineProjection20MoveNonTextlineBlobsEP13BLOBNBOX_LISTS2_
_ZNK9tesseract18TextlineProjection20TransformToPixCoordsEPK6DENORMP6TPOINT
_ZNK9tesseract18TextlineProjection21BestMeanGradientInRowEPK6DENORMsssb
_ZNK9tesseract18TextlineProjection21TruncateToImageBoundsEP6TPOINT
_ZNK9tesseract18TextlineProjection23MeanPixelsInLineSegmentEPK6DENORMi6TPOINTS4_
_ZNK9tesseract18TextlineProjection24BestMeanGradientInColumnEPK6DENORMsssb
_ZNK9tesseract18TextlineProjection26DistanceOfBoxFromPartitionERK4TBOXRKNS_12ColPartitionEPK6DENORMb
_ZNK9tesseract19RowScratchRegisters11GetLineTypeEPK14ParagraphModel
_ZNK9tesseract19RowScratchRegisters11GetLineTypeEv
_ZNK9tesseract19RowScratchRegisters15AppendDebugInfoERKNS_15ParagraphTheoryEP13GenericVectorI6STRINGE
_ZNK9tesseract19RowScratchRegisters15StartHypothesesEP17GenericVectorEqEqIPK14ParagraphModelE
_ZNK9tesseract19RowScratchRegisters16StrongHypothesesEP17GenericVectorEqEqIPK14ParagraphModelE
_ZNK9tesseract19RowScratchRegisters17NonNullHypothesesEP17GenericVectorEqEqIPK14ParagraphModelE
_ZNK9tesseract19RowScratchRegisters20UniqueBodyHypothesisEv
_ZNK9tesseract19RowScratchRegisters21UniqueStartHypothesisEv
_ZNK9tesseract4Bmp810IsBlankRowEi
_ZNK9tesseract4Bmp811IsIdenticalEPS0_
_ZNK9tesseract4Bmp812FindConCompsEPii
_ZNK9tesseract4Bmp813IsBlankColumnEi
_ZNK9tesseract4Bmp815ForegroundRatioEv
_ZNK9tesseract4Bmp819HorizontalHistogramEv
_ZNK9tesseract4Bmp820SaveBmp2CharDumpFileEP6_iobuf
_ZNK9tesseract4Bmp830MeanHorizontalHistogramEntropyEv
_ZNK9tesseract4Bmp84CopyEiiiiPS0_
_ZNK9tesseract4Dawg11match_wordsEP11WERD_CHOICEixi
_ZNK9tesseract4Dawg12word_in_dawgERK11WERD_CHOICE
_ZNK9tesseract4Dawg13iterate_wordsERK10UNICHARSETP13TessCallback1IPK11WERD_CHOICEE
_ZNK9tesseract4Dawg13iterate_wordsERK10UNICHARSETP13TessCallback1IPKcE
_ZNK9tesseract4Dawg14prefix_in_dawgERK11WERD_CHOICEb
_ZNK9tesseract4Dawg15check_for_wordsEPKcRK10UNICHARSETb
_ZNK9tesseract4Dawg17iterate_words_recERK11WERD_CHOICExP13TessCallback1IPS2_E
_ZNK9tesseract4Dawg17pattern_loop_edgeExib
_ZNK9tesseract4Dawg22unichar_id_to_patternsEiRK10UNICHARSETP13GenericVectorIiE
_ZNK9tesseract4Dict10valid_wordERK11WERD_CHOICEb
_ZNK9tesseract4Dict12valid_bigramERK11WERD_CHOICES3_
_ZNK9tesseract4Dict13default_dawgsEPNS_18DawgPositionVectorEb
_ZNK9tesseract4Dict17init_active_dawgsEPNS_18DawgPositionVectorEb
_ZNK9tesseract4Dict18def_letter_is_okayEPvib
_ZNK9tesseract4Dict19ProcessPatternEdgesEPKNS_4DawgERKNS_12DawgPositionEibPNS_18DawgPositionVectorEP12PermuterType
_ZNK9tesseract4Trie10print_nodeExi
_ZNK9tesseract4Trie11edge_letterEx
_ZNK9tesseract4Trie11end_of_wordEx
_ZNK9tesseract4Trie12edge_char_ofExib
_ZNK9tesseract4Trie12edge_char_ofExxibiPPyPx
_ZNK9tesseract4Trie14unichar_ids_ofExP13GenericVectorINS_9NodeChildEEb
_ZNK9tesseract4Trie17pattern_loop_edgeExib
_ZNK9tesseract4Trie22unichar_id_to_patternsEiRK10UNICHARSETP13GenericVectorIiE
_ZNK9tesseract4Trie9next_nodeEx
_ZNK9tesseract5Shape10IsSubsetOfERKS0_
_ZNK9tesseract5Shape12ContainsFontEi
_ZNK9tesseract5Shape15ContainsUnicharEi
_ZNK9tesseract5Shape22ContainsFontPropertiesERKNS_13FontInfoTableEj
_ZNK9tesseract5Shape22ContainsUnicharAndFontEii
_ZNK9tesseract5Shape30ContainsMultipleFontPropertiesERKNS_13FontInfoTableE
_ZNK9tesseract5Shape9SerializeEP6_iobuf
_ZNK9tesseract5ShapeeqERKS0_
_ZNK9tesseract7AltList8BestCostEPi
_ZNK9tesseract7BoxWord19ProcessMatchedBlobsERK5TWERDP13TessCallback1IiE
_ZNK9tesseract7IntGrid13AnyZeroInRectERK4TBOX
_ZNK9tesseract7IntGrid14ThresholdToPixEi
_ZNK9tesseract7IntGrid16NeighbourhoodSumEv
_ZNK9tesseract7IntGrid23RectMostlyOverThresholdERK4TBOXi
_ZNK9tesseract8CharSamp11stringLabelEv
_ZNK9tesseract8CharSamp17Save2CharDumpFileEP6_iobuf
_ZNK9tesseract8CharSamp5CloneEv
_ZNK9tesseract8CharSamp7SegmentEPibii
_ZNK9tesseract8Classify16ShapeIDToClassIDEi
_ZNK9tesseract8Classify17ClassIDToDebugStrEPK20INT_TEMPLATES_STRUCTii
_ZNK9tesseract8Classify31ClassAndConfigIDToFontOrShapeIDEii
_ZNK9tesseract8FontInfo9SerializeEP6_iobuf
_ZNK9tesseract8GridBase10GridCoordsEiiPiS1_
_ZNK9tesseract8GridBase14ClipGridCoordsEPiS1_
_ZNK9tesseract8IndexMap10SparseSizeEv
_ZNK9tesseract8IndexMap15SparseToCompactEi
_ZNK9tesseract8IndexMap9SerializeEP6_iobuf
_ZNK9tesseract9BitVector10NextSetBitEi
_ZNK9tesseract9BitVector10NumSetBitsEv
_ZNK9tesseract9BitVector9SerializeEP6_iobuf
_ZNK9tesseract9TabVector11ShallowCopyEv
_ZNK9tesseract9TabVector9SimilarToERK6ICOORDRKS0_PNS_8BlobGridE
_ZNK9tesseract9Tesseract10join_wordsEP8WERD_RESS2_P12BlamerBundle
_ZNK9tesseract9Tesseract10split_wordEP8WERD_RESiPS2_PP12BlamerBundle
_ZNK9tesseract9Tesseract21BelievableSuperscriptEbRK8WERD_RESfPiS4_
_ZNKSbIiSt11char_traitsIiESaIiEE7compareEPKi
_ZNKSt10_HashtableIP8BLOBNBOXS1_SaIS1_ENSt8__detail9_IdentityESt8equal_toIS1_EN9tesseract7PtrHashIS0_EENS3_18_Mod_range_hashingENS3_20_Default_ranged_hashENS3_20_Prime_rehash_policyENS3_17_Hashtable_traitsILb1ELb1ELb1EEEE19_M_find_before_nodeEyRKS1_y
_ZNKSt10_HashtableIPN9tesseract10ColSegmentES2_SaIS2_ENSt8__detail9_IdentityESt8equal_toIS2_ENS0_7PtrHashIS1_EENS4_18_Mod_range_hashingENS4_20_Default_ranged_hashENS4_20_Prime_rehash_policyENS4_17_Hashtable_traitsILb1ELb1ELb1EEEE19_M_find_before_nodeEyRKS2_y
_ZNKSt10_HashtableIPN9tesseract12ColPartitionES2_SaIS2_ENSt8__detail9_IdentityESt8equal_toIS2_ENS0_7PtrHashIS1_EENS4_18_Mod_range_hashingENS4_20_Default_ranged_hashENS4_20_Prime_rehash_policyENS4_17_Hashtable_traitsILb1ELb1ELb1EEEE19_M_find_before_nodeEyRKS2_y
_ZNKSt5ctypeIcE8do_widenEc
_ZNKSt8_Rb_treeISt4pairIP10ScrollView11SVEventTypeES0_IKS4_S0_IP11SVSemaphoreP7SVEventEESt10_Select1stISB_ESt4lessIS4_ESaISB_EE4findERS5_
_ZNSbIiSt11char_traitsIiESaIiEE12_M_leak_hardEv
_ZNSbIiSt11char_traitsIiESaIiEE4_Rep20_S_empty_rep_storageE DATA
_ZNSbIiSt11char_traitsIiESaIiEE7reserveEy
_ZNSbIiSt11char_traitsIiESaIiEE9_M_mutateEyyy
_ZNSt10_HashtableIP8BLOBNBOXS1_SaIS1_ENSt8__detail9_IdentityESt8equal_toIS1_EN9tesseract7PtrHashIS0_EENS3_18_Mod_range_hashingENS3_20_Default_ranged_hashENS3_20_Prime_rehash_policyENS3_17_Hashtable_traitsILb1ELb1ELb1EEEE21_M_insert_unique_nodeEyyPNS3_10_Hash_nodeIS1_Lb1EEE
_ZNSt10_HashtableIP8BLOBNBOXS1_SaIS1_ENSt8__detail9_IdentityESt8equal_toIS1_EN9tesseract7PtrHashIS0_EENS3_18_Mod_range_hashingENS3_20_Default_ranged_hashENS3_20_Prime_rehash_policyENS3_17_Hashtable_traitsILb1E