LIBRARY opencv_core249_vc90.dll
EXPORTS
??$analyzeValue@H@CommandLineParser@cv@@IEAAHAEBV?$basic_string@DU?$char_traits@D@std@@V?$allocator@D@2@@std@@_N@Z
??$analyzeValue@I@CommandLineParser@cv@@IEAAIAEBV?$basic_string@DU?$char_traits@D@std@@V?$allocator@D@2@@std@@_N@Z
??$analyzeValue@M@CommandLineParser@cv@@IEAAMAEBV?$basic_string@DU?$char_traits@D@std@@V?$allocator@D@2@@std@@_N@Z
??$analyzeValue@N@CommandLineParser@cv@@IEAANAEBV?$basic_string@DU?$char_traits@D@std@@V?$allocator@D@2@@std@@_N@Z
??$analyzeValue@V?$basic_string@DU?$char_traits@D@std@@V?$allocator@D@2@@std@@@CommandLineParser@cv@@IEAA?AV?$basic_string@DU?$char_traits@D@std@@V?$allocator@D@2@@std@@AEBV23@_N@Z
??$analyzeValue@_K@CommandLineParser@cv@@IEAA_KAEBV?$basic_string@DU?$char_traits@D@std@@V?$allocator@D@2@@std@@_N@Z
??$get@_N@CommandLineParser@cv@@QEAA_NAEBV?$basic_string@DU?$char_traits@D@std@@V?$allocator@D@2@@std@@_N@Z
??0Algorithm@cv@@QEAA@AEBV01@@Z
??0Algorithm@cv@@QEAA@XZ
??0AlgorithmInfo@cv@@QEAA@AEBV?$basic_string@DU?$char_traits@D@std@@V?$allocator@D@2@@std@@P6APEAVAlgorithm@1@XZ@Z
??0AlgorithmInfoData@cv@@QEAA@AEBU01@@Z
??0AlgorithmInfoData@cv@@QEAA@XZ
??0Arrays@ogl@cv@@QEAA@AEBV012@@Z
??0Arrays@ogl@cv@@QEAA@XZ
??0AutoLock@cv@@QEAA@AEAVMutex@1@@Z
??0Buffer@ogl@cv@@QEAA@AEBV012@@Z
??0Buffer@ogl@cv@@QEAA@AEBV_InputArray@2@W4Target@012@_N@Z
??0Buffer@ogl@cv@@QEAA@HHHI_N@Z
??0Buffer@ogl@cv@@QEAA@HHHW4Target@012@_N@Z
??0Buffer@ogl@cv@@QEAA@V?$Size_@H@2@HI_N@Z
??0Buffer@ogl@cv@@QEAA@V?$Size_@H@2@HW4Target@012@_N@Z
??0Buffer@ogl@cv@@QEAA@XZ
??0CommandLineParser@cv@@QEAA@AEBV01@@Z
??0CommandLineParser@cv@@QEAA@HQEBQEBDPEBD@Z
??0CvModule@@QEAA@PEAUCvModuleInfo@@@Z
??0CvOpenGlFuncTab@@QEAA@AEBV0@@Z
??0CvOpenGlFuncTab@@QEAA@XZ
??0CvType@@QEAA@PEBDP6AHPEBX@ZP6AXPEAPEAX@ZP6APEAXPEAUCvFileStorage@@PEAUCvFileNode@@@ZP6AX501UCvAttrList@@@ZP6APEAX1@Z@Z
??0DeviceInfo@gpu@cv@@QEAA@AEBV012@@Z
??0DeviceInfo@gpu@cv@@QEAA@H@Z
??0DeviceInfo@gpu@cv@@QEAA@XZ
??0Exception@cv@@QEAA@AEBV01@@Z
??0Exception@cv@@QEAA@HAEBV?$basic_string@DU?$char_traits@D@std@@V?$allocator@D@2@@std@@00H@Z
??0Exception@cv@@QEAA@XZ
??0FileNode@cv@@QEAA@AEBV01@@Z
??0FileNode@cv@@QEAA@PEBUCvFileStorage@@PEBUCvFileNode@@@Z
??0FileNode@cv@@QEAA@XZ
??0FileNodeIterator@cv@@QEAA@AEBV01@@Z
??0FileNodeIterator@cv@@QEAA@PEBUCvFileStorage@@PEBUCvFileNode@@_K@Z
??0FileNodeIterator@cv@@QEAA@XZ
??0FileStorage@cv@@QEAA@AEBV01@@Z
??0FileStorage@cv@@QEAA@AEBV?$basic_string@DU?$char_traits@D@std@@V?$allocator@D@2@@std@@H0@Z
??0FileStorage@cv@@QEAA@PEAUCvFileStorage@@@Z
??0FileStorage@cv@@QEAA@XZ
??0Formatted@cv@@QEAA@AEBU01@@Z
??0Formatted@cv@@QEAA@AEBVMat@1@PEBVFormatter@1@AEBV?$vector@HV?$allocator@H@std@@@std@@@Z
??0Formatted@cv@@QEAA@AEBVMat@1@PEBVFormatter@1@PEBH@Z
??0Formatter@cv@@QEAA@AEBV01@@Z
??0Formatter@cv@@QEAA@XZ
??0GlArrays@cv@@QEAA@AEBV01@@Z
??0GlArrays@cv@@QEAA@XZ
??0GlBuffer@cv@@QEAA@AEBV01@@Z
??0GlBuffer@cv@@QEAA@AEBV_InputArray@1@W4Usage@01@@Z
??0GlBuffer@cv@@QEAA@HHHW4Usage@01@@Z
??0GlBuffer@cv@@QEAA@V?$Size_@H@1@HW4Usage@01@@Z
??0GlBuffer@cv@@QEAA@W4Usage@01@@Z
??0GlCamera@cv@@QEAA@AEBV01@@Z
??0GlCamera@cv@@QEAA@XZ
??0GlFont@cv@@AEAA@AEBV?$basic_string@DU?$char_traits@D@std@@V?$allocator@D@2@@std@@HW4Weight@01@W4Style@01@@Z
??0GlTexture@cv@@QEAA@AEBV01@@Z
??0GlTexture@cv@@QEAA@AEBV_InputArray@1@_N@Z
??0GlTexture@cv@@QEAA@HHH@Z
??0GlTexture@cv@@QEAA@V?$Size_@H@1@H@Z
??0GlTexture@cv@@QEAA@XZ
??0GpuMat@gpu@cv@@QEAA@AEBV012@@Z
??0GpuMat@gpu@cv@@QEAA@AEBV012@V?$Rect_@H@2@@Z
??0GpuMat@gpu@cv@@QEAA@AEBV012@VRange@2@1@Z
??0GpuMat@gpu@cv@@QEAA@AEBVMat@2@@Z
??0GpuMat@gpu@cv@@QEAA@HHH@Z
??0GpuMat@gpu@cv@@QEAA@HHHPEAX_K@Z
??0GpuMat@gpu@cv@@QEAA@HHHV?$Scalar_@N@2@@Z
??0GpuMat@gpu@cv@@QEAA@V?$Size_@H@2@H@Z
??0GpuMat@gpu@cv@@QEAA@V?$Size_@H@2@HPEAX_K@Z
??0GpuMat@gpu@cv@@QEAA@V?$Size_@H@2@HV?$Scalar_@N@2@@Z
??0GpuMat@gpu@cv@@QEAA@XZ
??0Hdr@SparseMat@cv@@QEAA@AEBU012@@Z
??0Hdr@SparseMat@cv@@QEAA@HPEBHH@Z
??0KDTree@cv@@QEAA@AEBV01@@Z
??0KDTree@cv@@QEAA@AEBV_InputArray@1@0_N@Z
??0KDTree@cv@@QEAA@AEBV_InputArray@1@_N@Z
??0KDTree@cv@@QEAA@XZ
??0LineIterator@cv@@QEAA@AEBVMat@1@V?$Point_@H@1@1H_N@Z
??0MSize@Mat@cv@@QEAA@PEAH@Z
??0MStep@Mat@cv@@QEAA@XZ
??0MStep@Mat@cv@@QEAA@_K@Z
??0Mat@cv@@QEAA@AEBV01@@Z
??0Mat@cv@@QEAA@AEBV01@AEBV?$Rect_@H@1@@Z
??0Mat@cv@@QEAA@AEBV01@AEBVRange@1@1@Z
??0Mat@cv@@QEAA@AEBV01@PEBVRange@1@@Z
??0Mat@cv@@QEAA@AEBVGpuMat@gpu@1@@Z
??0Mat@cv@@QEAA@HHH@Z
??0Mat@cv@@QEAA@HHHAEBV?$Scalar_@N@1@@Z
??0Mat@cv@@QEAA@HHHPEAX_K@Z
??0Mat@cv@@QEAA@HPEBHH@Z
??0Mat@cv@@QEAA@HPEBHHAEBV?$Scalar_@N@1@@Z
??0Mat@cv@@QEAA@HPEBHHPEAXPEB_K@Z
??0Mat@cv@@QEAA@PEBUCvMat@@_N@Z
??0Mat@cv@@QEAA@PEBUCvMatND@@_N@Z
??0Mat@cv@@QEAA@PEBU_IplImage@@_N@Z
??0Mat@cv@@QEAA@V?$Size_@H@1@H@Z
??0Mat@cv@@QEAA@V?$Size_@H@1@HAEBV?$Scalar_@N@1@@Z
??0Mat@cv@@QEAA@V?$Size_@H@1@HPEAX_K@Z
??0Mat@cv@@QEAA@XZ
??0MatAllocator@cv@@QEAA@AEBV01@@Z
??0MatAllocator@cv@@QEAA@XZ
??0MatConstIterator@cv@@QEAA@AEBV01@@Z
??0MatConstIterator@cv@@QEAA@PEBVMat@1@@Z
??0MatConstIterator@cv@@QEAA@PEBVMat@1@HH@Z
??0MatConstIterator@cv@@QEAA@PEBVMat@1@V?$Point_@H@1@@Z
??0MatConstIterator@cv@@QEAA@XZ
??0MatExpr@cv@@QEAA@AEBV01@@Z
??0MatExpr@cv@@QEAA@AEBVMat@1@@Z
??0MatExpr@cv@@QEAA@PEBVMatOp@1@HAEBVMat@1@11NNAEBV?$Scalar_@N@1@@Z
??0MatExpr@cv@@QEAA@XZ
??0MatOp@cv@@QEAA@AEBV01@@Z
??0MatOp@cv@@QEAA@XZ
??0Mutex@cv@@QEAA@AEBV01@@Z
??0Mutex@cv@@QEAA@XZ
??0NAryMatIterator@cv@@QEAA@PEAPEBVMat@1@PEAPEAEH@Z
??0NAryMatIterator@cv@@QEAA@PEAPEBVMat@1@PEAV21@H@Z
??0NAryMatIterator@cv@@QEAA@XZ
??0PCA@cv@@QEAA@AEBV01@@Z
??0PCA@cv@@QEAA@AEBV_InputArray@1@0HH@Z
??0PCA@cv@@QEAA@AEBV_InputArray@1@0HN@Z
??0PCA@cv@@QEAA@XZ
??0ParallelLoopBody@cv@@QEAA@AEBV01@@Z
??0ParallelLoopBody@cv@@QEAA@XZ
??0Param@cv@@QEAA@AEBU01@@Z
??0Param@cv@@QEAA@H_NHP8Algorithm@1@EBAHXZP821@EAAXH@ZAEBV?$basic_string@DU?$char_traits@D@std@@V?$allocator@D@2@@std@@@Z
??0Param@cv@@QEAA@XZ
??0RNG@cv@@QEAA@XZ
??0RNG@cv@@QEAA@_K@Z
??0RNG_MT19937@cv@@QEAA@I@Z
??0RNG_MT19937@cv@@QEAA@XZ
??0Range@cv@@QEAA@AEBUCvSlice@@@Z
??0Range@cv@@QEAA@HH@Z
??0Range@cv@@QEAA@XZ
??0RotatedRect@cv@@QEAA@AEBUCvBox2D@@@Z
??0RotatedRect@cv@@QEAA@AEBV01@@Z
??0RotatedRect@cv@@QEAA@AEBV?$Point_@M@1@AEBV?$Size_@M@1@M@Z
??0RotatedRect@cv@@QEAA@XZ
??0SVD@cv@@QEAA@AEBV01@@Z
??0SVD@cv@@QEAA@AEBV_InputArray@1@H@Z
??0SVD@cv@@QEAA@XZ
??0SparseMat@cv@@QEAA@AEBV01@@Z
??0SparseMat@cv@@QEAA@AEBVMat@1@@Z
??0SparseMat@cv@@QEAA@HPEBHH@Z
??0SparseMat@cv@@QEAA@PEBUCvSparseMat@@@Z
??0SparseMat@cv@@QEAA@XZ
??0SparseMatConstIterator@cv@@QEAA@AEBV01@@Z
??0SparseMatConstIterator@cv@@QEAA@PEBVSparseMat@1@@Z
??0SparseMatConstIterator@cv@@QEAA@XZ
??0SparseMatIterator@cv@@QEAA@AEBV01@@Z
??0SparseMatIterator@cv@@QEAA@PEAVSparseMat@1@@Z
??0SparseMatIterator@cv@@QEAA@XZ
??0TLSDataContainer@cv@@IEAA@XZ
??0TermCriteria@cv@@QEAA@AEBUCvTermCriteria@@@Z
??0TermCriteria@cv@@QEAA@HHN@Z
??0TermCriteria@cv@@QEAA@XZ
??0Texture2D@ogl@cv@@QEAA@AEBV012@@Z
??0Texture2D@ogl@cv@@QEAA@AEBV_InputArray@2@_N@Z
??0Texture2D@ogl@cv@@QEAA@HHW4Format@012@I_N@Z
??0Texture2D@ogl@cv@@QEAA@HHW4Format@012@_N@Z
??0Texture2D@ogl@cv@@QEAA@V?$Size_@H@2@W4Format@012@I_N@Z
??0Texture2D@ogl@cv@@QEAA@V?$Size_@H@2@W4Format@012@_N@Z
??0Texture2D@ogl@cv@@QEAA@XZ
??0WriteStructContext@cv@@QEAA@AEAVFileStorage@1@AEBV?$basic_string@DU?$char_traits@D@std@@V?$allocator@D@2@@std@@H1@Z
??0_InputArray@cv@@QEAA@AEBN@Z
??0_InputArray@cv@@QEAA@AEBV01@@Z
??0_InputArray@cv@@QEAA@AEBV?$Scalar_@N@1@@Z
??0_InputArray@cv@@QEAA@AEBV?$vector@VMat@cv@@V?$allocator@VMat@cv@@@std@@@std@@@Z
??0_InputArray@cv@@QEAA@AEBVBuffer@ogl@1@@Z
??0_InputArray@cv@@QEAA@AEBVGlBuffer@1@@Z
??0_InputArray@cv@@QEAA@AEBVGlTexture@1@@Z
??0_InputArray@cv@@QEAA@AEBVGpuMat@gpu@1@@Z
??0_InputArray@cv@@QEAA@AEBVMat@1@@Z
??0_InputArray@cv@@QEAA@AEBVMatExpr@1@@Z
??0_InputArray@cv@@QEAA@AEBVTexture2D@ogl@1@@Z
??0_InputArray@cv@@QEAA@XZ
??0_OutputArray@cv@@QEAA@AEAV?$vector@VMat@cv@@V?$allocator@VMat@cv@@@std@@@std@@@Z
??0_OutputArray@cv@@QEAA@AEAVBuffer@ogl@1@@Z
??0_OutputArray@cv@@QEAA@AEAVGpuMat@gpu@1@@Z
??0_OutputArray@cv@@QEAA@AEAVMat@1@@Z
??0_OutputArray@cv@@QEAA@AEAVTexture2D@ogl@1@@Z
??0_OutputArray@cv@@QEAA@AEBV01@@Z
??0_OutputArray@cv@@QEAA@AEBV?$vector@VMat@cv@@V?$allocator@VMat@cv@@@std@@@std@@@Z
??0_OutputArray@cv@@QEAA@AEBVBuffer@ogl@1@@Z
??0_OutputArray@cv@@QEAA@AEBVGpuMat@gpu@1@@Z
??0_OutputArray@cv@@QEAA@AEBVMat@1@@Z
??0_OutputArray@cv@@QEAA@AEBVTexture2D@ogl@1@@Z
??0_OutputArray@cv@@QEAA@XZ
??1Algorithm@cv@@UEAA@XZ
??1AlgorithmInfo@cv@@QEAA@XZ
??1AlgorithmInfoData@cv@@QEAA@XZ
??1Arrays@ogl@cv@@QEAA@XZ
??1AutoLock@cv@@QEAA@XZ
??1Buffer@ogl@cv@@QEAA@XZ
??1CommandLineParser@cv@@QEAA@XZ
??1CvModule@@QEAA@XZ
??1CvOpenGlFuncTab@@UEAA@XZ
??1CvType@@QEAA@XZ
??1DeviceInfo@gpu@cv@@QEAA@XZ
??1Exception@cv@@UEAA@XZ
??1FileStorage@cv@@UEAA@XZ
??1Formatted@cv@@QEAA@XZ
??1Formatter@cv@@UEAA@XZ
??1GlArrays@cv@@QEAA@XZ
??1GlBuffer@cv@@QEAA@XZ
??1GlCamera@cv@@QEAA@XZ
??1GlFont@cv@@QEAA@XZ
??1GlTexture@cv@@QEAA@XZ
??1GpuMat@gpu@cv@@QEAA@XZ
??1Hdr@SparseMat@cv@@QEAA@XZ
??1KDTree@cv@@QEAA@XZ
??1Mat@cv@@QEAA@XZ
??1MatAllocator@cv@@UEAA@XZ
??1MatExpr@cv@@QEAA@XZ
??1MatOp@cv@@UEAA@XZ
??1Mutex@cv@@QEAA@XZ
??1PCA@cv@@QEAA@XZ
??1ParallelLoopBody@cv@@UEAA@XZ
??1Param@cv@@QEAA@XZ
??1SVD@cv@@QEAA@XZ
??1SparseMat@cv@@QEAA@XZ
??1TLSDataContainer@cv@@IEAA@XZ
??1Texture2D@ogl@cv@@QEAA@XZ
??1WriteStructContext@cv@@QEAA@XZ
??4Algorithm@cv@@QEAAAEAV01@AEBV01@@Z
??4AlgorithmInfo@cv@@QEAAAEAV01@AEBV01@@Z
??4AlgorithmInfoData@cv@@QEAAAEAU01@AEBU01@@Z
??4Arrays@ogl@cv@@QEAAAEAV012@AEBV012@@Z
??4Buffer@ogl@cv@@QEAAAEAV012@AEBV012@@Z
??4CommandLineParser@cv@@QEAAAEAV01@AEBV01@@Z
??4CvModule@@QEAAAEAU0@AEBU0@@Z
??4CvOpenGlFuncTab@@QEAAAEAV0@AEBV0@@Z
??4CvType@@QEAAAEAU0@AEBU0@@Z
??4DeviceInfo@gpu@cv@@QEAAAEAV012@AEBV012@@Z
??4Exception@cv@@QEAAAEAV01@AEBV01@@Z
??4FileNode@cv@@QEAAAEAV01@AEBV01@@Z
??4FileNodeIterator@cv@@QEAAAEAV01@AEBV01@@Z
??4FileStorage@cv@@QEAAAEAV01@AEBV01@@Z
??4Formatted@cv@@QEAAAEAU01@AEBU01@@Z
??4Formatter@cv@@QEAAAEAV01@AEBV01@@Z
??4GlArrays@cv@@QEAAAEAV01@AEBV01@@Z
??4GlBuffer@cv@@QEAAAEAV01@AEBV01@@Z
??4GlCamera@cv@@QEAAAEAV01@AEBV01@@Z
??4GlTexture@cv@@QEAAAEAV01@AEBV01@@Z
??4GpuMat@gpu@cv@@QEAAAEAV012@AEBV012@@Z
??4GpuMat@gpu@cv@@QEAAAEAV012@V?$Scalar_@N@2@@Z
??4Hdr@SparseMat@cv@@QEAAAEAU012@AEBU012@@Z
??4KDTree@cv@@QEAAAEAV01@AEBV01@@Z
??4LineIterator@cv@@QEAAAEAV01@AEBV01@@Z
??4MSize@Mat@cv@@QEAAAEAU012@AEBU012@@Z
??4MStep@Mat@cv@@QEAAAEAU012@_K@Z
??4Mat@cv@@QEAAAEAV01@AEBV01@@Z
??4Mat@cv@@QEAAAEAV01@AEBV?$Scalar_@N@1@@Z
??4Mat@cv@@QEAAAEAV01@AEBVMatExpr@1@@Z
??4MatAllocator@cv@@QEAAAEAV01@AEBV01@@Z
??4MatConstIterator@cv@@QEAAAEAV01@AEBV01@@Z
??4MatExpr@cv@@QEAAAEAV01@AEBV01@@Z
??4MatOp@cv@@QEAAAEAV01@AEBV01@@Z
??4Matx_AddOp@cv@@QEAAAEAU01@AEBU01@@Z
??4Matx_MatMulOp@cv@@QEAAAEAU01@AEBU01@@Z
??4Matx_MulOp@cv@@QEAAAEAU01@AEBU01@@Z
??4Matx_ScaleOp@cv@@QEAAAEAU01@AEBU01@@Z
??4Matx_SubOp@cv@@QEAAAEAU01@AEBU01@@Z
??4Matx_TOp@cv@@QEAAAEAU01@AEBU01@@Z
??4Mutex@cv@@QEAAAEAV01@AEBV01@@Z
??4NAryMatIterator@cv@@QEAAAEAV01@AEBV01@@Z
??4Node@SparseMat@cv@@QEAAAEAU012@AEBU012@@Z
??4PCA@cv@@QEAAAEAV01@AEBV01@@Z
??4ParallelLoopBody@cv@@QEAAAEAV01@AEBV01@@Z
??4Param@cv@@QEAAAEAU01@AEBU01@@Z
??4RNG@cv@@QEAAAEAV01@AEBV01@@Z
??4RNG_MT19937@cv@@QEAAAEAV01@AEBV01@@Z
??4Range@cv@@QEAAAEAV01@AEBV01@@Z
??4RotatedRect@cv@@QEAAAEAV01@AEBV01@@Z
??4SVD@cv@@QEAAAEAV01@AEBV01@@Z
??4SparseMat@cv@@QEAAAEAV01@AEBV01@@Z
??4SparseMat@cv@@QEAAAEAV01@AEBVMat@1@@Z
??4SparseMatConstIterator@cv@@QEAAAEAV01@AEBV01@@Z
??4SparseMatIterator@cv@@QEAAAEAV01@AEBV01@@Z
??4TargetArchs@gpu@cv@@QEAAAEAV012@AEBV012@@Z
??4TermCriteria@cv@@QEAAAEAV01@AEBV01@@Z
??4Texture2D@ogl@cv@@QEAAAEAV012@AEBV012@@Z
??4WriteStructContext@cv@@QEAAAEAV01@AEBV01@@Z
??4_InputArray@cv@@QEAAAEAV01@AEBV01@@Z
??4_OutputArray@cv@@QEAAAEAV01@AEBV01@@Z
??6cv@@YAAEAVFileStorage@0@AEAV10@AEBV?$basic_string@DU?$char_traits@D@std@@V?$allocator@D@2@@std@@@Z
??8MSize@Mat@cv@@QEBA_NAEBU012@@Z
??8cv@@YA?AVMatExpr@0@AEBVMat@0@0@Z
??8cv@@YA?AVMatExpr@0@AEBVMat@0@N@Z
??8cv@@YA?AVMatExpr@0@NAEBVMat@0@@Z
??9MSize@Mat@cv@@QEBA_NAEBU012@@Z
??9cv@@YA?AVMatExpr@0@AEBVMat@0@0@Z
??9cv@@YA?AVMatExpr@0@AEBVMat@0@N@Z
??9cv@@YA?AVMatExpr@0@NAEBVMat@0@@Z
??AFileNode@cv@@QEBA?AV01@AEBV?$basic_string@DU?$char_traits@D@std@@V?$allocator@D@2@@std@@@Z
??AFileNode@cv@@QEBA?AV01@H@Z
??AFileNode@cv@@QEBA?AV01@PEBD@Z
??AFileStorage@cv@@QEBA?AVFileNode@1@AEBV?$basic_string@DU?$char_traits@D@std@@V?$allocator@D@2@@std@@@Z
??AFileStorage@cv@@QEBA?AVFileNode@1@PEBD@Z
??AMSize@Mat@cv@@QEAAAEAHH@Z
??AMSize@Mat@cv@@QEBAAEBHH@Z
??AMStep@Mat@cv@@QEAAAEA_KH@Z
??AMStep@Mat@cv@@QEBAAEB_KH@Z
??AMatConstIterator@cv@@QEBAPEAE_J@Z
??BFileNode@cv@@QEBA?AV?$basic_string@DU?$char_traits@D@std@@V?$allocator@D@2@@std@@XZ
??BFileNode@cv@@QEBAHXZ
??BFileNode@cv@@QEBAMXZ
??BFileNode@cv@@QEBANXZ
??BMSize@Mat@cv@@QEBAPEBHXZ
??BMStep@Mat@cv@@QEBA_KXZ
??BMat@cv@@QEBA?AUCvMat@@XZ
??BMat@cv@@QEBA?AUCvMatND@@XZ
??BMat@cv@@QEBA?AU_IplImage@@XZ
??BMatExpr@cv@@QEBA?AVMat@1@XZ
??BRNG@cv@@QEAACXZ
??BRNG@cv@@QEAAEXZ
??BRNG@cv@@QEAAFXZ
??BRNG@cv@@QEAAGXZ
??BRNG@cv@@QEAAHXZ
??BRNG@cv@@QEAAIXZ
??BRNG@cv@@QEAAMXZ
??BRNG@cv@@QEAANXZ
??BRNG_MT19937@cv@@QEAAHXZ
??BRNG_MT19937@cv@@QEAAIXZ
??BRNG_MT19937@cv@@QEAAMXZ
??BRNG_MT19937@cv@@QEAANXZ
??BRange@cv@@QEBA?AUCvSlice@@XZ
??BRotatedRect@cv@@QEBA?AUCvBox2D@@XZ
??BSparseMat@cv@@QEBAPEAUCvSparseMat@@XZ
??BTermCriteria@cv@@QEBA?AUCvTermCriteria@@XZ
??CFileNodeIterator@cv@@QEBA?AVFileNode@1@XZ
??DFileNode@cv@@QEAAPEAUCvFileNode@@XZ
??DFileNode@cv@@QEBAPEBUCvFileNode@@XZ
??DFileNodeIterator@cv@@QEBA?AVFileNode@1@XZ
??DFileStorage@cv@@QEAAPEAUCvFileStorage@@XZ
??DFileStorage@cv@@QEBAPEBUCvFileStorage@@XZ
??DLineIterator@cv@@QEAAPEAEXZ
??DMatConstIterator@cv@@QEBAPEAEXZ
??Dcv@@YA?AVMatExpr@0@AEBV10@0@Z
??Dcv@@YA?AVMatExpr@0@AEBV10@AEBVMat@0@@Z
??Dcv@@YA?AVMatExpr@0@AEBV10@N@Z
??Dcv@@YA?AVMatExpr@0@AEBVMat@0@0@Z
??Dcv@@YA?AVMatExpr@0@AEBVMat@0@AEBV10@@Z
??Dcv@@YA?AVMatExpr@0@AEBVMat@0@N@Z
??Dcv@@YA?AVMatExpr@0@NAEBV10@@Z
??Dcv@@YA?AVMatExpr@0@NAEBVMat@0@@Z
??EFileNodeIterator@cv@@QEAA?AV01@H@Z
??EFileNodeIterator@cv@@QEAAAEAV01@XZ
??ELineIterator@cv@@QEAA?AV01@H@Z
??ELineIterator@cv@@QEAAAEAV01@XZ
??EMatConstIterator@cv@@QEAA?AV01@H@Z
??EMatConstIterator@cv@@QEAAAEAV01@XZ
??ENAryMatIterator@cv@@QEAA?AV01@H@Z
??ENAryMatIterator@cv@@QEAAAEAV01@XZ
??ESparseMatConstIterator@cv@@QEAA?AV01@H@Z
??ESparseMatConstIterator@cv@@QEAAAEAV01@XZ
??ESparseMatIterator@cv@@QEAA?AV01@H@Z
??ESparseMatIterator@cv@@QEAAAEAV01@XZ
??FFileNodeIterator@cv@@QEAA?AV01@H@Z
??FFileNodeIterator@cv@@QEAAAEAV01@XZ
??FMatConstIterator@cv@@QEAA?AV01@H@Z
??FMatConstIterator@cv@@QEAAAEAV01@XZ
??Gcv@@YA?AVMatExpr@0@AEBV10@0@Z
??Gcv@@YA?AVMatExpr@0@AEBV10@@Z
??Gcv@@YA?AVMatExpr@0@AEBV10@AEBV?$Scalar_@N@0@@Z
??Gcv@@YA?AVMatExpr@0@AEBV10@AEBVMat@0@@Z
??Gcv@@YA?AVMatExpr@0@AEBV?$Scalar_@N@0@AEBV10@@Z
??Gcv@@YA?AVMatExpr@0@AEBV?$Scalar_@N@0@AEBVMat@0@@Z
??Gcv@@YA?AVMatExpr@0@AEBVMat@0@0@Z
??Gcv@@YA?AVMatExpr@0@AEBVMat@0@@Z
??Gcv@@YA?AVMatExpr@0@AEBVMat@0@AEBV10@@Z
??Gcv@@YA?AVMatExpr@0@AEBVMat@0@AEBV?$Scalar_@N@0@@Z
??Gcv@@YA_JAEBVMatConstIterator@0@0@Z
??Hcv@@YA?AVMatExpr@0@AEBV10@0@Z
??Hcv@@YA?AVMatExpr@0@AEBV10@AEBV?$Scalar_@N@0@@Z
??Hcv@@YA?AVMatExpr@0@AEBV10@AEBVMat@0@@Z
??Hcv@@YA?AVMatExpr@0@AEBV?$Scalar_@N@0@AEBV10@@Z
??Hcv@@YA?AVMatExpr@0@AEBV?$Scalar_@N@0@AEBVMat@0@@Z
??Hcv@@YA?AVMatExpr@0@AEBVMat@0@0@Z
??Hcv@@YA?AVMatExpr@0@AEBVMat@0@AEBV10@@Z
??Hcv@@YA?AVMatExpr@0@AEBVMat@0@AEBV?$Scalar_@N@0@@Z
??Icv@@YA?AVMatExpr@0@AEBV?$Scalar_@N@0@AEBVMat@0@@Z
??Icv@@YA?AVMatExpr@0@AEBVMat@0@0@Z
??Icv@@YA?AVMatExpr@0@AEBVMat@0@AEBV?$Scalar_@N@0@@Z
??Kcv@@YA?AVMatExpr@0@AEBV10@0@Z
??Kcv@@YA?AVMatExpr@0@AEBV10@AEBVMat@0@@Z
??Kcv@@YA?AVMatExpr@0@AEBV10@N@Z
??Kcv@@YA?AVMatExpr@0@AEBVMat@0@0@Z
??Kcv@@YA?AVMatExpr@0@AEBVMat@0@AEBV10@@Z
??Kcv@@YA?AVMatExpr@0@AEBVMat@0@N@Z
??Kcv@@YA?AVMatExpr@0@NAEBV10@@Z
??Kcv@@YA?AVMatExpr@0@NAEBVMat@0@@Z
??Mcv@@YA?AVMatExpr@0@AEBVMat@0@0@Z
??Mcv@@YA?AVMatExpr@0@AEBVMat@0@N@Z
??Mcv@@YA?AVMatExpr@0@NAEBVMat@0@@Z
??Ncv@@YA?AVMatExpr@0@AEBVMat@0@0@Z
??Ncv@@YA?AVMatExpr@0@AEBVMat@0@N@Z
??Ncv@@YA?AVMatExpr@0@NAEBVMat@0@@Z
??Ocv@@YA?AVMatExpr@0@AEBVMat@0@0@Z
??Ocv@@YA?AVMatExpr@0@AEBVMat@0@N@Z
??Ocv@@YA?AVMatExpr@0@NAEBVMat@0@@Z
??Pcv@@YA?AVMatExpr@0@AEBVMat@0@0@Z
??Pcv@@YA?AVMatExpr@0@AEBVMat@0@N@Z
??Pcv@@YA?AVMatExpr@0@NAEBVMat@0@@Z
??RGpuMat@gpu@cv@@QEBA?AV012@V?$Rect_@H@2@@Z
??RGpuMat@gpu@cv@@QEBA?AV012@VRange@2@0@Z
??RMSize@Mat@cv@@QEBA?AV?$Size_@H@2@XZ
??RMat@cv@@QEBA?AV01@AEBV?$Rect_@H@1@@Z
??RMat@cv@@QEBA?AV01@PEBVRange@1@@Z
??RMat@cv@@QEBA?AV01@VRange@1@0@Z
??RMatExpr@cv@@QEBA?AV01@AEBV?$Rect_@H@1@@Z
??RMatExpr@cv@@QEBA?AV01@AEBVRange@1@0@Z
??RPCA@cv@@QEAAAEAV01@AEBV_InputArray@1@0HH@Z
??RRNG@cv@@QEAAII@Z
??RRNG@cv@@QEAAIXZ
??RRNG_MT19937@cv@@QEAAII@Z
??RRNG_MT19937@cv@@QEAAIXZ
??RSVD@cv@@QEAAAEAV01@AEBV_InputArray@1@H@Z
??Scv@@YA?AVMatExpr@0@AEBVMat@0@@Z
??Tcv@@YA?AVMatExpr@0@AEBV?$Scalar_@N@0@AEBVMat@0@@Z
??Tcv@@YA?AVMatExpr@0@AEBVMat@0@0@Z
??Tcv@@YA?AVMatExpr@0@AEBVMat@0@AEBV?$Scalar_@N@0@@Z
??Ucv@@YA?AVMatExpr@0@AEBV?$Scalar_@N@0@AEBVMat@0@@Z
??Ucv@@YA?AVMatExpr@0@AEBVMat@0@0@Z
??Ucv@@YA?AVMatExpr@0@AEBVMat@0@AEBV?$Scalar_@N@0@@Z
??YFileNodeIterator@cv@@QEAAAEAV01@H@Z
??YMatConstIterator@cv@@QEAAAEAV01@_J@Z
??ZFileNodeIterator@cv@@QEAAAEAV01@H@Z
??ZMatConstIterator@cv@@QEAAAEAV01@_J@Z
??_7Algorithm@cv@@6B@
??_7CvOpenGlFuncTab@@6B@
??_7Exception@cv@@6B@
??_7FileStorage@cv@@6B@
??_7Formatter@cv@@6B@
??_7MatAllocator@cv@@6B@
??_7MatOp@cv@@6B@
??_7ParallelLoopBody@cv@@6B@
??_7_InputArray@cv@@6B@
??_7_OutputArray@cv@@6B@
?Cholesky@cv@@YA_NPEAM_KH01H@Z
?Cholesky@cv@@YA_NPEAN_KH01H@Z
?LU@cv@@YAHPEAM_KH01H@Z
?LU@cv@@YAHPEAN_KH01H@Z
?LUT@cv@@YAXAEBV_InputArray@1@0AEBV_OutputArray@1@H@Z
?Mahalanobis@cv@@YANAEBV_InputArray@1@00@Z
?Mahalonobis@cv@@YANAEBV_InputArray@1@00@Z
?PCABackProject@cv@@YAXAEBV_InputArray@1@00AEBV_OutputArray@1@@Z
?PCACompute@cv@@YAXAEBV_InputArray@1@AEBV_OutputArray@1@1H@Z
?PCAComputeVar@cv@@YAXAEBV_InputArray@1@AEBV_OutputArray@1@1N@Z
?PCAProject@cv@@YAXAEBV_InputArray@1@00AEBV_OutputArray@1@@Z
?SVBackSubst@cv@@YAXAEBV_InputArray@1@000AEBV_OutputArray@1@@Z
?SVDecomp@cv@@YAXAEBV_InputArray@1@AEBV_OutputArray@1@11H@Z
?_create@Algorithm@cv@@SA?AV?$Ptr@VAlgorithm@cv@@@2@AEBV?$basic_string@DU?$char_traits@D@std@@V?$allocator@D@2@@std@@@Z
?_interlockedExchangeAdd@cv@@YAHPEAHH@Z
?abs@MatOp@cv@@UEBAXAEBVMatExpr@2@AEAV32@@Z
?abs@cv@@YA?AVMatExpr@1@AEBV21@@Z
?abs@cv@@YA?AVMatExpr@1@AEBVMat@1@@Z
?absdiff@cv@@YAXAEBV_InputArray@1@0AEBV_OutputArray@1@@Z
?add@MatOp@cv@@UEBAXAEBVMatExpr@2@0AEAV32@@Z
?add@MatOp@cv@@UEBAXAEBVMatExpr@2@AEBV?$Scalar_@N@2@AEAV32@@Z
?add@cv@@YAXAEBV_InputArray@1@0AEBV_OutputArray@1@0H@Z
?addParam@AlgorithmInfo@cv@@QEAAXAEAVAlgorithm@2@PEBDAEAE_NP832@EAAEXZP832@EAAXE@ZAEBV?$basic_string@DU?$char_traits@D@std@@V?$allocator@D@2@@std@@@Z
?addParam@AlgorithmInfo@cv@@QEAAXAEAVAlgorithm@2@PEBDAEAF_NP832@EAAHXZP832@EAAXH@ZAEBV?$basic_string@DU?$char_traits@D@std@@V?$allocator@D@2@@std@@@Z
?addParam@AlgorithmInfo@cv@@QEAAXAEAVAlgorithm@2@PEBDAEAH_NP832@EAAHXZP832@EAAXH@ZAEBV?$basic_string@DU?$char_traits@D@std@@V?$allocator@D@2@@std@@@Z
?addParam@AlgorithmInfo@cv@@QEAAXAEAVAlgorithm@2@PEBDAEAI_NP832@EAAIXZP832@EAAXI@ZAEBV?$basic_string@DU?$char_traits@D@std@@V?$allocator@D@2@@std@@@Z
?addParam@AlgorithmInfo@cv@@QEAAXAEAVAlgorithm@2@PEBDAEAM_NP832@EAAMXZP832@EAAXM@ZAEBV?$basic_string@DU?$char_traits@D@std@@V?$allocator@D@2@@std@@@Z
?addParam@AlgorithmInfo@cv@@QEAAXAEAVAlgorithm@2@PEBDAEAN_NP832@EAANXZP832@EAAXN@ZAEBV?$basic_string@DU?$char_traits@D@std@@V?$allocator@D@2@@std@@@Z
?addParam@AlgorithmInfo@cv@@QEAAXAEAVAlgorithm@2@PEBDAEAV?$Ptr@VAlgorithm@cv@@@2@_NP832@EAA?AV42@XZP832@EAAXAEBV42@@ZAEBV?$basic_string@DU?$char_traits@D@std@@V?$allocator@D@2@@std@@@Z
?addParam@AlgorithmInfo@cv@@QEAAXAEAVAlgorithm@2@PEBDAEAV?$basic_string@DU?$char_traits@D@std@@V?$allocator@D@2@@std@@_NP832@EAA?AV45@XZP832@EAAXAEBV45@@Z5@Z
?addParam@AlgorithmInfo@cv@@QEAAXAEAVAlgorithm@2@PEBDAEAV?$vector@VMat@cv@@V?$allocator@VMat@cv@@@std@@@std@@_NP832@EAA?AV45@XZP832@EAAXAEBV45@@ZAEBV?$basic_string@DU?$char_traits@D@std@@V?$allocator@D@2@@5@@Z
?addParam@AlgorithmInfo@cv@@QEAAXAEAVAlgorithm@2@PEBDAEAVMat@2@_NP832@EAA?AV42@XZP832@EAAXAEBV42@@ZAEBV?$basic_string@DU?$char_traits@D@std@@V?$allocator@D@2@@std@@@Z
?addParam@AlgorithmInfo@cv@@QEAAXAEAVAlgorithm@2@PEBDAEA_K_NP832@EAA_KXZP832@EAAX_K@ZAEBV?$basic_string@DU?$char_traits@D@std@@V?$allocator@D@2@@std@@@Z
?addParam@AlgorithmInfo@cv@@QEAAXAEAVAlgorithm@2@PEBDAEA_N_NP832@EAAHXZP832@EAAXH@ZAEBV?$basic_string@DU?$char_traits@D@std@@V?$allocator@D@2@@std@@@Z
?addParam_@AlgorithmInfo@cv@@QEAAXAEAVAlgorithm@2@PEBDHPEAX_NP832@EBAHXZP832@EAAXH@ZAEBV?$basic_string@DU?$char_traits@D@std@@V?$allocator@D@2@@std@@@Z
?addWeighted@cv@@YAXAEBV_InputArray@1@N0NNAEBV_OutputArray@1@H@Z
?addref@Mat@cv@@QEAAXXZ
?addref@SparseMat@cv@@QEAAXXZ
?adjustROI@GpuMat@gpu@cv@@QEAAAEAV123@HHHH@Z
?adjustROI@Mat@cv@@QEAAAEAV12@HHHH@Z
?all@Range@cv@@SA?AV12@XZ
?allocMatFromBuf@gpu@cv@@YA?AVGpuMat@12@HHHAEAV312@@Z
?assignTo@GpuMat@gpu@cv@@QEBAXAEAV123@H@Z
?assignTo@Mat@cv@@QEBAXAEAV12@H@Z
?assignTo@SparseMat@cv@@QEBAXAEAV12@H@Z
?augAssignAdd@MatOp@cv@@UEBAXAEBVMatExpr@2@AEAVMat@2@@Z
?augAssignAnd@MatOp@cv@@UEBAXAEBVMatExpr@2@AEAVMat@2@@Z
?augAssignDivide@MatOp@cv@@UEBAXAEBVMatExpr@2@AEAVMat@2@@Z
?augAssignMultiply@MatOp@cv@@UEBAXAEBVMatExpr@2@AEAVMat@2@@Z
?augAssignOr@MatOp@cv@@UEBAXAEBVMatExpr@2@AEAVMat@2@@Z
?augAssignSubtract@MatOp@cv@@UEBAXAEBVMatExpr@2@AEAVMat@2@@Z
?augAssignXor@MatOp@cv@@UEBAXAEBVMatExpr@2@AEAVMat@2@@Z
?backProject@PCA@cv@@QEBA?AVMat@2@AEBV_InputArray@2@@Z
?backProject@PCA@cv@@QEBAXAEBV_InputArray@2@AEBV_OutputArray@2@@Z
?backSubst@SVD@cv@@QEBAXAEBV_InputArray@2@AEBV_OutputArray@2@@Z
?backSubst@SVD@cv@@SAXAEBV_InputArray@2@000AEBV_OutputArray@2@@Z
?batchDistance@cv@@YAXAEBV_InputArray@1@0AEBV_OutputArray@1@H1HH0H_N@Z
?begin@FileNode@cv@@QEBA?AVFileNodeIterator@2@XZ
?begin@SparseMat@cv@@QEAA?AVSparseMatIterator@2@XZ
?begin@SparseMat@cv@@QEBA?AVSparseMatConstIterator@2@XZ
?bind@Arrays@ogl@cv@@QEBAXXZ
?bind@Buffer@ogl@cv@@QEBAXW4Target@123@@Z
?bind@GlArrays@cv@@QEBAXXZ
?bind@GlBuffer@cv@@QEBAXXZ
?bind@GlTexture@cv@@QEBAXXZ
?bind@Texture2D@ogl@cv@@QEBAXXZ
?bitwise_and@cv@@YAXAEBV_InputArray@1@0AEBV_OutputArray@1@0@Z
?bitwise_not@cv@@YAXAEBV_InputArray@1@AEBV_OutputArray@1@0@Z
?bitwise_or@cv@@YAXAEBV_InputArray@1@0AEBV_OutputArray@1@0@Z
?bitwise_xor@cv@@YAXAEBV_InputArray@1@0AEBV_OutputArray@1@0@Z
?boundingRect@RotatedRect@cv@@QEBA?AV?$Rect_@H@2@XZ
?bufId@Buffer@ogl@cv@@QEBAIXZ
?build@KDTree@cv@@QEAAXAEBV_InputArray@2@0_N@Z
?build@KDTree@cv@@QEAAXAEBV_InputArray@2@_N@Z
?builtWith@TargetArchs@gpu@cv@@SA_NW4FeatureSet@23@@Z
?calcCovarMatrix@cv@@YAXAEBV_InputArray@1@AEBV_OutputArray@1@1HH@Z
?calcCovarMatrix@cv@@YAXPEBVMat@1@HAEAV21@1HH@Z
?cartToPolar@cv@@YAXAEBV_InputArray@1@0AEBV_OutputArray@1@1_N@Z
?channels@Buffer@ogl@cv@@QEBAHXZ
?channels@GlBuffer@cv@@QEBAHXZ
?channels@GlTexture@cv@@QEBAHXZ
?channels@GpuMat@gpu@cv@@QEBAHXZ
?channels@Mat@cv@@QEBAHXZ
?channels@SparseMat@cv@@QEBAHXZ
?channels@_InputArray@cv@@UEBAHH@Z
?checkError@ogl@cv@@YA_NPEBDH0@Z
?checkHardwareSupport@cv@@YA_NH@Z
?checkRange@cv@@YA_NAEBV_InputArray@1@_NPEAV?$Point_@H@1@NN@Z
?checkVector@Mat@cv@@QEBAHHH_N@Z
?circle@cv@@YAXAEAVMat@1@V?$Point_@H@1@HAEBV?$Scalar_@N@1@HHH@Z
?clear@Hdr@SparseMat@cv@@QEAAXXZ
?clear@SparseMat@cv@@QEAAXXZ
?clear@_OutputArray@cv@@UEBAXXZ
?clearSeq@cv@@YAXPEAUCvSeq@@@Z
?clipLine@cv@@YA_NV?$Rect_@H@1@AEAV?$Point_@H@1@1@Z
?clipLine@cv@@YA_NV?$Size_@H@1@AEAV?$Point_@H@1@1@Z
?clone@Buffer@ogl@cv@@QEBA?AV123@W4Target@123@_N@Z
?clone@GpuMat@gpu@cv@@QEBA?AV123@XZ
?clone@Mat@cv@@QEBA?AV12@XZ
?clone@SparseMat@cv@@QEBA?AV12@XZ
?col@GpuMat@gpu@cv@@QEBA?AV123@H@Z
?col@Mat@cv@@QEBA?AV12@H@Z
?col@MatExpr@cv@@QEBA?AV12@H@Z
?colRange@GpuMat@gpu@cv@@QEBA?AV123@HH@Z
?colRange@GpuMat@gpu@cv@@QEBA?AV123@VRange@3@@Z
?colRange@Mat@cv@@QEBA?AV12@AEBVRange@2@@Z
?colRange@Mat@cv@@QEBA?AV12@HH@Z
?cols@Buffer@ogl@cv@@QEBAHXZ
?cols@GlArrays@cv@@QEBAHXZ
?cols@GlBuffer@cv@@QEBAHXZ
?cols@GlTexture@cv@@QEBAHXZ
?cols@Texture2D@ogl@cv@@QEBAHXZ
?compare@cv@@YAXAEBV_InputArray@1@0AEBV_OutputArray@1@H@Z
?completeSymm@cv@@YAXAEBV_OutputArray@1@_N@Z
?compute@SVD@cv@@SAXAEBV_InputArray@2@AEBV_OutputArray@2@11H@Z
?compute@SVD@cv@@SAXAEBV_InputArray@2@AEBV_OutputArray@2@H@Z
?computeVar@PCA@cv@@QEAAAEAV12@AEBV_InputArray@2@0HN@Z
?convertScaleAbs@cv@@YAXAEBV_InputArray@1@AEBV_OutputArray@1@NN@Z
?convertTo@GpuMat@gpu@cv@@QEBAXAEAV123@HNN@Z
?convertTo@Mat@cv@@QEBAXAEBV_OutputArray@2@HNN@Z
?convertTo@SparseMat@cv@@QEBAXAEAV12@HN@Z
?convertTo@SparseMat@cv@@QEBAXAEAVMat@2@HNN@Z
?convertTo@gpu@cv@@YAXAEBVGpuMat@12@AEAV312@@Z
?convertTo@gpu@cv@@YAXAEBVGpuMat@12@AEAV312@NNPEAX@Z
?copyFrom@Buffer@ogl@cv@@QEAAXAEBV_InputArray@3@W4Target@123@_N@Z
?copyFrom@GlBuffer@cv@@QEAAXAEBV_InputArray@2@@Z
?copyFrom@GlTexture@cv@@QEAAXAEBV_InputArray@2@_N@Z
?copyFrom@Texture2D@ogl@cv@@QEAAXAEBV_InputArray@3@_N@Z
?copySize@Mat@cv@@QEAAXAEBV12@@Z
?copyTo@Buffer@ogl@cv@@QEBAXAEBV_OutputArray@3@W4Target@123@_N@Z
?copyTo@GpuMat@gpu@cv@@QEBAXAEAV123@@Z
?copyTo@GpuMat@gpu@cv@@QEBAXAEAV123@AEBV123@@Z
?copyTo@Mat@cv@@QEBAXAEBV_OutputArray@2@@Z
?copyTo@Mat@cv@@QEBAXAEBV_OutputArray@2@AEBV_InputArray@2@@Z
?copyTo@SparseMat@cv@@QEBAXAEAV12@@Z
?copyTo@SparseMat@cv@@QEBAXAEAVMat@2@@Z
?copyTo@Texture2D@ogl@cv@@QEBAXAEBV_OutputArray@3@H_N@Z
?countNonZero@cv@@YAHAEBV_InputArray@1@@Z
?create@Buffer@ogl@cv@@QEAAXHHHW4Target@123@_N@Z
?create@Buffer@ogl@cv@@QEAAXV?$Size_@H@3@HW4Target@123@_N@Z
?create@GlBuffer@cv@@QEAAXHHH@Z
?create@GlBuffer@cv@@QEAAXHHHW4Usage@12@@Z
?create@GlBuffer@cv@@QEAAXV?$Size_@H@2@H@Z
?create@GlBuffer@cv@@QEAAXV?$Size_@H@2@HW4Usage@12@@Z
?create@GlTexture@cv@@QEAAXHHH@Z
?create@GlTexture@cv@@QEAAXV?$Size_@H@2@H@Z
?create@GpuMat@gpu@cv@@QEAAXHHH@Z
?create@GpuMat@gpu@cv@@QEAAXV?$Size_@H@3@H@Z
?create@Mat@cv@@QEAAXHHH@Z
?create@Mat@cv@@QEAAXHPEBHH@Z
?create@Mat@cv@@QEAAXV?$Size_@H@2@H@Z
?create@SparseMat@cv@@QEAAXHPEBHH@Z
?create@Texture2D@ogl@cv@@QEAAXHHW4Format@123@_N@Z
?create@Texture2D@ogl@cv@@QEAAXV?$Size_@H@3@W4Format@123@_N@Z
?create@_OutputArray@cv@@UEBAXHHHH_NH@Z
?create@_OutputArray@cv@@UEBAXHPEBHHH_NH@Z
?create@_OutputArray@cv@@UEBAXV?$Size_@H@2@HH_NH@Z
?createContinuous@gpu@cv@@YA?AVGpuMat@12@HHH@Z
?createContinuous@gpu@cv@@YA?AVGpuMat@12@V?$Size_@H@2@H@Z
?createContinuous@gpu@cv@@YAXHHHAEAVGpuMat@12@@Z
?createContinuous@gpu@cv@@YAXV?$Size_@H@2@HAEAVGpuMat@12@@Z
?cross@Mat@cv@@QEBA?AV12@AEBV_InputArray@2@@Z
?cross@MatExpr@cv@@QEBA?AVMat@2@AEBV32@@Z
?cubeRoot@cv@@YAMM@Z
?currentParallelFramework@cv@@YAPEBDXZ
?cvarrToMat@cv@@YA?AVMat@1@PEBX_N1H@Z
?dct@cv@@YAXAEBV_InputArray@1@AEBV_OutputArray@1@H@Z
?deallocate@Mat@cv@@QEAAXXZ
?delete_obj@?$Ptr@UCvFileStorage@@@cv@@QEAAXXZ
?delete_obj@?$Ptr@UCvMat@@@cv@@QEAAXXZ
?delete_obj@?$Ptr@UCvMatND@@@cv@@QEAAXXZ
?delete_obj@?$Ptr@UCvMemStorage@@@cv@@QEAAXXZ
?delete_obj@?$Ptr@UCvSparseMat@@@cv@@QEAAXXZ
?delete_obj@?$Ptr@U_IplImage@@@cv@@QEAAXXZ
?delete_obj@?$Ptr@VImpl@Buffer@ogl@cv@@@cv@@QEAAXXZ
?delete_obj@?$Ptr@VImpl@GlBuffer@cv@@@cv@@QEAAXXZ
?delete_obj@?$Ptr@VImpl@GlTexture@cv@@@cv@@QEAAXXZ
?delete_obj@?$Ptr@VImpl@Texture2D@ogl@cv@@@cv@@QEAAXXZ
?depth@Buffer@ogl@cv@@QEBAHXZ
?depth@GlBuffer@cv@@QEBAHXZ
?depth@GlTexture@cv@@QEBAHXZ
?depth@GpuMat@gpu@cv@@QEBAHXZ
?depth@Mat@cv@@QEBAHXZ
?depth@SparseMat@cv@@QEBAHXZ
?depth@_InputArray@cv@@UEBAHH@Z
?determinant@cv@@YANAEBV_InputArray@1@@Z
?deviceID@DeviceInfo@gpu@cv@@QEBAHXZ
?deviceSupports@gpu@cv@@YA_NW4FeatureSet@12@@Z
?dft@cv@@YAXAEBV_InputArray@1@AEBV_OutputArray@1@HH@Z
?diag@Mat@cv@@QEBA?AV12@H@Z
?diag@Mat@cv@@SA?AV12@AEBV12@@Z
?diag@MatExpr@cv@@QEBA?AV12@H@Z
?diag@MatOp@cv@@UEBAXAEBVMatExpr@2@HAEAV32@@Z
?dims@KDTree@cv@@QEBAHXZ
?dims@SparseMat@cv@@QEBAHXZ
?divide@MatOp@cv@@UEBAXAEBVMatExpr@2@0AEAV32@N@Z
?divide@MatOp@cv@@UEBAXNAEBVMatExpr@2@AEAV32@@Z
?divide@cv@@YAXAEBV_InputArray@1@0AEBV_OutputArray@1@NH@Z
?divide@cv@@YAXNAEBV_InputArray@1@AEBV_OutputArray@1@H@Z
?dot@Mat@cv@@QEBANAEBV_InputArray@2@@Z
?dot@MatExpr@cv@@QEBANAEBVMat@2@@Z
?download@GpuMat@gpu@cv@@QEBAXAEAVMat@3@@Z
?draw@GlFont@cv@@QEBAXPEBDH@Z
?eigen@cv@@YA_NAEBV_InputArray@1@AEBV_OutputArray@1@1HH@Z
?eigen@cv@@YA_NAEBV_InputArray@1@AEBV_OutputArray@1@HH@Z
?eigen@cv@@YA_NAEBV_InputArray@1@_NAEBV_OutputArray@1@2@Z
?elemSize1@Buffer@ogl@cv@@QEBAHXZ
?elemSize1@GlBuffer@cv@@QEBAHXZ
?elemSize1@GlTexture@cv@@QEBAHXZ
?elemSize1@GpuMat@gpu@cv@@QEBA_KXZ
?elemSize1@Mat@cv@@QEBA_KXZ
?elemSize1@SparseMat@cv@@QEBA_KXZ
?elemSize@Buffer@ogl@cv@@QEBAHXZ
?elemSize@GlBuffer@cv@@QEBAHXZ
?elemSize@GlTexture@cv@@QEBAHXZ
?elemSize@GpuMat@gpu@cv@@QEBA_KXZ
?elemSize@Mat@cv@@QEBA_KXZ
?elemSize@SparseMat@cv@@QEBA_KXZ
?elementWise@MatOp@cv@@UEBA_NAEBVMatExpr@2@@Z
?ellipse2Poly@cv@@YAXV?$Point_@H@1@V?$Size_@H@1@HHHHAEAV?$vector@V?$Point_@H@cv@@V?$allocator@V?$Point_@H@cv@@@std@@@std@@@Z
?ellipse@cv@@YAXAEAVMat@1@AEBVRotatedRect@1@AEBV?$Scalar_@N@1@HH@Z
?ellipse@cv@@YAXAEAVMat@1@V?$Point_@H@1@V?$Size_@H@1@NNNAEBV?$Scalar_@N@1@HHH@Z
?empty@Arrays@ogl@cv@@QEBA_NXZ
?empty@Buffer@ogl@cv@@QEBA_NXZ
?empty@FileNode@cv@@QEBA_NXZ
?empty@GlArrays@cv@@QEBA_NXZ
?empty@GlBuffer@cv@@QEBA_NXZ
?empty@GlTexture@cv@@QEBA_NXZ
?empty@GpuMat@gpu@cv@@QEBA_NXZ
?empty@Mat@cv@@QEBA_NXZ
?empty@Range@cv@@QEBA_NXZ
?empty@Texture2D@ogl@cv@@QEBA_NXZ
?empty@_InputArray@cv@@UEBA_NXZ
?end@FileNode@cv@@QEBA?AVFileNodeIterator@2@XZ
?end@SparseMat@cv@@QEAA?AVSparseMatIterator@2@XZ
?end@SparseMat@cv@@QEBA?AVSparseMatConstIterator@2@XZ
?ensureSizeIsEnough@gpu@cv@@YAXHHHAEAVGpuMat@12@@Z
?ensureSizeIsEnough@gpu@cv@@YAXV?$Size_@H@2@HAEAVGpuMat@12@@Z
?erase@SparseMat@cv@@QEAAXHHHPEA_K@Z
?erase@SparseMat@cv@@QEAAXHHPEA_K@Z
?erase@SparseMat@cv@@QEAAXPEBHPEA_K@Z
?error@cv@@YAXAEBVException@1@@Z
?error@gpu@cv@@YAXPEBD0H0@Z
?exp@cv@@YAXAEBV_InputArray@1@AEBV_OutputArray@1@@Z
?exp@cv@@YAXPEBMPEAMH@Z
?extractChannel@cv@@YAXAEBV_InputArray@1@AEBV_OutputArray@1@H@Z
?extractImageCOI@cv@@YAXPEBXAEBV_OutputArray@1@H@Z
?eye@Mat@cv@@SA?AVMatExpr@2@HHH@Z
?eye@Mat@cv@@SA?AVMatExpr@2@V?$Size_@H@2@H@Z
?family@GlFont@cv@@QEBAAEBV?$basic_string@DU?$char_traits@D@std@@V?$allocator@D@2@@std@@XZ
?fastAtan2@cv@@YAMMM@Z
?fastAtan2@cv@@YAXPEBM0PEAMH_N@Z
?fastFree@cv@@YAXPEAX@Z
?fastMalloc@cv@@YAPEAX_K@Z
?fill@RNG@cv@@QEAAXAEBV_OutputArray@2@HAEBV_InputArray@2@1_N@Z
?fillConvexPoly@cv@@YAXAEAVMat@1@PEBV?$Point_@H@1@HAEBV?$Scalar_@N@1@HH@Z
?fillConvexPoly@cv@@YAXAEBV_OutputArray@1@AEBV_InputArray@1@AEBV?$Scalar_@N@1@HH@Z
?fillPoly@cv@@YAXAEAVMat@1@PEAPEBV?$Point_@H@1@PEBHHAEBV?$Scalar_@N@1@HHV31@@Z
?fillPoly@cv@@YAXAEBV_OutputArray@1@AEBV_InputArray@1@AEBV?$Scalar_@N@1@HHV?$Point_@H@1@@Z
?findNearest@KDTree@cv@@QEBAHAEBV_InputArray@2@HHAEBV_OutputArray@2@111@Z
?findNonZero@cv@@YAXAEBV_InputArray@1@AEBV_OutputArray@1@@Z
?findOrthoRange@KDTree@cv@@QEBAXAEBV_InputArray@2@0AEBV_OutputArray@2@11@Z
?first@CvModule@@2PEAUCvModuleInfo@@EA
?first@CvType@@2PEAUCvTypeInfo@@EA
?fixedSize@_OutputArray@cv@@UEBA_NXZ
?fixedType@_OutputArray@cv@@UEBA_NXZ
?flip@cv@@YAXAEBV_InputArray@1@AEBV_OutputArray@1@H@Z
?format@Texture2D@ogl@cv@@QEBA?AW4Format@123@XZ
?format@cv@@YA?AV?$basic_string@DU?$char_traits@D@std@@V?$allocator@D@2@@std@@PEBDZZ
?formatMessage@Exception@cv@@QEAAXXZ
?freeMemory@DeviceInfo@gpu@cv@@QEBA_KXZ
?fromUtf16@cv@@YA?AV?$basic_string@DU?$char_traits@D@std@@V?$allocator@D@2@@std@@AEBV?$basic_string@_WU?$char_traits@_W@std@@V?$allocator@_W@2@@3@@Z
?gaussian@RNG@cv@@QEAANN@Z
?gemm@cv@@YAXAEBV_InputArray@1@0N0NAEBV_OutputArray@1@H@Z
?get@AlgorithmInfo@cv@@QEBAXPEBVAlgorithm@2@PEBDHPEAX@Z
?get@Formatter@cv@@SAPEBV12@PEBD@Z
?get@GlFont@cv@@SA?AV?$Ptr@VGlFont@cv@@@2@AEBV?$basic_string@DU?$char_traits@D@std@@V?$allocator@D@2@@std@@HW4Weight@12@W4Style@12@@Z
?getAlgorithm@Algorithm@cv@@QEBA?AV?$Ptr@VAlgorithm@cv@@@2@AEBV?$basic_string@DU?$char_traits@D@std@@V?$allocator@D@2@@std@@@Z
?getBool@Algorithm@cv@@QEBA_NAEBV?$basic_string@DU?$char_traits@D@std@@V?$allocator@D@2@@std@@@Z
?getBuildInformation@cv@@YAAEBV?$basic_string@DU?$char_traits@D@std@@V?$allocator@D@2@@std@@XZ
?getCPUTickCount@cv@@YA_JXZ
?getConvertElem@cv@@YAP6AXPEBXPEAXH@ZHH@Z
?getConvertFunc@cv@@YAP6AXPEBE_K01PEAE1V?$Size_@H@1@PEAX@ZHH@Z
?getConvertScaleElem@cv@@YAP6AXPEBXPEAXHNN@ZHH@Z
?getConvertScaleFunc@cv@@YAP6AXPEBE_K01PEAE1V?$Size_@H@1@PEAX@ZHH@Z
?getCopyMaskFunc@cv@@YAP6AXPEBE_K01PEAE1V?$Size_@H@1@PEAX@Z1@Z
?getCudaEnabledDeviceCount@gpu@cv@@YAHXZ
?getData@TLSDataContainer@cv@@QEBAPEAXXZ
?getDefaultObjectName@FileStorage@cv@@SA?AV?$basic_string@DU?$char_traits@D@std@@V?$allocator@D@2@@std@@AEBV34@@Z
?getDevice@gpu@cv@@YAHXZ
?getDouble@Algorithm@cv@@QEBANAEBV?$basic_string@DU?$char_traits@D@std@@V?$allocator@D@2@@std@@@Z
?getFirstTopLevelNode@FileStorage@cv@@QEBA?AVFileNode@2@XZ
?getGlBuffer@_InputArray@cv@@UEBA?AVGlBuffer@2@XZ
?getGlTexture@_InputArray@cv@@UEBA?AVGlTexture@2@XZ
?getGpuMat@_InputArray@cv@@UEBA?AVGpuMat@gpu@2@XZ
?getGpuMatRef@_OutputArray@cv@@QEBAAEAVGpuMat@gpu@2@XZ
?getInt@Algorithm@cv@@QEBAHAEBV?$basic_string@DU?$char_traits@D@std@@V?$allocator@D@2@@std@@@Z
?getList@Algorithm@cv@@SAXAEAV?$vector@V?$basic_string@DU?$char_traits@D@std@@V?$allocator@D@2@@std@@V?$allocator@V?$basic_string@DU?$char_traits@D@std@@V?$allocator@D@2@@std@@@2@@std@@@Z
?getMat@Algorithm@cv@@QEBA?AVMat@2@AEBV?$basic_string@DU?$char_traits@D@std@@V?$allocator@D@2@@std@@@Z
?getMat@_InputArray@cv@@UEBA?AVMat@2@H@Z
?getMatRef@_OutputArray@cv@@UEBAAEAVMat@2@H@Z
?getMatVector@Algorithm@cv@@QEBA?AV?$vector@VMat@cv@@V?$allocator@VMat@cv@@@std@@@std@@AEBV?$basic_string@DU?$char_traits@D@std@@V?$allocator@D@2@@4@@Z
?getMatVector@_InputArray@cv@@UEBAXAEAV?$vector@VMat@cv@@V?$allocator@VMat@cv@@@std@@@std@@@Z
?getNumThreads@cv@@YAHXZ
?getNumberOfCPUs@cv@@YAHXZ
?getOGlBuffer@_InputArray@cv@@QEBA?AVBuffer@ogl@2@XZ
?getOGlBufferRef@_OutputArray@cv@@QEBAAEAVBuffer@ogl@2@XZ
?getOGlTexture2D@_InputArray@cv@@QEBA?AVTexture2D@ogl@2@XZ
?getOGlTexture2DRef@_OutputArray@cv@@QEBAAEAVTexture2D@ogl@2@XZ
?getOptimalDFTSize@cv@@YAHH@Z
?getParams@Algorithm@cv@@QEBAXAEAV?$vector@V?$basic_string@DU?$char_traits@D@std@@V?$allocator@D@2@@std@@V?$allocator@V?$basic_string@DU?$char_traits@D@std@@V?$allocator@D@2@@std@@@2@@std@@@Z
?getParams@AlgorithmInfo@cv@@QEBAXAEAV?$vector@V?$basic_string@DU?$char_traits@D@std@@V?$allocator@D@2@@std@@V?$allocator@V?$basic_string@DU?$char_traits@D@std@@V?$allocator@D@2@@std@@@2@@std@@@Z
?getPoint@KDTree@cv@@QEBAPEBMHPEAH@Z
?getPoints@KDTree@cv@@QEBAXAEBV_InputArray@2@AEBV_OutputArray@2@1@Z
?getSeqElem@cv@@YAPEACPEBUCvSeq@@H@Z
?getString@Algorithm@cv@@QEBA?AV?$basic_string@DU?$char_traits@D@std@@V?$allocator@D@2@@std@@AEBV34@@Z
?getString@CommandLineParser@cv@@IEAA?AV?$basic_string@DU?$char_traits@D@std@@V?$allocator@D@2@@std@@AEBV34@@Z
?getTextSize@cv@@YA?AV?$Size_@H@1@AEBV?$basic_string@DU?$char_traits@D@std@@V?$allocator@D@2@@std@@HNHPEAH@Z
?getThreadNum@cv@@YAHXZ
?getTickCount@cv@@YA_JXZ
?getTickFrequency@cv@@YANXZ
?glob@cv@@YAXV?$basic_string@DU?$char_traits@D@std@@V?$allocator@D@2@@std@@AEAV?$vector@V?$basic_string@DU?$char_traits@D@std@@V?$allocator@D@2@@std@@V?$allocator@V?$basic_string@DU?$char_traits@D@std@@V?$allocator@D@2@@std@@@2@@3@_N@Z
?has@CommandLineParser@cv@@IEAA_NAEBV?$basic_string@DU?$char_traits@D@std@@V?$allocator@D@2@@std@@@Z
?has@TargetArchs@gpu@cv@@SA_NHH@Z
?hasBin@TargetArchs@gpu@cv@@SA_NHH@Z
?hasEqualOrGreater@TargetArchs@gpu@cv@@SA_NHH@Z
?hasEqualOrGreaterBin@TargetArchs@gpu@cv@@SA_NHH@Z
?hasEqualOrGreaterPtx@TargetArchs@gpu@cv@@SA_NHH@Z
?hasEqualOrLessPtx@TargetArchs@gpu@cv@@SA_NHH@Z
?hasPtx@TargetArchs@gpu@cv@@SA_NHH@Z
?hash@SparseMat@cv@@QEBA_KH@Z
?hash@SparseMat@cv@@QEBA_KHH@Z
?hash@SparseMat@cv@@QEBA_KHHH@Z
?hash@SparseMat@cv@@QEBA_KPEBH@Z
?hconcat@cv@@YAXAEBV_InputArray@1@0AEBV_OutputArray@1@@Z
?hconcat@cv@@YAXAEBV_InputArray@1@AEBV_OutputArray@1@@Z
?hconcat@cv@@YAXPEBVMat@1@_KAEBV_OutputArray@1@@Z
?height@GlFont@cv@@QEBAHXZ
?icvCheckGlError@@YA_NPEBDH0@Z
?icvSetOpenGlFuncTab@@YAXPEBVCvOpenGlFuncTab@@@Z
?idct@cv@@YAXAEBV_InputArray@1@AEBV_OutputArray@1@H@Z
?idft@cv@@YAXAEBV_InputArray@1@AEBV_OutputArray@1@HH@Z
?inRange@cv@@YAXAEBV_InputArray@1@00AEBV_OutputArray@1@@Z
?info@Algorithm@cv@@UEBAPEAVAlgorithmInfo@2@XZ
?init@NAryMatIterator@cv@@QEAAXPEAPEBVMat@2@PEAV32@PEAPEAEH@Z
?initEmpty@Mat@cv@@IEAAXXZ
?insertChannel@cv@@YAXAEBV_InputArray@1@AEBV_OutputArray@1@H@Z
?insertImageCOI@cv@@YAXAEBV_InputArray@1@PEAXH@Z
?inv@Mat@cv@@QEBA?AVMatExpr@2@H@Z
?inv@MatExpr@cv@@QEBA?AV12@H@Z
?invert@MatOp@cv@@UEBAXAEBVMatExpr@2@HAEAV32@@Z
?invert@cv@@YANAEBV_InputArray@1@AEBV_OutputArray@1@H@Z
?isCompatible@DeviceInfo@gpu@cv@@QEBA_NXZ
?isContinuous@GpuMat@gpu@cv@@QEBA_NXZ
?isContinuous@Mat@cv@@QEBA_NXZ
?isInt@FileNode@cv@@QEBA_NXZ
?isMap@FileNode@cv@@QEBA_NXZ
?isNamed@FileNode@cv@@QEBA_NXZ
?isNone@FileNode@cv@@QEBA_NXZ
?isOpened@FileStorage@cv@@UEBA_NXZ
?isReal@FileNode@cv@@QEBA_NXZ
?isSeq@FileNode@cv@@QEBA_NXZ
?isString@FileNode@cv@@QEBA_NXZ
?isSubmatrix@Mat@cv@@QEBA_NXZ
?kind@_InputArray@cv@@UEBAHXZ
?kmeans@cv@@YANAEBV_InputArray@1@HAEBV_OutputArray@1@VTermCriteria@1@HH1@Z
?last@CvModule@@2PEAUCvModuleInfo@@EA
?last@CvType@@2PEAUCvTypeInfo@@EA
?line@cv@@YAXAEAVMat@1@V?$Point_@H@1@1AEBV?$Scalar_@N@1@HHH@Z
?locateROI@GpuMat@gpu@cv@@QEBAXAEAV?$Size_@H@3@AEAV?$Point_@H@3@@Z
?locateROI@Mat@cv@@QEBAXAEAV?$Size_@H@2@AEAV?$Point_@H@2@@Z
?lock@Mutex@cv@@QEAAXXZ
?log@cv@@YAXAEBV_InputArray@1@AEBV_OutputArray@1@@Z
?log@cv@@YAXPEBMPEAMH@Z
?lookAt@GlCamera@cv@@QEAAXV?$Point3_@N@2@00@Z
?lpos@MatConstIterator@cv@@QEBA_JXZ
?magnitude@cv@@YAXAEBV_InputArray@1@0AEBV_OutputArray@1@@Z
?magnitude@cv@@YAXPEBM0PEAMH@Z
?majorVersion@DeviceInfo@gpu@cv@@QEBAHXZ
?mapDevice@Buffer@ogl@cv@@QEAA?AVGpuMat@gpu@3@XZ
?mapDevice@GlBuffer@cv@@QEAA?AVGpuMat@gpu@2@XZ
?mapHost@Buffer@ogl@cv@@QEAA?AVMat@3@W4Access@123@@Z
?mapHost@GlBuffer@cv@@QEAA?AVMat@2@XZ
?matmul@MatOp@cv@@UEBAXAEBVMatExpr@2@0AEAV32@@Z
?max@cv@@YA?AVMatExpr@1@AEBVMat@1@0@Z
?max@cv@@YA?AVMatExpr@1@AEBVMat@1@N@Z
?max@cv@@YA?AVMatExpr@1@NAEBVMat@1@@Z
?max@cv@@YAXAEBVMat@1@0AEAV21@@Z
?max@cv@@YAXAEBVMat@1@NAEAV21@@Z
?max@cv@@YAXAEBV_InputArray@1@0AEBV_OutputArray@1@@Z
?mean@cv@@YA?AV?$Scalar_@N@1@AEBV_InputArray@1@0@Z
?meanStdDev@cv@@YAXAEBV_InputArray@1@AEBV_OutputArray@1@10@Z
?merge@cv@@YAXAEBV?$vector@VMat@cv@@V?$allocator@VMat@cv@@@std@@@std@@AEBV_OutputArray@1@@Z
?merge@cv@@YAXAEBV_InputArray@1@AEBV_OutputArray@1@@Z
?merge@cv@@YAXPEBVMat@1@_KAEBV_OutputArray@1@@Z
?min@cv@@YA?AVMatExpr@1@AEBVMat@1@0@Z
?min@cv@@YA?AVMatExpr@1@AEBVMat@1@N@Z
?min@cv@@YA?AVMatExpr@1@NAEBVMat@1@@Z
?min@cv@@YAXAEBVMat@1@0AEAV21@@Z
?min@cv@@YAXAEBVMat@1@NAEAV21@@Z
?min@cv@@YAXAEBV_InputArray@1@0AEBV_OutputArray@1@@Z
?minMaxIdx@cv@@YAXAEBV_InputArray@1@PEAN1PEAH20@Z
?minMaxLoc@cv@@YAXAEBVSparseMat@1@PEAN1PEAH2@Z
?minMaxLoc@cv@@YAXAEBV_InputArray@1@PEAN1PEAV?$Point_@H@1@20@Z
?minorVersion@DeviceInfo@gpu@cv@@QEBAHXZ
?mixChannels@cv@@YAXAEBV?$vector@VMat@cv@@V?$allocator@VMat@cv@@@std@@@std@@AEAV23@PEBH_K@Z
?mixChannels@cv@@YAXAEBV_InputArray@1@0AEBV?$vector@HV?$allocator@H@std@@@std@@@Z
?mixChannels@cv@@YAXPEBVMat@1@_KPEAV21@1PEBH1@Z
?mul@Mat@cv@@QEBA?AVMatExpr@2@AEBV_InputArray@2@N@Z
?mul@MatExpr@cv@@QEBA?AV12@AEBV12@N@Z
?mul@MatExpr@cv@@QEBA?AV12@AEBVMat@2@N@Z
?mulSpectrums@cv@@YAXAEBV_InputArray@1@0AEBV_OutputArray@1@H_N@Z
?mulTransposed@cv@@YAXAEBV_InputArray@1@AEBV_OutputArray@1@_N0NH@Z
?multiProcessorCount@DeviceInfo@gpu@cv@@QEBAHXZ
?multiply@MatOp@cv@@UEBAXAEBVMatExpr@2@0AEAV32@N@Z
?multiply@MatOp@cv@@UEBAXAEBVMatExpr@2@NAEAV32@@Z
?multiply@cv@@YAXAEBV_InputArray@1@0AEBV_OutputArray@1@NH@Z
?name@Algorithm@cv@@QEBA?AV?$basic_string@DU?$char_traits@D@std@@V?$allocator@D@2@@std@@XZ
?name@AlgorithmInfo@cv@@QEBA?AV?$basic_string@DU?$char_traits@D@std@@V?$allocator@D@2@@std@@XZ
?name@DeviceInfo@gpu@cv@@QEBA?AV?$basic_string@DU?$char_traits@D@std@@V?$allocator@D@2@@std@@XZ
?name@FileNode@cv@@QEBA?AV?$basic_string@DU?$char_traits@D@std@@V?$allocator@D@2@@std@@XZ
?needed@_OutputArray@cv@@UEBA_NXZ
?newNode@SparseMat@cv@@QEAAPEAEPEBH_K@Z
?next@RNG@cv@@QEAAIXZ
?next@RNG_MT19937@cv@@QEAAIXZ
?noArray@cv@@YAAEBV_OutputArray@1@XZ
?node@SparseMat@cv@@QEAAPEAUNode@12@_K@Z
?node@SparseMat@cv@@QEBAPEBUNode@12@_K@Z
?node@SparseMatConstIterator@cv@@QEBAPEBUNode@SparseMat@2@XZ
?node@SparseMatIterator@cv@@QEBAPEAUNode@SparseMat@2@XZ
?norm@cv@@YANAEBVSparseMat@1@H@Z
?norm@cv@@YANAEBV_InputArray@1@0H0@Z
?norm@cv@@YANAEBV_InputArray@1@H0@Z
?normHamming@cv@@YAHPEBE0H@Z
?normHamming@cv@@YAHPEBE0HH@Z
?normL1_@cv@@YAHPEBE0H@Z
?normL1_@cv@@YAMPEBM0H@Z
?normL2Sqr_@cv@@YAMPEBM0H@Z
?normalize@cv@@YAXAEBVSparseMat@1@AEAV21@NH@Z
?normalize@cv@@YAXAEBV_InputArray@1@AEBV_OutputArray@1@NNHH0@Z
?nzcount@SparseMat@cv@@QEBA_KXZ
?ones@Mat@cv@@SA?AVMatExpr@2@HHH@Z
?ones@Mat@cv@@SA?AVMatExpr@2@V?$Size_@H@2@H@Z
?open@FileStorage@cv@@UEAA_NAEBV?$basic_string@DU?$char_traits@D@std@@V?$allocator@D@2@@std@@H0@Z
?parallel_for_@cv@@YAXAEBVRange@1@AEBVParallelLoopBody@1@N@Z
?paramHelp@Algorithm@cv@@QEBA?AV?$basic_string@DU?$char_traits@D@std@@V?$allocator@D@2@@std@@AEBV34@@Z
?paramHelp@AlgorithmInfo@cv@@QEBA?AV?$basic_string@DU?$char_traits@D@std@@V?$allocator@D@2@@std@@PEBD@Z
?paramType@Algorithm@cv@@QEBAHAEBV?$basic_string@DU?$char_traits@D@std@@V?$allocator@D@2@@std@@@Z
?paramType@Algorithm@cv@@QEBAHPEBD@Z
?paramType@AlgorithmInfo@cv@@QEBAHPEBD@Z
?patchNaNs@cv@@YAXAEBV_OutputArray@1@N@Z
?perspectiveTransform@cv@@YAXAEBV_InputArray@1@AEBV_OutputArray@1@0@Z
?phase@cv@@YAXAEBV_InputArray@1@0AEBV_OutputArray@1@_N@Z
?points@RotatedRect@cv@@QEBAXQEAV?$Point_@M@2@@Z
?polarToCart@cv@@YAXAEBV_InputArray@1@0AEBV_OutputArray@1@1_N@Z
?polylines@cv@@YAXAEAVMat@1@PEAPEBV?$Point_@H@1@PEBHH_NAEBV?$Scalar_@N@1@HHH@Z
?polylines@cv@@YAXAEBV_OutputArray@1@AEBV_InputArray@1@_NAEBV?$Scalar_@N@1@HHH@Z
?pop_back@Mat@cv@@QEAAX_K@Z
?pos@LineIterator@cv@@QEBA?AV?$Point_@H@2@XZ
?pos@MatConstIterator@cv@@QEBA?AV?$Point_@H@2@XZ
?pos@MatConstIterator@cv@@QEBAXPEAH@Z
?pow@cv@@YAXAEBV_InputArray@1@NAEBV_OutputArray@1@@Z
?printCudaDeviceInfo@gpu@cv@@YAXH@Z
?printParams@CommandLineParser@cv@@QEAAXXZ
?printShortCudaDeviceInfo@gpu@cv@@YAXH@Z
?project@PCA@cv@@QEBA?AVMat@2@AEBV_InputArray@2@@Z
?project@PCA@cv@@QEBAXAEBV_InputArray@2@AEBV_OutputArray@2@@Z
?ptr@GpuMat@gpu@cv@@QEAAPEAEH@Z
?ptr@GpuMat@gpu@cv@@QEBAPEBEH@Z
?ptr@Mat@cv@@QEAAPEAEH@Z
?ptr@Mat@cv@@QEAAPEAEHH@Z
?ptr@Mat@cv@@QEAAPEAEHHH@Z
?ptr@Mat@cv@@QEAAPEAEPEBH@Z
?ptr@Mat@cv@@QEBAPEBEH@Z
?ptr@Mat@cv@@QEBAPEBEHH@Z
?ptr@Mat@cv@@QEBAPEBEHHH@Z
?ptr@Mat@cv@@QEBAPEBEPEBH@Z
?ptr@SparseMat@cv@@QEAAPEAEHHH_NPEA_K@Z
?ptr@SparseMat@cv@@QEAAPEAEHH_NPEA_K@Z
?ptr@SparseMat@cv@@QEAAPEAEH_NPEA_K@Z
?ptr@SparseMat@cv@@QEAAPEAEPEBH_NPEA_K@Z
?push_back@Mat@cv@@QEAAXAEBV12@@Z
?push_back_@Mat@cv@@QEAAXPEBX@Z
?putText@cv@@YAXAEAVMat@1@AEBV?$basic_string@DU?$char_traits@D@std@@V?$allocator@D@2@@std@@V?$Point_@H@1@HNV?$Scalar_@N@1@HH_N@Z
?query@DeviceInfo@gpu@cv@@AEAAXXZ
?queryMemory@DeviceInfo@gpu@cv@@QEBAXAEA_K0@Z
?randShuffle@cv@@YAXAEBV_OutputArray@1@NPEAVRNG@1@@Z
?randShuffle_@cv@@YAXAEBV_OutputArray@1@N@Z
?randn@cv@@YAXAEBV_OutputArray@1@AEBV_InputArray@1@1@Z
?randu@cv@@YAXAEBV_OutputArray@1@AEBV_InputArray@1@1@Z
?read@Algorithm@cv@@UEAAXAEBVFileNode@2@@Z
?read@AlgorithmInfo@cv@@QEBAXPEAVAlgorithm@2@AEBVFileNode@2@@Z
?read@cv@@YAXAEBVFileNode@1@AEAVMat@1@AEBV31@@Z
?read@cv@@YAXAEBVFileNode@1@AEAVSparseMat@1@AEBV31@@Z
?readObj@FileNode@cv@@QEBAPEAXXZ
?readRaw@FileNode@cv@@QEBAXAEBV?$basic_string@DU?$char_traits@D@std@@V?$allocator@D@2@@std@@PEAE_K@Z
?readRaw@FileNodeIterator@cv@@QEAAAEAV12@AEBV?$basic_string@DU?$char_traits@D@std@@V?$allocator@D@2@@std@@PEAE_K@Z
?rectangle@cv@@YAXAEAVMat@1@V?$Point_@H@1@1AEBV?$Scalar_@N@1@HHH@Z
?rectangle@cv@@YAXAEAVMat@1@V?$Rect_@H@1@AEBV?$Scalar_@N@1@HHH@Z
?redirectError@cv@@YAP6AHHPEBD00HPEAX@ZP6AHH000H1@Z1PEAPEAX@Z
?reduce@cv@@YAXAEBV_InputArray@1@AEBV_OutputArray@1@HHH@Z
?release@Arrays@ogl@cv@@QEAAXXZ
?release@Buffer@ogl@cv@@QEAAXXZ
?release@FileStorage@cv@@UEAAXXZ
?release@GlBuffer@cv@@QEAAXXZ
?release@GlTexture@cv@@QEAAXXZ
?release@GpuMat@gpu@cv@@QEAAXXZ
?release@Mat@cv@@QEAAXXZ
?release@SparseMat@cv@@QEAAXXZ
?release@Texture2D@ogl@cv@@QEAAXXZ
?release@_OutputArray@cv@@UEBAXXZ
?releaseAndGetString@FileStorage@cv@@QEAA?AV?$basic_string@DU?$char_traits@D@std@@V?$allocator@D@2@@std@@XZ
?removeNode@SparseMat@cv@@QEAAX_K00@Z
?render@cv@@YAXAEBV?$basic_string@DU?$char_traits@D@std@@V?$allocator@D@2@@std@@AEBV?$Ptr@VGlFont@cv@@@1@V?$Scalar_@N@1@V?$Point_@N@1@@Z
?render@cv@@YAXAEBVGlArrays@1@HV?$Scalar_@N@1@@Z
?render@cv@@YAXAEBVGlTexture@1@V?$Rect_@N@1@1@Z
?render@ogl@cv@@YAXAEBVArrays@12@AEBV_InputArray@2@HV?$Scalar_@N@2@@Z
?render@ogl@cv@@YAXAEBVArrays@12@HV?$Scalar_@N@2@@Z
?render@ogl@cv@@YAXAEBVTexture2D@12@V?$Rect_@N@2@1@Z
?repeat@cv@@YA?AVMat@1@AEBV21@HH@Z
?repeat@cv@@YAXAEBV_InputArray@1@HHAEBV_OutputArray@1@@Z
?reserve@Mat@cv@@QEAAX_K@Z
?resetColorArray@Arrays@ogl@cv@@QEAAXXZ
?resetColorArray@GlArrays@cv@@QEAAXXZ
?resetDevice@gpu@cv@@YAXXZ
?resetNormalArray@Arrays@ogl@cv@@QEAAXXZ
?resetNormalArray@GlArrays@cv@@QEAAXXZ
?resetTexCoordArray@Arrays@ogl@cv@@QEAAXXZ
?resetTexCoordArray@GlArrays@cv@@QEAAXXZ
?resetVertexArray@Arrays@ogl@cv@@QEAAXXZ
?resetVertexArray@GlArrays@cv@@QEAAXXZ
?reshape@GpuMat@gpu@cv@@QEBA?AV123@HH@Z
?reshape@Mat@cv@@QEBA?AV12@HH@Z
?reshape@Mat@cv@@QEBA?AV12@HHPEBH@Z
?resize@Mat@cv@@QEAAX_K@Z
?resize@Mat@cv@@QEAAX_KAEBV?$Scalar_@N@2@@Z
?resizeHashTab@SparseMat@cv@@QEAAX_K@Z
?roi@MatOp@cv@@UEBAXAEBVMatExpr@2@AEBVRange@2@1AEAV32@@Z
?root@FileStorage@cv@@QEBA?AVFileNode@2@H@Z
?row@GpuMat@gpu@cv@@QEBA?AV123@H@Z
?row@Mat@cv@@QEBA?AV12@H@Z
?row@MatExpr@cv@@QEBA?AV12@H@Z
?rowRange@GpuMat@gpu@cv@@QEBA?AV123@HH@Z
?rowRange@GpuMat@gpu@cv@@QEBA?AV123@VRange@3@@Z
?rowRange@Mat@cv@@QEBA?AV12@AEBVRange@2@@Z
?rowRange@Mat@cv@@QEBA?AV12@HH@Z
?rows@Buffer@ogl@cv@@QEBAHXZ
?rows@GlArrays@cv@@QEBAHXZ
?rows@GlBuffer@cv@@QEBAHXZ
?rows@GlTexture@cv@@QEBAHXZ
?rows@Texture2D@ogl@cv@@QEBAHXZ
?scalarToRawData@cv@@YAXAEBV?$Scalar_@N@1@PEAXHH@Z
?scaleAdd@cv@@YAXAEBV_InputArray@1@N0AEBV_OutputArray@1@@Z
?seed@RNG_MT19937@cv@@QEAAXI@Z
?seek@MatConstIterator@cv@@QEAAXPEBH_N@Z
?seek@MatConstIterator@cv@@QEAAX_J_N@Z
?seekEnd@SparseMatConstIterator@cv@@QEAAXXZ
?seqInsertSlice@cv@@YAXPEAUCvSeq@@HPEBX@Z
?seqPop@cv@@YAXPEAUCvSeq@@PEAX@Z
?seqPopFront@cv@@YAXPEAUCvSeq@@PEAX@Z
?seqPush@cv@@YAPEACPEAUCvSeq@@PEBX@Z
?seqPushFront@cv@@YAPEACPEAUCvSeq@@PEBX@Z
?seqRemove@cv@@YAXPEAUCvSeq@@H@Z
?seqRemoveSlice@cv@@YAXPEAUCvSeq@@UCvSlice@@@Z
?set@Algorithm@cv@@QEAAXAEBV?$basic_string@DU?$char_traits@D@std@@V?$allocator@D@2@@std@@0@Z
?set@Algorithm@cv@@QEAAXAEBV?$basic_string@DU?$char_traits@D@std@@V?$allocator@D@2@@std@@AEBV?$Ptr@VAlgorithm@cv@@@2@@Z
?set@Algorithm@cv@@QEAAXAEBV?$basic_string@DU?$char_traits@D@std@@V?$allocator@D@2@@std@@AEBV?$vector@VMat@cv@@V?$allocator@VMat@cv@@@std@@@4@@Z
?set@Algorithm@cv@@QEAAXAEBV?$basic_string@DU?$char_traits@D@std@@V?$allocator@D@2@@std@@AEBVMat@2@@Z
?set@Algorithm@cv@@QEAAXAEBV?$basic_string@DU?$char_traits@D@std@@V?$allocator@D@2@@std@@H@Z
?set@Algorithm@cv@@QEAAXAEBV?$basic_string@DU?$char_traits@D@std@@V?$allocator@D@2@@std@@N@Z
?set@Algorithm@cv@@QEAAXAEBV?$basic_string@DU?$char_traits@D@std@@V?$allocator@D@2@@std@@_N@Z
?set@Algorithm@cv@@QEAAXPEBDAEBV?$Ptr@VAlgorithm@cv@@@2@@Z
?set@Algorithm@cv@@QEAAXPEBDAEBV?$basic_string@DU?$char_traits@D@std@@V?$allocator@D@2@@std@@@Z
?set@Algorithm@cv@@QEAAXPEBDAEBV?$vector@VMat@cv@@V?$allocator@VMat@cv@@@std@@@std@@@Z
?set@Algorithm@cv@@QEAAXPEBDAEBVMat@2@@Z
?set@Algorithm@cv@@QEAAXPEBDH@Z
?set@Algorithm@cv@@QEAAXPEBDN@Z
?set@Algorithm@cv@@QEAAXPEBD_N@Z
?set@AlgorithmInfo@cv@@IEBAXPEAVAlgorithm@2@PEBDHPEBX_N@Z
?setAlgorithm@Algorithm@cv@@QEAAXAEBV?$basic_string@DU?$char_traits@D@std@@V?$allocator@D@2@@std@@AEBV?$Ptr@VAlgorithm@cv@@@2@@Z
?setAlgorithm@Algorithm@cv@@QEAAXPEBDAEBV?$Ptr@VAlgorithm@cv@@@2@@Z
?setAutoRelease@Arrays@ogl@cv@@QEAAX_N@Z
?setAutoRelease@Buffer@ogl@cv@@QEAAX_N@Z
?setAutoRelease@Texture2D@ogl@cv@@QEAAX_N@Z
?setBool@Algorithm@cv@@QEAAXAEBV?$basic_string@DU?$char_traits@D@std@@V?$allocator@D@2@@std@@_N@Z
?setBool@Algorithm@cv@@QEAAXPEBD_N@Z
?setBreakOnError@cv@@YA_N_N@Z
?setCameraPos@GlCamera@cv@@QEAAXV?$Point3_@N@2@NNN@Z
?setColorArray@Arrays@ogl@cv@@QEAAXAEBV_InputArray@3@@Z
?setColorArray@GlArrays@cv@@QEAAXAEBV_InputArray@2@_N@Z
?setDefault@Formatter@cv@@SAPEBV12@PEBV12@@Z
?setDevice@gpu@cv@@YAXH@Z
?setDouble@Algorithm@cv@@QEAAXAEBV?$basic_string@DU?$char_traits@D@std@@V?$allocator@D@2@@std@@N@Z
?setDouble@Algorithm@cv@@QEAAXPEBDN@Z
?setGlDevice@gpu@cv@@YAXH@Z
?setIdentity@cv@@YAXAEBV_OutputArray@1@AEBV?$Scalar_@N@1@@Z
?setInt@Algorithm@cv@@QEAAXAEBV?$basic_string@DU?$char_traits@D@std@@V?$allocator@D@2@@std@@H@Z
?setInt@Algorithm@cv@@QEAAXPEBDH@Z
?setMat@Algorithm@cv@@QEAAXAEBV?$basic_string@DU?$char_traits@D@std@@V?$allocator@D@2@@std@@AEBVMat@2@@Z
?setMat@Algorithm@cv@@QEAAXPEBDAEBVMat@2@@Z
?setMatVector@Algorithm@cv@@QEAAXAEBV?$basic_string@DU?$char_traits@D@std@@V?$allocator@D@2@@std@@AEBV?$vector@VMat@cv@@V?$allocator@VMat@cv@@@std@@@4@@Z
?setMatVector@Algorithm@cv@@QEAAXPEBDAEBV?$vector@VMat@cv@@V?$allocator@VMat@cv@@@std@@@std@@@Z
?setNormalArray@Arrays@ogl@cv@@QEAAXAEBV_InputArray@3@@Z
?setNormalArray@GlArrays@cv@@QEAAXAEBV_InputArray@2@@Z
?setNumThreads@cv@@YAXH@Z
?setOrthoProjection@GlCamera@cv@@QEAAXNNNNNN@Z
?setPerspectiveProjection@GlCamera@cv@@QEAAXNNNN@Z
?setProjectionMatrix@GlCamera@cv@@QEAAXAEBVMat@2@_N@Z
?setScale@GlCamera@cv@@QEAAXV?$Point3_@N@2@@Z
?setString@Algorithm@cv@@QEAAXAEBV?$basic_string@DU?$char_traits@D@std@@V?$allocator@D@2@@std@@0@Z
?setString@Algorithm@cv@@QEAAXPEBDAEBV?$basic_string@DU?$char_traits@D@std@@V?$allocator@D@2@@std@@@Z
?setTexCoordArray@Arrays@ogl@cv@@QEAAXAEBV_InputArray@3@@Z
?setTexCoordArray@GlArrays@cv@@QEAAXAEBV_InputArray@2@@Z
?setTo@GpuMat@gpu@cv@@QEAAAEAV123@V?$Scalar_@N@3@AEBV123@@Z
?setTo@Mat@cv@@QEAAAEAV12@AEBV_InputArray@2@0@Z
?setTo@gpu@cv@@YAXAEAVGpuMat@12@V?$Scalar_@N@2@@Z
?setTo@gpu@cv@@YAXAEAVGpuMat@12@V?$Scalar_@N@2@AEBV312@@Z
?setTo@gpu@cv@@YAXAEAVGpuMat@12@V?$Scalar_@N@2@AEBV312@PEAX@Z
?setTo@gpu@cv@@YAXAEAVGpuMat@12@V?$Scalar_@N@2@PEAX@Z
?setUseOptimized@cv@@YAX_N@Z
?setVertexArray@Arrays@ogl@cv@@QEAAXAEBV_InputArray@3@@Z
?setVertexArray@GlArrays@cv@@QEAAXAEBV_InputArray@2@@Z
?setupModelViewMatrix@GlCamera@cv@@QEBAXXZ
?setupProjectionMatrix@GlCamera@cv@@QEBAXXZ
?sharedMemPerBlock@DeviceInfo@gpu@cv@@QEBA_KXZ
?size@Arrays@ogl@cv@@QEBAHXZ
?size@Buffer@ogl@cv@@QEBA?AV?$Size_@H@3@XZ
?size@FileNode@cv@@QEBA_KXZ
?size@GlArrays@cv@@QEBA?AV?$Size_@H@2@XZ
?size@GlBuffer@cv@@QEBA?AV?$Size_@H@2@XZ
?size@GlTexture@cv@@QEBA?AV?$Size_@H@2@XZ
?size@GpuMat@gpu@cv@@QEBA?AV?$Size_@H@3@XZ
?size@MatExpr@cv@@QEBA?AV?$Size_@H@2@XZ
?size@MatOp@cv@@UEBA?AV?$Size_@H@2@AEBVMatExpr@2@@Z
?size@Range@cv@@QEBAHXZ
?size@SparseMat@cv@@QEBAHH@Z
?size@SparseMat@cv@@QEBAPEBHXZ
?size@Texture2D@ogl@cv@@QEBA?AV?$Size_@H@3@XZ
?size@_InputArray@cv@@UEBA?AV?$Size_@H@2@H@Z
?solve@cv@@YA_NAEBV_InputArray@1@0AEBV_OutputArray@1@H@Z
?solveCubic@cv@@YAHAEBV_InputArray@1@AEBV_OutputArray@1@@Z
?solvePoly@cv@@YANAEBV_InputArray@1@AEBV_OutputArray@1@H@Z
?solveZ@SVD@cv@@SAXAEBV_InputArray@2@AEBV_OutputArray@2@@Z
?sort@cv@@YAXAEBV_InputArray@1@AEBV_OutputArray@1@H@Z
?sortIdx@cv@@YAXAEBV_InputArray@1@AEBV_OutputArray@1@H@Z
?split@cv@@YAXAEBVMat@1@AEAV?$vector@VMat@cv@@V?$allocator@VMat@cv@@@std@@@std@@@Z
?split@cv@@YAXAEBVMat@1@PEAV21@@Z
?split@cv@@YAXAEBV_InputArray@1@AEBV_OutputArray@1@@Z
?sqrt@cv@@YAXAEBV_InputArray@1@AEBV_OutputArray@1@@Z
?step1@GpuMat@gpu@cv@@QEBA_KXZ
?step1@Mat@cv@@QEBA_KH@Z
?style@GlFont@cv@@QEBA?AW4Style@12@XZ
?subtract@MatOp@cv@@UEBAXAEBV?$Scalar_@N@2@AEBVMatExpr@2@AEAV42@@Z
?subtract@MatOp@cv@@UEBAXAEBVMatExpr@2@0AEAV32@@Z
?subtract@cv@@YAXAEBV_InputArray@1@0AEBV_OutputArray@1@0H@Z
?sum@cv@@YA?AV?$Scalar_@N@1@AEBV_InputArray@1@@Z
?supports@DeviceInfo@gpu@cv@@QEBA_NW4FeatureSet@23@@Z
?swap@GpuMat@gpu@cv@@QEAAXAEAV123@@Z
?swap@cv@@YAXAEAVMat@1@0@Z
?t@Mat@cv@@QEBA?AVMatExpr@2@XZ
?t@MatExpr@cv@@QEBA?AV12@XZ
?tempfile@cv@@YA?AV?$basic_string@DU?$char_traits@D@std@@V?$allocator@D@2@@std@@PEBD@Z
?texId@Texture2D@ogl@cv@@QEBAIXZ
?theRNG@cv@@YAAEAVRNG@1@XZ
?toUtf16@cv@@YA?AV?$basic_string@_WU?$char_traits@_W@std@@V?$allocator@_W@2@@std@@AEBV?$basic_string@DU?$char_traits@D@std@@V?$allocator@D@2@@3@@Z
?total@Mat@cv@@QEBA_KXZ
?total@_InputArray@cv@@UEBA_KH@Z
?totalMemory@DeviceInfo@gpu@cv@@QEBA_KXZ
?trace@cv@@YA?AV?$Scalar_@N@1@AEBV_InputArray@1@@Z
?transform@cv@@YAXAEBV_InputArray@1@AEBV_OutputArray@1@0@Z
?transpose@MatOp@cv@@UEBAXAEBVMatExpr@2@AEAV32@@Z
?transpose@cv@@YAXAEBV_InputArray@1@AEBV_OutputArray@1@@Z
?trylock@Mutex@cv@@QEAA_NXZ
?type@Buffer@ogl@cv@@QEBAHXZ
?type@FileNode@cv@@QEBAHXZ
?type@GlBuffer@cv@@QEBAHXZ
?type@GlTexture@cv@@QEBAHXZ
?type@GpuMat@gpu@cv@@QEBAHXZ
?type@Mat@cv@@QEBAHXZ
?type@MatExpr@cv@@QEBAHXZ
?type@MatOp@cv@@UEBAHAEBVMatExpr@2@@Z
?type@SparseMat@cv@@QEBAHXZ
?type@_InputArray@cv@@UEBAHH@Z
?unbind@Buffer@ogl@cv@@SAXW4Target@123@@Z
?unbind@GlArrays@cv@@QEBAXXZ
?unbind@GlBuffer@cv@@QEBAXXZ
?unbind@GlTexture@cv@@QEBAXXZ
?uniform@RNG@cv@@QEAAHHH@Z
?uniform@RNG@cv@@QEAAMMM@Z
?uniform@RNG@cv@@QEAANNN@Z
?uniform@RNG_MT19937@cv@@QEAAHHH@Z
?uniform@RNG_MT19937@cv@@QEAAMMM@Z
?uniform@RNG_MT19937@cv@@QEAANNN@Z
?unlock@Mutex@cv@@QEAAXXZ
?unmapDevice@Buffer@ogl@cv@@QEAAXXZ
?unmapDevice@GlBuffer@cv@@QEAAXXZ
?unmapHost@Buffer@ogl@cv@@QEAAXXZ
?unmapHost@GlBuffer@cv@@QEAAXXZ
?upload@GpuMat@gpu@cv@@QEAAXAEBVMat@3@@Z
?usage@GlBuffer@cv@@QEBA?AW4Usage@12@XZ
?useOptimized@cv@@YA_NXZ
?vconcat@cv@@YAXAEBV_InputArray@1@0AEBV_OutputArray@1@@Z
?vconcat@cv@@YAXAEBV_InputArray@1@AEBV_OutputArray@1@@Z
?vconcat@cv@@YAXPEBVMat@1@_KAEBV_OutputArray@1@@Z
?weight@GlFont@cv@@QEBA?AW4Weight@12@XZ
?what@Exception@cv@@UEBAPEBDXZ
?write@Algorithm@cv@@UEBAXAEAVFileStorage@2@@Z
?write@AlgorithmInfo@cv@@QEBAXPEBVAlgorithm@2@AEAVFileStorage@2@@Z
?write@cv@@YAXAEAVFileStorage@1@AEBV?$basic_string@DU?$char_traits@D@std@@V?$allocator@D@2@@std@@1@Z
?write@cv@@YAXAEAVFileStorage@1@AEBV?$basic_string@DU?$char_traits@D@std@@V?$allocator@D@2@@std@@AEBVMat@1@@Z
?write@cv@@YAXAEAVFileStorage@1@AEBV?$basic_string@DU?$char_traits@D@std@@V?$allocator@D@2@@std@@AEBVSparseMat@1@@Z
?write@cv@@YAXAEAVFileStorage@1@AEBV?$basic_string@DU?$char_traits@D@std@@V?$allocator@D@2@@std@@H@Z
?write@cv@@YAXAEAVFileStorage@1@AEBV?$basic_string@DU?$char_traits@D@std@@V?$allocator@D@2@@std@@M@Z
?write@cv@@YAXAEAVFileStorage@1@AEBV?$basic_string@DU?$char_traits@D@std@@V?$allocator@D@2@@std@@N@Z
?writeObj@FileStorage@cv@@QEAAXAEBV?$basic_string@DU?$char_traits@D@std@@V?$allocator@D@2@@std@@PEBX@Z
?writeRaw@FileStorage@cv@@QEAAXAEBV?$basic_string@DU?$char_traits@D@std@@V?$allocator@D@2@@std@@PEBE_K@Z
?writeScalar@cv@@YAXAEAVFileStorage@1@AEBV?$basic_string@DU?$char_traits@D@std@@V?$allocator@D@2@@std@@@Z
?writeScalar@cv@@YAXAEAVFileStorage@1@H@Z
?writeScalar@cv@@YAXAEAVFileStorage@1@M@Z
?writeScalar@cv@@YAXAEAVFileStorage@1@N@Z
?zeros@Mat@cv@@SA?AVMatExpr@2@HHH@Z
?zeros@Mat@cv@@SA?AVMatExpr@2@V?$Size_@H@2@H@Z
cvAbsDiff
cvAbsDiffS
cvAdd
cvAddS
cvAddWeighted
cvAlloc
cvAnd
cvAndS
cvAttrValue
cvAvg
cvAvgSdv
cvBackProjectPCA
cvCalcCovarMatrix
cvCalcPCA
cvCartToPolar
cvCbrt
cvChangeSeqBlock
cvCheckArr
cvCheckHardwareSupport
cvCheckTermCriteria
cvCircle
cvClearGraph
cvClearMemStorage
cvClearND
cvClearSeq
cvClearSet
cvClipLine
cvClone
cvCloneGraph
cvCloneImage
cvCloneMat
cvCloneMatND
cvCloneSparseMat
cvCmp
cvCmpS
cvColorToScalar
cvCompleteSymm
cvConvertScale
cvConvertScaleAbs
cvCopy
cvCountNonZero
cvCreateChildMemStorage
cvCreateData
cvCreateGraph
cvCreateGraphScanner
cvCreateImage
cvCreateImageHeader
cvCreateMat
cvCreateMatHeader
cvCreateMatND
cvCreateMatNDHeader
cvCreateMemStorage
cvCreateSeq
cvCreateSeqBlock
cvCreateSet
cvCreateSparseMat
cvCrossProduct
cvCvtSeqToArray
cvDCT
cvDFT
cvDet
cvDiv
cvDotProduct
cvDrawContours
cvEigenVV
cvEllipse
cvEllipse2Poly
cvEndWriteSeq
cvEndWriteStruct
cvError
cvErrorFromIppStatus
cvErrorStr
cvExp
cvFastArctan
cvFillConvexPoly
cvFillPoly
cvFindGraphEdge
cvFindGraphEdgeByPtr
cvFindType
cvFirstType
cvFlip
cvFlushSeqWriter
cvFree_
cvGEMM
cvGet1D
cvGet2D
cvGet3D
cvGetCols
cvGetDiag
cvGetDimSize
cvGetDims
cvGetElemType
cvGetErrInfo
cvGetErrMode
cvGetErrStatus
cvGetFileNode
cvGetFileNodeByName
cvGetFileNodeName
cvGetHashedKey
cvGetImage
cvGetImageCOI
cvGetImageROI
cvGetMat
cvGetModuleInfo
cvGetND
cvGetNumThreads
cvGetOptimalDFTSize
cvGetRawData
cvGetReal1D
cvGetReal2D
cvGetReal3D
cvGetRealND
cvGetRootFileNode
cvGetRows
cvGetSeqElem
cvGetSeqReaderPos
cvGetSize
cvGetSubRect
cvGetTextSize
cvGetThreadNum
cvGetTickCount
cvGetTickFrequency
cvGraphAddEdge
cvGraphAddEdgeByPtr
cvGraphAddVtx
cvGraphRemoveEdge
cvGraphRemoveEdgeByPtr
cvGraphRemoveVtx
cvGraphRemoveVtxByPtr
cvGraphVtxDegree
cvGraphVtxDegreeByPtr
cvGuiBoxReport
cvInRange
cvInRangeS
cvInitFont
cvInitImageHeader
cvInitLineIterator
cvInitMatHeader
cvInitMatNDHeader
cvInitNArrayIterator
cvInitSparseMatIterator
cvInitTreeNodeIterator
cvInsertNodeIntoTree
cvInvert
cvKMeans2
cvLUT
cvLine
cvLoad
cvLog
cvMahalanobis
cvMakeSeqHeaderForArray
cvMax
cvMaxS
cvMemStorageAlloc
cvMemStorageAllocString
cvMerge
cvMin
cvMinMaxLoc
cvMinS
cvMixChannels
cvMul
cvMulSpectrums
cvMulTransposed
cvNextGraphItem
cvNextNArraySlice
cvNextTreeNode
cvNorm
cvNormalize
cvNot
cvNulDevReport
cvOpenFileStorage
cvOr
cvOrS
cvPerspectiveTransform
cvPolarToCart
cvPolyLine
cvPow
cvPrevTreeNode
cvProjectPCA
cvPtr1D
cvPtr2D
cvPtr3D
cvPtrND
cvPutText
cvRandArr
cvRandShuffle
cvRange
cvRawDataToScalar
cvRead
cvReadRawData
cvReadRawDataSlice
cvRectangle
cvRectangleR
cvRedirectError
cvReduce
cvRegisterModule
cvRegisterType
cvRelease
cvReleaseData
cvReleaseFileStorage
cvReleaseGraphScanner
cvReleaseImage
cvReleaseImageHeader
cvReleaseMat
cvReleaseMemStorage
cvReleaseSparseMat
cvRemoveNodeFromTree
cvRepeat
cvResetImageROI
cvReshape
cvReshapeMatND
cvRestoreMemStoragePos
cvSVBkSb
cvSVD
cvSave
cvSaveMemStoragePos
cvScalarToRawData
cvScaleAdd
cvSeqElemIdx
cvSeqInsert
cvSeqInsertSlice
cvSeqInvert
cvSeqPartition
cvSeqPop
cvSeqPopFront
cvSeqPopMulti
cvSeqPush
cvSeqPushFront
cvSeqPushMulti
cvSeqRemove
cvSeqRemoveSlice
cvSeqSearch
cvSeqSlice
cvSeqSort
cvSet
cvSet1D
cvSet2D
cvSet3D
cvSetAdd
cvSetData
cvSetErrMode
cvSetErrStatus
cvSetIPLAllocators
cvSetIdentity
cvSetImageCOI
cvSetImageROI
cvSetMemoryManager
cvSetND
cvSetNumThreads
cvSetReal1D
cvSetReal2D
cvSetReal3D
cvSetRealND
cvSetRemove
cvSetSeqBlockSize
cvSetSeqReaderPos
cvSetZero
cvSliceLength
cvSolve
cvSolveCubic
cvSolvePoly
cvSort
cvSplit
cvStartAppendToSeq
cvStartNextStream
cvStartReadRawData
cvStartReadSeq
cvStartWriteSeq
cvStartWriteStruct
cvStdErrReport
cvSub
cvSubRS
cvSum
cvTrace
cvTransform
cvTranspose
cvTreeToNodeSeq
cvTypeOf
cvUnregisterType
cvUseOptimized
cvWrite
cvWriteComment
cvWriteFileNode
cvWriteInt
cvWriteRawData
cvWriteReal
cvWriteString
cvXor
cvXorS